
09_StackOverflow_Hook.elf:     file format elf32-littlearm

Sections:
Idx Name          Size      VMA       LMA       File off  Algn
  0 .isr_vector   00000188  08000000  08000000  00001000  2**0
                  CONTENTS, ALLOC, LOAD, READONLY, DATA
  1 .text         0000502c  08000190  08000190  00001190  2**4
                  CONTENTS, ALLOC, LOAD, READONLY, CODE
  2 .rodata       000000d8  080051bc  080051bc  000061bc  2**2
                  CONTENTS, ALLOC, LOAD, READONLY, DATA
  3 .ARM.extab    00000000  08005294  08005294  00007060  2**0
                  CONTENTS, READONLY
  4 .ARM          00000008  08005294  08005294  00006294  2**2
                  CONTENTS, ALLOC, LOAD, READONLY, DATA
  5 .preinit_array 00000000  0800529c  0800529c  00007060  2**0
                  CONTENTS, ALLOC, LOAD, DATA
  6 .init_array   00000004  0800529c  0800529c  0000629c  2**2
                  CONTENTS, ALLOC, LOAD, READONLY, DATA
  7 .fini_array   00000004  080052a0  080052a0  000062a0  2**2
                  CONTENTS, ALLOC, LOAD, READONLY, DATA
  8 .data         00000060  20000000  080052a4  00007000  2**2
                  CONTENTS, ALLOC, LOAD, DATA
  9 .bss          00001158  20000060  08005304  00007060  2**2
                  ALLOC
 10 ._user_heap_stack 00000600  200011b8  08005304  000071b8  2**0
                  ALLOC
 11 .ARM.attributes 00000030  00000000  00000000  00007060  2**0
                  CONTENTS, READONLY
 12 .debug_info   0000f1a1  00000000  00000000  00007090  2**0
                  CONTENTS, READONLY, DEBUGGING, OCTETS
 13 .debug_abbrev 000025ec  00000000  00000000  00016231  2**0
                  CONTENTS, READONLY, DEBUGGING, OCTETS
 14 .debug_aranges 00000da0  00000000  00000000  00018820  2**3
                  CONTENTS, READONLY, DEBUGGING, OCTETS
 15 .debug_rnglists 00000a67  00000000  00000000  000195c0  2**0
                  CONTENTS, READONLY, DEBUGGING, OCTETS
 16 .debug_macro  0002754f  00000000  00000000  0001a027  2**0
                  CONTENTS, READONLY, DEBUGGING, OCTETS
 17 .debug_line   0000f9e9  00000000  00000000  00041576  2**0
                  CONTENTS, READONLY, DEBUGGING, OCTETS
 18 .debug_str    000f0422  00000000  00000000  00050f5f  2**0
                  CONTENTS, READONLY, DEBUGGING, OCTETS
 19 .comment      00000043  00000000  00000000  00141381  2**0
                  CONTENTS, READONLY
 20 .debug_frame  00003bb8  00000000  00000000  001413c4  2**2
                  CONTENTS, READONLY, DEBUGGING, OCTETS
 21 .debug_line_str 00000078  00000000  00000000  00144f7c  2**0
                  CONTENTS, READONLY, DEBUGGING, OCTETS

Disassembly of section .text:

08000190 <__do_global_dtors_aux>:
 8000190:	b510      	push	{r4, lr}
 8000192:	4c05      	ldr	r4, [pc, #20]	@ (80001a8 <__do_global_dtors_aux+0x18>)
 8000194:	7823      	ldrb	r3, [r4, #0]
 8000196:	b933      	cbnz	r3, 80001a6 <__do_global_dtors_aux+0x16>
 8000198:	4b04      	ldr	r3, [pc, #16]	@ (80001ac <__do_global_dtors_aux+0x1c>)
 800019a:	b113      	cbz	r3, 80001a2 <__do_global_dtors_aux+0x12>
 800019c:	4804      	ldr	r0, [pc, #16]	@ (80001b0 <__do_global_dtors_aux+0x20>)
 800019e:	f3af 8000 	nop.w
 80001a2:	2301      	movs	r3, #1
 80001a4:	7023      	strb	r3, [r4, #0]
 80001a6:	bd10      	pop	{r4, pc}
 80001a8:	20000060 	.word	0x20000060
 80001ac:	00000000 	.word	0x00000000
 80001b0:	080051a4 	.word	0x080051a4

080001b4 <frame_dummy>:
 80001b4:	b508      	push	{r3, lr}
 80001b6:	4b03      	ldr	r3, [pc, #12]	@ (80001c4 <frame_dummy+0x10>)
 80001b8:	b11b      	cbz	r3, 80001c2 <frame_dummy+0xe>
 80001ba:	4903      	ldr	r1, [pc, #12]	@ (80001c8 <frame_dummy+0x14>)
 80001bc:	4803      	ldr	r0, [pc, #12]	@ (80001cc <frame_dummy+0x18>)
 80001be:	f3af 8000 	nop.w
 80001c2:	bd08      	pop	{r3, pc}
 80001c4:	00000000 	.word	0x00000000
 80001c8:	20000064 	.word	0x20000064
 80001cc:	080051a4 	.word	0x080051a4

080001d0 <strlen>:
 80001d0:	4603      	mov	r3, r0
 80001d2:	f813 2b01 	ldrb.w	r2, [r3], #1
 80001d6:	2a00      	cmp	r2, #0
 80001d8:	d1fb      	bne.n	80001d2 <strlen+0x2>
 80001da:	1a18      	subs	r0, r3, r0
 80001dc:	3801      	subs	r0, #1
 80001de:	4770      	bx	lr

080001e0 <memchr>:
 80001e0:	f001 01ff 	and.w	r1, r1, #255	@ 0xff
 80001e4:	2a10      	cmp	r2, #16
 80001e6:	db2b      	blt.n	8000240 <memchr+0x60>
 80001e8:	f010 0f07 	tst.w	r0, #7
 80001ec:	d008      	beq.n	8000200 <memchr+0x20>
 80001ee:	f810 3b01 	ldrb.w	r3, [r0], #1
 80001f2:	3a01      	subs	r2, #1
 80001f4:	428b      	cmp	r3, r1
 80001f6:	d02d      	beq.n	8000254 <memchr+0x74>
 80001f8:	f010 0f07 	tst.w	r0, #7
 80001fc:	b342      	cbz	r2, 8000250 <memchr+0x70>
 80001fe:	d1f6      	bne.n	80001ee <memchr+0xe>
 8000200:	b4f0      	push	{r4, r5, r6, r7}
 8000202:	ea41 2101 	orr.w	r1, r1, r1, lsl #8
 8000206:	ea41 4101 	orr.w	r1, r1, r1, lsl #16
 800020a:	f022 0407 	bic.w	r4, r2, #7
 800020e:	f07f 0700 	mvns.w	r7, #0
 8000212:	2300      	movs	r3, #0
 8000214:	e8f0 5602 	ldrd	r5, r6, [r0], #8
 8000218:	3c08      	subs	r4, #8
 800021a:	ea85 0501 	eor.w	r5, r5, r1
 800021e:	ea86 0601 	eor.w	r6, r6, r1
 8000222:	fa85 f547 	uadd8	r5, r5, r7
 8000226:	faa3 f587 	sel	r5, r3, r7
 800022a:	fa86 f647 	uadd8	r6, r6, r7
 800022e:	faa5 f687 	sel	r6, r5, r7
 8000232:	b98e      	cbnz	r6, 8000258 <memchr+0x78>
 8000234:	d1ee      	bne.n	8000214 <memchr+0x34>
 8000236:	bcf0      	pop	{r4, r5, r6, r7}
 8000238:	f001 01ff 	and.w	r1, r1, #255	@ 0xff
 800023c:	f002 0207 	and.w	r2, r2, #7
 8000240:	b132      	cbz	r2, 8000250 <memchr+0x70>
 8000242:	f810 3b01 	ldrb.w	r3, [r0], #1
 8000246:	3a01      	subs	r2, #1
 8000248:	ea83 0301 	eor.w	r3, r3, r1
 800024c:	b113      	cbz	r3, 8000254 <memchr+0x74>
 800024e:	d1f8      	bne.n	8000242 <memchr+0x62>
 8000250:	2000      	movs	r0, #0
 8000252:	4770      	bx	lr
 8000254:	3801      	subs	r0, #1
 8000256:	4770      	bx	lr
 8000258:	2d00      	cmp	r5, #0
 800025a:	bf06      	itte	eq
 800025c:	4635      	moveq	r5, r6
 800025e:	3803      	subeq	r0, #3
 8000260:	3807      	subne	r0, #7
 8000262:	f015 0f01 	tst.w	r5, #1
 8000266:	d107      	bne.n	8000278 <memchr+0x98>
 8000268:	3001      	adds	r0, #1
 800026a:	f415 7f80 	tst.w	r5, #256	@ 0x100
 800026e:	bf02      	ittt	eq
 8000270:	3001      	addeq	r0, #1
 8000272:	f415 3fc0 	tsteq.w	r5, #98304	@ 0x18000
 8000276:	3001      	addeq	r0, #1
 8000278:	bcf0      	pop	{r4, r5, r6, r7}
 800027a:	3801      	subs	r0, #1
 800027c:	4770      	bx	lr
 800027e:	bf00      	nop

08000280 <__aeabi_uldivmod>:
 8000280:	b953      	cbnz	r3, 8000298 <__aeabi_uldivmod+0x18>
 8000282:	b94a      	cbnz	r2, 8000298 <__aeabi_uldivmod+0x18>
 8000284:	2900      	cmp	r1, #0
 8000286:	bf08      	it	eq
 8000288:	2800      	cmpeq	r0, #0
 800028a:	bf1c      	itt	ne
 800028c:	f04f 31ff 	movne.w	r1, #4294967295
 8000290:	f04f 30ff 	movne.w	r0, #4294967295
 8000294:	f000 b988 	b.w	80005a8 <__aeabi_idiv0>
 8000298:	f1ad 0c08 	sub.w	ip, sp, #8
 800029c:	e96d ce04 	strd	ip, lr, [sp, #-16]!
 80002a0:	f000 f806 	bl	80002b0 <__udivmoddi4>
 80002a4:	f8dd e004 	ldr.w	lr, [sp, #4]
 80002a8:	e9dd 2302 	ldrd	r2, r3, [sp, #8]
 80002ac:	b004      	add	sp, #16
 80002ae:	4770      	bx	lr

080002b0 <__udivmoddi4>:
 80002b0:	e92d 47f0 	stmdb	sp!, {r4, r5, r6, r7, r8, r9, sl, lr}
 80002b4:	9d08      	ldr	r5, [sp, #32]
 80002b6:	468e      	mov	lr, r1
 80002b8:	4604      	mov	r4, r0
 80002ba:	4688      	mov	r8, r1
 80002bc:	2b00      	cmp	r3, #0
 80002be:	d14a      	bne.n	8000356 <__udivmoddi4+0xa6>
 80002c0:	428a      	cmp	r2, r1
 80002c2:	4617      	mov	r7, r2
 80002c4:	d962      	bls.n	800038c <__udivmoddi4+0xdc>
 80002c6:	fab2 f682 	clz	r6, r2
 80002ca:	b14e      	cbz	r6, 80002e0 <__udivmoddi4+0x30>
 80002cc:	f1c6 0320 	rsb	r3, r6, #32
 80002d0:	fa01 f806 	lsl.w	r8, r1, r6
 80002d4:	fa20 f303 	lsr.w	r3, r0, r3
 80002d8:	40b7      	lsls	r7, r6
 80002da:	ea43 0808 	orr.w	r8, r3, r8
 80002de:	40b4      	lsls	r4, r6
 80002e0:	ea4f 4e17 	mov.w	lr, r7, lsr #16
 80002e4:	fa1f fc87 	uxth.w	ip, r7
 80002e8:	fbb8 f1fe 	udiv	r1, r8, lr
 80002ec:	0c23      	lsrs	r3, r4, #16
 80002ee:	fb0e 8811 	mls	r8, lr, r1, r8
 80002f2:	ea43 4308 	orr.w	r3, r3, r8, lsl #16
 80002f6:	fb01 f20c 	mul.w	r2, r1, ip
 80002fa:	429a      	cmp	r2, r3
 80002fc:	d909      	bls.n	8000312 <__udivmoddi4+0x62>
 80002fe:	18fb      	adds	r3, r7, r3
 8000300:	f101 30ff 	add.w	r0, r1, #4294967295
 8000304:	f080 80ea 	bcs.w	80004dc <__udivmoddi4+0x22c>
 8000308:	429a      	cmp	r2, r3
 800030a:	f240 80e7 	bls.w	80004dc <__udivmoddi4+0x22c>
 800030e:	3902      	subs	r1, #2
 8000310:	443b      	add	r3, r7
 8000312:	1a9a      	subs	r2, r3, r2
 8000314:	b2a3      	uxth	r3, r4
 8000316:	fbb2 f0fe 	udiv	r0, r2, lr
 800031a:	fb0e 2210 	mls	r2, lr, r0, r2
 800031e:	ea43 4302 	orr.w	r3, r3, r2, lsl #16
 8000322:	fb00 fc0c 	mul.w	ip, r0, ip
 8000326:	459c      	cmp	ip, r3
 8000328:	d909      	bls.n	800033e <__udivmoddi4+0x8e>
 800032a:	18fb      	adds	r3, r7, r3
 800032c:	f100 32ff 	add.w	r2, r0, #4294967295
 8000330:	f080 80d6 	bcs.w	80004e0 <__udivmoddi4+0x230>
 8000334:	459c      	cmp	ip, r3
 8000336:	f240 80d3 	bls.w	80004e0 <__udivmoddi4+0x230>
 800033a:	443b      	add	r3, r7
 800033c:	3802      	subs	r0, #2
 800033e:	ea40 4001 	orr.w	r0, r0, r1, lsl #16
 8000342:	eba3 030c 	sub.w	r3, r3, ip
 8000346:	2100      	movs	r1, #0
 8000348:	b11d      	cbz	r5, 8000352 <__udivmoddi4+0xa2>
 800034a:	40f3      	lsrs	r3, r6
 800034c:	2200      	movs	r2, #0
 800034e:	e9c5 3200 	strd	r3, r2, [r5]
 8000352:	e8bd 87f0 	ldmia.w	sp!, {r4, r5, r6, r7, r8, r9, sl, pc}
 8000356:	428b      	cmp	r3, r1
 8000358:	d905      	bls.n	8000366 <__udivmoddi4+0xb6>
 800035a:	b10d      	cbz	r5, 8000360 <__udivmoddi4+0xb0>
 800035c:	e9c5 0100 	strd	r0, r1, [r5]
 8000360:	2100      	movs	r1, #0
 8000362:	4608      	mov	r0, r1
 8000364:	e7f5      	b.n	8000352 <__udivmoddi4+0xa2>
 8000366:	fab3 f183 	clz	r1, r3
 800036a:	2900      	cmp	r1, #0
 800036c:	d146      	bne.n	80003fc <__udivmoddi4+0x14c>
 800036e:	4573      	cmp	r3, lr
 8000370:	d302      	bcc.n	8000378 <__udivmoddi4+0xc8>
 8000372:	4282      	cmp	r2, r0
 8000374:	f200 8105 	bhi.w	8000582 <__udivmoddi4+0x2d2>
 8000378:	1a84      	subs	r4, r0, r2
 800037a:	eb6e 0203 	sbc.w	r2, lr, r3
 800037e:	2001      	movs	r0, #1
 8000380:	4690      	mov	r8, r2
 8000382:	2d00      	cmp	r5, #0
 8000384:	d0e5      	beq.n	8000352 <__udivmoddi4+0xa2>
 8000386:	e9c5 4800 	strd	r4, r8, [r5]
 800038a:	e7e2      	b.n	8000352 <__udivmoddi4+0xa2>
 800038c:	2a00      	cmp	r2, #0
 800038e:	f000 8090 	beq.w	80004b2 <__udivmoddi4+0x202>
 8000392:	fab2 f682 	clz	r6, r2
 8000396:	2e00      	cmp	r6, #0
 8000398:	f040 80a4 	bne.w	80004e4 <__udivmoddi4+0x234>
 800039c:	1a8a      	subs	r2, r1, r2
 800039e:	0c03      	lsrs	r3, r0, #16
 80003a0:	ea4f 4e17 	mov.w	lr, r7, lsr #16
 80003a4:	b280      	uxth	r0, r0
 80003a6:	b2bc      	uxth	r4, r7
 80003a8:	2101      	movs	r1, #1
 80003aa:	fbb2 fcfe 	udiv	ip, r2, lr
 80003ae:	fb0e 221c 	mls	r2, lr, ip, r2
 80003b2:	ea43 4302 	orr.w	r3, r3, r2, lsl #16
 80003b6:	fb04 f20c 	mul.w	r2, r4, ip
 80003ba:	429a      	cmp	r2, r3
 80003bc:	d907      	bls.n	80003ce <__udivmoddi4+0x11e>
 80003be:	18fb      	adds	r3, r7, r3
 80003c0:	f10c 38ff 	add.w	r8, ip, #4294967295
 80003c4:	d202      	bcs.n	80003cc <__udivmoddi4+0x11c>
 80003c6:	429a      	cmp	r2, r3
 80003c8:	f200 80e0 	bhi.w	800058c <__udivmoddi4+0x2dc>
 80003cc:	46c4      	mov	ip, r8
 80003ce:	1a9b      	subs	r3, r3, r2
 80003d0:	fbb3 f2fe 	udiv	r2, r3, lr
 80003d4:	fb0e 3312 	mls	r3, lr, r2, r3
 80003d8:	ea40 4303 	orr.w	r3, r0, r3, lsl #16
 80003dc:	fb02 f404 	mul.w	r4, r2, r4
 80003e0:	429c      	cmp	r4, r3
 80003e2:	d907      	bls.n	80003f4 <__udivmoddi4+0x144>
 80003e4:	18fb      	adds	r3, r7, r3
 80003e6:	f102 30ff 	add.w	r0, r2, #4294967295
 80003ea:	d202      	bcs.n	80003f2 <__udivmoddi4+0x142>
 80003ec:	429c      	cmp	r4, r3
 80003ee:	f200 80ca 	bhi.w	8000586 <__udivmoddi4+0x2d6>
 80003f2:	4602      	mov	r2, r0
 80003f4:	1b1b      	subs	r3, r3, r4
 80003f6:	ea42 400c 	orr.w	r0, r2, ip, lsl #16
 80003fa:	e7a5      	b.n	8000348 <__udivmoddi4+0x98>
 80003fc:	f1c1 0620 	rsb	r6, r1, #32
 8000400:	408b      	lsls	r3, r1
 8000402:	fa22 f706 	lsr.w	r7, r2, r6
 8000406:	431f      	orrs	r7, r3
 8000408:	fa0e f401 	lsl.w	r4, lr, r1
 800040c:	fa20 f306 	lsr.w	r3, r0, r6
 8000410:	fa2e fe06 	lsr.w	lr, lr, r6
 8000414:	ea4f 4917 	mov.w	r9, r7, lsr #16
 8000418:	4323      	orrs	r3, r4
 800041a:	fa00 f801 	lsl.w	r8, r0, r1
 800041e:	fa1f fc87 	uxth.w	ip, r7
 8000422:	fbbe f0f9 	udiv	r0, lr, r9
 8000426:	0c1c      	lsrs	r4, r3, #16
 8000428:	fb09 ee10 	mls	lr, r9, r0, lr
 800042c:	ea44 440e 	orr.w	r4, r4, lr, lsl #16
 8000430:	fb00 fe0c 	mul.w	lr, r0, ip
 8000434:	45a6      	cmp	lr, r4
 8000436:	fa02 f201 	lsl.w	r2, r2, r1
 800043a:	d909      	bls.n	8000450 <__udivmoddi4+0x1a0>
 800043c:	193c      	adds	r4, r7, r4
 800043e:	f100 3aff 	add.w	sl, r0, #4294967295
 8000442:	f080 809c 	bcs.w	800057e <__udivmoddi4+0x2ce>
 8000446:	45a6      	cmp	lr, r4
 8000448:	f240 8099 	bls.w	800057e <__udivmoddi4+0x2ce>
 800044c:	3802      	subs	r0, #2
 800044e:	443c      	add	r4, r7
 8000450:	eba4 040e 	sub.w	r4, r4, lr
 8000454:	fa1f fe83 	uxth.w	lr, r3
 8000458:	fbb4 f3f9 	udiv	r3, r4, r9
 800045c:	fb09 4413 	mls	r4, r9, r3, r4
 8000460:	ea4e 4404 	orr.w	r4, lr, r4, lsl #16
 8000464:	fb03 fc0c 	mul.w	ip, r3, ip
 8000468:	45a4      	cmp	ip, r4
 800046a:	d908      	bls.n	800047e <__udivmoddi4+0x1ce>
 800046c:	193c      	adds	r4, r7, r4
 800046e:	f103 3eff 	add.w	lr, r3, #4294967295
 8000472:	f080 8082 	bcs.w	800057a <__udivmoddi4+0x2ca>
 8000476:	45a4      	cmp	ip, r4
 8000478:	d97f      	bls.n	800057a <__udivmoddi4+0x2ca>
 800047a:	3b02      	subs	r3, #2
 800047c:	443c      	add	r4, r7
 800047e:	ea43 4000 	orr.w	r0, r3, r0, lsl #16
 8000482:	eba4 040c 	sub.w	r4, r4, ip
 8000486:	fba0 ec02 	umull	lr, ip, r0, r2
 800048a:	4564      	cmp	r4, ip
 800048c:	4673      	mov	r3, lr
 800048e:	46e1      	mov	r9, ip
 8000490:	d362      	bcc.n	8000558 <__udivmoddi4+0x2a8>
 8000492:	d05f      	beq.n	8000554 <__udivmoddi4+0x2a4>
 8000494:	b15d      	cbz	r5, 80004ae <__udivmoddi4+0x1fe>
 8000496:	ebb8 0203 	subs.w	r2, r8, r3
 800049a:	eb64 0409 	sbc.w	r4, r4, r9
 800049e:	fa04 f606 	lsl.w	r6, r4, r6
 80004a2:	fa22 f301 	lsr.w	r3, r2, r1
 80004a6:	431e      	orrs	r6, r3
 80004a8:	40cc      	lsrs	r4, r1
 80004aa:	e9c5 6400 	strd	r6, r4, [r5]
 80004ae:	2100      	movs	r1, #0
 80004b0:	e74f      	b.n	8000352 <__udivmoddi4+0xa2>
 80004b2:	fbb1 fcf2 	udiv	ip, r1, r2
 80004b6:	0c01      	lsrs	r1, r0, #16
 80004b8:	ea41 410e 	orr.w	r1, r1, lr, lsl #16
 80004bc:	b280      	uxth	r0, r0
 80004be:	ea40 4201 	orr.w	r2, r0, r1, lsl #16
 80004c2:	463b      	mov	r3, r7
 80004c4:	4638      	mov	r0, r7
 80004c6:	463c      	mov	r4, r7
 80004c8:	46b8      	mov	r8, r7
 80004ca:	46be      	mov	lr, r7
 80004cc:	2620      	movs	r6, #32
 80004ce:	fbb1 f1f7 	udiv	r1, r1, r7
 80004d2:	eba2 0208 	sub.w	r2, r2, r8
 80004d6:	ea41 410c 	orr.w	r1, r1, ip, lsl #16
 80004da:	e766      	b.n	80003aa <__udivmoddi4+0xfa>
 80004dc:	4601      	mov	r1, r0
 80004de:	e718      	b.n	8000312 <__udivmoddi4+0x62>
 80004e0:	4610      	mov	r0, r2
 80004e2:	e72c      	b.n	800033e <__udivmoddi4+0x8e>
 80004e4:	f1c6 0220 	rsb	r2, r6, #32
 80004e8:	fa2e f302 	lsr.w	r3, lr, r2
 80004ec:	40b7      	lsls	r7, r6
 80004ee:	40b1      	lsls	r1, r6
 80004f0:	fa20 f202 	lsr.w	r2, r0, r2
 80004f4:	ea4f 4e17 	mov.w	lr, r7, lsr #16
 80004f8:	430a      	orrs	r2, r1
 80004fa:	fbb3 f8fe 	udiv	r8, r3, lr
 80004fe:	b2bc      	uxth	r4, r7
 8000500:	fb0e 3318 	mls	r3, lr, r8, r3
 8000504:	0c11      	lsrs	r1, r2, #16
 8000506:	ea41 4103 	orr.w	r1, r1, r3, lsl #16
 800050a:	fb08 f904 	mul.w	r9, r8, r4
 800050e:	40b0      	lsls	r0, r6
 8000510:	4589      	cmp	r9, r1
 8000512:	ea4f 4310 	mov.w	r3, r0, lsr #16
 8000516:	b280      	uxth	r0, r0
 8000518:	d93e      	bls.n	8000598 <__udivmoddi4+0x2e8>
 800051a:	1879      	adds	r1, r7, r1
 800051c:	f108 3cff 	add.w	ip, r8, #4294967295
 8000520:	d201      	bcs.n	8000526 <__udivmoddi4+0x276>
 8000522:	4589      	cmp	r9, r1
 8000524:	d81f      	bhi.n	8000566 <__udivmoddi4+0x2b6>
 8000526:	eba1 0109 	sub.w	r1, r1, r9
 800052a:	fbb1 f9fe 	udiv	r9, r1, lr
 800052e:	fb09 f804 	mul.w	r8, r9, r4
 8000532:	fb0e 1119 	mls	r1, lr, r9, r1
 8000536:	b292      	uxth	r2, r2
 8000538:	ea42 4201 	orr.w	r2, r2, r1, lsl #16
 800053c:	4542      	cmp	r2, r8
 800053e:	d229      	bcs.n	8000594 <__udivmoddi4+0x2e4>
 8000540:	18ba      	adds	r2, r7, r2
 8000542:	f109 31ff 	add.w	r1, r9, #4294967295
 8000546:	d2c4      	bcs.n	80004d2 <__udivmoddi4+0x222>
 8000548:	4542      	cmp	r2, r8
 800054a:	d2c2      	bcs.n	80004d2 <__udivmoddi4+0x222>
 800054c:	f1a9 0102 	sub.w	r1, r9, #2
 8000550:	443a      	add	r2, r7
 8000552:	e7be      	b.n	80004d2 <__udivmoddi4+0x222>
 8000554:	45f0      	cmp	r8, lr
 8000556:	d29d      	bcs.n	8000494 <__udivmoddi4+0x1e4>
 8000558:	ebbe 0302 	subs.w	r3, lr, r2
 800055c:	eb6c 0c07 	sbc.w	ip, ip, r7
 8000560:	3801      	subs	r0, #1
 8000562:	46e1      	mov	r9, ip
 8000564:	e796      	b.n	8000494 <__udivmoddi4+0x1e4>
 8000566:	eba7 0909 	sub.w	r9, r7, r9
 800056a:	4449      	add	r1, r9
 800056c:	f1a8 0c02 	sub.w	ip, r8, #2
 8000570:	fbb1 f9fe 	udiv	r9, r1, lr
 8000574:	fb09 f804 	mul.w	r8, r9, r4
 8000578:	e7db      	b.n	8000532 <__udivmoddi4+0x282>
 800057a:	4673      	mov	r3, lr
 800057c:	e77f      	b.n	800047e <__udivmoddi4+0x1ce>
 800057e:	4650      	mov	r0, sl
 8000580:	e766      	b.n	8000450 <__udivmoddi4+0x1a0>
 8000582:	4608      	mov	r0, r1
 8000584:	e6fd      	b.n	8000382 <__udivmoddi4+0xd2>
 8000586:	443b      	add	r3, r7
 8000588:	3a02      	subs	r2, #2
 800058a:	e733      	b.n	80003f4 <__udivmoddi4+0x144>
 800058c:	f1ac 0c02 	sub.w	ip, ip, #2
 8000590:	443b      	add	r3, r7
 8000592:	e71c      	b.n	80003ce <__udivmoddi4+0x11e>
 8000594:	4649      	mov	r1, r9
 8000596:	e79c      	b.n	80004d2 <__udivmoddi4+0x222>
 8000598:	eba1 0109 	sub.w	r1, r1, r9
 800059c:	46c4      	mov	ip, r8
 800059e:	fbb1 f9fe 	udiv	r9, r1, lr
 80005a2:	fb09 f804 	mul.w	r8, r9, r4
 80005a6:	e7c4      	b.n	8000532 <__udivmoddi4+0x282>

080005a8 <__aeabi_idiv0>:
 80005a8:	4770      	bx	lr
 80005aa:	bf00      	nop

080005ac <vApplicationGetIdleTaskMemory>:
/* USER CODE BEGIN GET_IDLE_TASK_MEMORY */
static StaticTask_t xIdleTaskTCBBuffer;
static StackType_t xIdleStack[configMINIMAL_STACK_SIZE];

void vApplicationGetIdleTaskMemory( StaticTask_t **ppxIdleTaskTCBBuffer, StackType_t **ppxIdleTaskStackBuffer, uint32_t *pulIdleTaskStackSize )
{
 80005ac:	b480      	push	{r7}
 80005ae:	b085      	sub	sp, #20
 80005b0:	af00      	add	r7, sp, #0
 80005b2:	60f8      	str	r0, [r7, #12]
 80005b4:	60b9      	str	r1, [r7, #8]
 80005b6:	607a      	str	r2, [r7, #4]
  *ppxIdleTaskTCBBuffer = &xIdleTaskTCBBuffer;
 80005b8:	68fb      	ldr	r3, [r7, #12]
 80005ba:	4a07      	ldr	r2, [pc, #28]	@ (80005d8 <vApplicationGetIdleTaskMemory+0x2c>)
 80005bc:	601a      	str	r2, [r3, #0]
  *ppxIdleTaskStackBuffer = &xIdleStack[0];
 80005be:	68bb      	ldr	r3, [r7, #8]
 80005c0:	4a06      	ldr	r2, [pc, #24]	@ (80005dc <vApplicationGetIdleTaskMemory+0x30>)
 80005c2:	601a      	str	r2, [r3, #0]
  *pulIdleTaskStackSize = configMINIMAL_STACK_SIZE;
 80005c4:	687b      	ldr	r3, [r7, #4]
 80005c6:	2280      	movs	r2, #128	@ 0x80
 80005c8:	601a      	str	r2, [r3, #0]
  /* place for user code */
}
 80005ca:	bf00      	nop
 80005cc:	3714      	adds	r7, #20
 80005ce:	46bd      	mov	sp, r7
 80005d0:	f85d 7b04 	ldr.w	r7, [sp], #4
 80005d4:	4770      	bx	lr
 80005d6:	bf00      	nop
 80005d8:	2000007c 	.word	0x2000007c
 80005dc:	200000d0 	.word	0x200000d0

080005e0 <vApplicationStackOverflowHook>:
// default task
void StartDefaultTask(void const * argument);

// hook called on stack overflow
void vApplicationStackOverflowHook(TaskHandle_t xTask, char *pcTaskName)
{
 80005e0:	b580      	push	{r7, lr}
 80005e2:	b09c      	sub	sp, #112	@ 0x70
 80005e4:	af00      	add	r7, sp, #0
 80005e6:	6078      	str	r0, [r7, #4]
 80005e8:	6039      	str	r1, [r7, #0]
    char msg[100]; // buffer for error message
    sprintf(msg, "STACK OVERFLOW in %s\r\n", pcTaskName); // format error
 80005ea:	f107 030c 	add.w	r3, r7, #12
 80005ee:	683a      	ldr	r2, [r7, #0]
 80005f0:	4910      	ldr	r1, [pc, #64]	@ (8000634 <vApplicationStackOverflowHook+0x54>)
 80005f2:	4618      	mov	r0, r3
 80005f4:	f004 f936 	bl	8004864 <siprintf>
    HAL_UART_Transmit(&huart2, (uint8_t*)msg, strlen(msg), HAL_MAX_DELAY); // send over UART
 80005f8:	f107 030c 	add.w	r3, r7, #12
 80005fc:	4618      	mov	r0, r3
 80005fe:	f7ff fde7 	bl	80001d0 <strlen>
 8000602:	4603      	mov	r3, r0
 8000604:	b29a      	uxth	r2, r3
 8000606:	f107 010c 	add.w	r1, r7, #12
 800060a:	f04f 33ff 	mov.w	r3, #4294967295
 800060e:	480a      	ldr	r0, [pc, #40]	@ (8000638 <vApplicationStackOverflowHook+0x58>)
 8000610:	f002 f93c 	bl	800288c <HAL_UART_Transmit>

    while(1)
    {
        HAL_GPIO_TogglePin(GPIOA, GPIO_PIN_5); // blink LED
 8000614:	2120      	movs	r1, #32
 8000616:	f04f 4090 	mov.w	r0, #1207959552	@ 0x48000000
 800061a:	f000 fdaf 	bl	800117c <HAL_GPIO_TogglePin>
        for (volatile uint32_t i = 0; i < 500000; i++); // software delay
 800061e:	2300      	movs	r3, #0
 8000620:	60bb      	str	r3, [r7, #8]
 8000622:	e002      	b.n	800062a <vApplicationStackOverflowHook+0x4a>
 8000624:	68bb      	ldr	r3, [r7, #8]
 8000626:	3301      	adds	r3, #1
 8000628:	60bb      	str	r3, [r7, #8]
 800062a:	68bb      	ldr	r3, [r7, #8]
 800062c:	4a03      	ldr	r2, [pc, #12]	@ (800063c <vApplicationStackOverflowHook+0x5c>)
 800062e:	4293      	cmp	r3, r2
 8000630:	d9f8      	bls.n	8000624 <vApplicationStackOverflowHook+0x44>
        HAL_GPIO_TogglePin(GPIOA, GPIO_PIN_5); // blink LED
 8000632:	e7ef      	b.n	8000614 <vApplicationStackOverflowHook+0x34>
 8000634:	080051bc 	.word	0x080051bc
 8000638:	200002d0 	.word	0x200002d0
 800063c:	0007a11f 	.word	0x0007a11f

08000640 <StackTestTask>:
    }
}

// task to deliberately use too much stack
void StackTestTask(void *argument)
{
 8000640:	b580      	push	{r7, lr}
 8000642:	f5ad 7d4c 	sub.w	sp, sp, #816	@ 0x330
 8000646:	af00      	add	r7, sp, #0
 8000648:	f507 734c 	add.w	r3, r7, #816	@ 0x330
 800064c:	f5a3 734b 	sub.w	r3, r3, #812	@ 0x32c
 8000650:	6018      	str	r0, [r3, #0]
    volatile uint32_t bigArray[200]; // large array to fill stack

    for(;;) // infinite loop
    {
        for(uint32_t i = 0; i < 200; i++) // fill array
 8000652:	2300      	movs	r3, #0
 8000654:	f8c7 332c 	str.w	r3, [r7, #812]	@ 0x32c
 8000658:	e010      	b.n	800067c <StackTestTask+0x3c>
        {
            bigArray[i] = i + 10;
 800065a:	f8d7 332c 	ldr.w	r3, [r7, #812]	@ 0x32c
 800065e:	f103 010a 	add.w	r1, r3, #10
 8000662:	f507 734c 	add.w	r3, r7, #816	@ 0x330
 8000666:	f5a3 7349 	sub.w	r3, r3, #804	@ 0x324
 800066a:	f8d7 232c 	ldr.w	r2, [r7, #812]	@ 0x32c
 800066e:	f843 1022 	str.w	r1, [r3, r2, lsl #2]
        for(uint32_t i = 0; i < 200; i++) // fill array
 8000672:	f8d7 332c 	ldr.w	r3, [r7, #812]	@ 0x32c
 8000676:	3301      	adds	r3, #1
 8000678:	f8c7 332c 	str.w	r3, [r7, #812]	@ 0x32c
 800067c:	f8d7 332c 	ldr.w	r3, [r7, #812]	@ 0x32c
 8000680:	2bc7      	cmp	r3, #199	@ 0xc7
 8000682:	d9ea      	bls.n	800065a <StackTestTask+0x1a>
        }
        osDelay(1); // yield to scheduler
 8000684:	2001      	movs	r0, #1
 8000686:	f002 fec9 	bl	800341c <osDelay>
        for(uint32_t i = 0; i < 200; i++) // fill array
 800068a:	e7e2      	b.n	8000652 <StackTestTask+0x12>

0800068c <main>:
    }
}

int main(void)
{
 800068c:	b5b0      	push	{r4, r5, r7, lr}
 800068e:	b08a      	sub	sp, #40	@ 0x28
 8000690:	af02      	add	r7, sp, #8
    HAL_Init();             // initialize HAL
 8000692:	f000 fa4f 	bl	8000b34 <HAL_Init>
    SystemClock_Config();   // configure system clock
 8000696:	f000 f839 	bl	800070c <SystemClock_Config>
    MX_GPIO_Init();         // initialize GPIO
 800069a:	f000 f8b9 	bl	8000810 <MX_GPIO_Init>
    MX_USART2_UART_Init();  // initialize UART2
 800069e:	f000 f887 	bl	80007b0 <MX_USART2_UART_Init>

    // create CMSIS default task
    osThreadDef(defaultTask, StartDefaultTask, osPriorityNormal, 0, 128);
 80006a2:	4b14      	ldr	r3, [pc, #80]	@ (80006f4 <main+0x68>)
 80006a4:	1d3c      	adds	r4, r7, #4
 80006a6:	461d      	mov	r5, r3
 80006a8:	cd0f      	ldmia	r5!, {r0, r1, r2, r3}
 80006aa:	c40f      	stmia	r4!, {r0, r1, r2, r3}
 80006ac:	e895 0007 	ldmia.w	r5, {r0, r1, r2}
 80006b0:	e884 0007 	stmia.w	r4, {r0, r1, r2}
    defaultTaskHandle = osThreadCreate(osThread(defaultTask), NULL);
 80006b4:	1d3b      	adds	r3, r7, #4
 80006b6:	2100      	movs	r1, #0
 80006b8:	4618      	mov	r0, r3
 80006ba:	f002 fe63 	bl	8003384 <osThreadCreate>
 80006be:	4603      	mov	r3, r0
 80006c0:	4a0d      	ldr	r2, [pc, #52]	@ (80006f8 <main+0x6c>)
 80006c2:	6013      	str	r3, [r2, #0]

    // create stack test task with small stack (to force overflow)
    if(xTaskCreate(StackTestTask, "Stack_Task", 100, NULL, 1, NULL) != pdPASS)
 80006c4:	2300      	movs	r3, #0
 80006c6:	9301      	str	r3, [sp, #4]
 80006c8:	2301      	movs	r3, #1
 80006ca:	9300      	str	r3, [sp, #0]
 80006cc:	2300      	movs	r3, #0
 80006ce:	2264      	movs	r2, #100	@ 0x64
 80006d0:	490a      	ldr	r1, [pc, #40]	@ (80006fc <main+0x70>)
 80006d2:	480b      	ldr	r0, [pc, #44]	@ (8000700 <main+0x74>)
 80006d4:	f002 ffca 	bl	800366c <xTaskCreate>
 80006d8:	4603      	mov	r3, r0
 80006da:	2b01      	cmp	r3, #1
 80006dc:	d006      	beq.n	80006ec <main+0x60>
    {
        HAL_UART_Transmit(&huart2, (uint8_t*)"FAIL\r\n", 6, 1000); // print error if task fails
 80006de:	f44f 737a 	mov.w	r3, #1000	@ 0x3e8
 80006e2:	2206      	movs	r2, #6
 80006e4:	4907      	ldr	r1, [pc, #28]	@ (8000704 <main+0x78>)
 80006e6:	4808      	ldr	r0, [pc, #32]	@ (8000708 <main+0x7c>)
 80006e8:	f002 f8d0 	bl	800288c <HAL_UART_Transmit>
    }

    osKernelStart(); // start FreeRTOS scheduler
 80006ec:	f002 fe43 	bl	8003376 <osKernelStart>

    while (1)
 80006f0:	bf00      	nop
 80006f2:	e7fd      	b.n	80006f0 <main+0x64>
 80006f4:	080051f4 	.word	0x080051f4
 80006f8:	20000358 	.word	0x20000358
 80006fc:	080051d4 	.word	0x080051d4
 8000700:	08000641 	.word	0x08000641
 8000704:	080051e0 	.word	0x080051e0
 8000708:	200002d0 	.word	0x200002d0

0800070c <SystemClock_Config>:
    }    // should never reach here
}

// configure system clock
void SystemClock_Config(void)
{
 800070c:	b580      	push	{r7, lr}
 800070e:	b096      	sub	sp, #88	@ 0x58
 8000710:	af00      	add	r7, sp, #0
    RCC_OscInitTypeDef RCC_OscInitStruct = {0}; // oscillator config struct
 8000712:	f107 0314 	add.w	r3, r7, #20
 8000716:	2244      	movs	r2, #68	@ 0x44
 8000718:	2100      	movs	r1, #0
 800071a:	4618      	mov	r0, r3
 800071c:	f004 f8c4 	bl	80048a8 <memset>
    RCC_ClkInitTypeDef RCC_ClkInitStruct = {0}; // clock config struct
 8000720:	463b      	mov	r3, r7
 8000722:	2200      	movs	r2, #0
 8000724:	601a      	str	r2, [r3, #0]
 8000726:	605a      	str	r2, [r3, #4]
 8000728:	609a      	str	r2, [r3, #8]
 800072a:	60da      	str	r2, [r3, #12]
 800072c:	611a      	str	r2, [r3, #16]

    if (HAL_PWREx_ControlVoltageScaling(PWR_REGULATOR_VOLTAGE_SCALE1) != HAL_OK)
 800072e:	f44f 7000 	mov.w	r0, #512	@ 0x200
 8000732:	f000 fd4b 	bl	80011cc <HAL_PWREx_ControlVoltageScaling>
 8000736:	4603      	mov	r3, r0
 8000738:	2b00      	cmp	r3, #0
 800073a:	d001      	beq.n	8000740 <SystemClock_Config+0x34>
        Error_Handler();
 800073c:	f000 f8d6 	bl	80008ec <Error_Handler>

    // setup oscillator
    RCC_OscInitStruct.OscillatorType = RCC_OSCILLATORTYPE_HSI;
 8000740:	2302      	movs	r3, #2
 8000742:	617b      	str	r3, [r7, #20]
    RCC_OscInitStruct.HSIState = RCC_HSI_ON;
 8000744:	f44f 7380 	mov.w	r3, #256	@ 0x100
 8000748:	623b      	str	r3, [r7, #32]
    RCC_OscInitStruct.HSICalibrationValue = RCC_HSICALIBRATION_DEFAULT;
 800074a:	2310      	movs	r3, #16
 800074c:	627b      	str	r3, [r7, #36]	@ 0x24
    RCC_OscInitStruct.PLL.PLLState = RCC_PLL_ON;
 800074e:	2302      	movs	r3, #2
 8000750:	63fb      	str	r3, [r7, #60]	@ 0x3c
    RCC_OscInitStruct.PLL.PLLSource = RCC_PLLSOURCE_HSI;
 8000752:	2302      	movs	r3, #2
 8000754:	643b      	str	r3, [r7, #64]	@ 0x40
    RCC_OscInitStruct.PLL.PLLM = 1;
 8000756:	2301      	movs	r3, #1
 8000758:	647b      	str	r3, [r7, #68]	@ 0x44
    RCC_OscInitStruct.PLL.PLLN = 10;
 800075a:	230a      	movs	r3, #10
 800075c:	64bb      	str	r3, [r7, #72]	@ 0x48
    RCC_OscInitStruct.PLL.PLLP = RCC_PLLP_DIV7;
 800075e:	2307      	movs	r3, #7
 8000760:	64fb      	str	r3, [r7, #76]	@ 0x4c
    RCC_OscInitStruct.PLL.PLLQ = RCC_PLLQ_DIV2;
 8000762:	2302      	movs	r3, #2
 8000764:	653b      	str	r3, [r7, #80]	@ 0x50
    RCC_OscInitStruct.PLL.PLLR = RCC_PLLR_DIV2;
 8000766:	2302      	movs	r3, #2
 8000768:	657b      	str	r3, [r7, #84]	@ 0x54
    if (HAL_RCC_OscConfig(&RCC_OscInitStruct) != HAL_OK)
 800076a:	f107 0314 	add.w	r3, r7, #20
 800076e:	4618      	mov	r0, r3
 8000770:	f000 fd82 	bl	8001278 <HAL_RCC_OscConfig>
 8000774:	4603      	mov	r3, r0
 8000776:	2b00      	cmp	r3, #0
 8000778:	d001      	beq.n	800077e <SystemClock_Config+0x72>
        Error_Handler();
 800077a:	f000 f8b7 	bl	80008ec <Error_Handler>

    // setup clocks
    RCC_ClkInitStruct.ClockType = RCC_CLOCKTYPE_HCLK | RCC_CLOCKTYPE_SYSCLK
 800077e:	230f      	movs	r3, #15
 8000780:	603b      	str	r3, [r7, #0]
                                | RCC_CLOCKTYPE_PCLK1 | RCC_CLOCKTYPE_PCLK2;
    RCC_ClkInitStruct.SYSCLKSource = RCC_SYSCLKSOURCE_PLLCLK;
 8000782:	2303      	movs	r3, #3
 8000784:	607b      	str	r3, [r7, #4]
    RCC_ClkInitStruct.AHBCLKDivider = RCC_SYSCLK_DIV1;
 8000786:	2300      	movs	r3, #0
 8000788:	60bb      	str	r3, [r7, #8]
    RCC_ClkInitStruct.APB1CLKDivider = RCC_HCLK_DIV1;
 800078a:	2300      	movs	r3, #0
 800078c:	60fb      	str	r3, [r7, #12]
    RCC_ClkInitStruct.APB2CLKDivider = RCC_HCLK_DIV1;
 800078e:	2300      	movs	r3, #0
 8000790:	613b      	str	r3, [r7, #16]

    if (HAL_RCC_ClockConfig(&RCC_ClkInitStruct, FLASH_LATENCY_4) != HAL_OK)
 8000792:	463b      	mov	r3, r7
 8000794:	2104      	movs	r1, #4
 8000796:	4618      	mov	r0, r3
 8000798:	f001 f94a 	bl	8001a30 <HAL_RCC_ClockConfig>
 800079c:	4603      	mov	r3, r0
 800079e:	2b00      	cmp	r3, #0
 80007a0:	d001      	beq.n	80007a6 <SystemClock_Config+0x9a>
        Error_Handler();
 80007a2:	f000 f8a3 	bl	80008ec <Error_Handler>
}
 80007a6:	bf00      	nop
 80007a8:	3758      	adds	r7, #88	@ 0x58
 80007aa:	46bd      	mov	sp, r7
 80007ac:	bd80      	pop	{r7, pc}
	...

080007b0 <MX_USART2_UART_Init>:

// initialize UART2
static void MX_USART2_UART_Init(void)
{
 80007b0:	b580      	push	{r7, lr}
 80007b2:	af00      	add	r7, sp, #0
    huart2.Instance = USART2;
 80007b4:	4b14      	ldr	r3, [pc, #80]	@ (8000808 <MX_USART2_UART_Init+0x58>)
 80007b6:	4a15      	ldr	r2, [pc, #84]	@ (800080c <MX_USART2_UART_Init+0x5c>)
 80007b8:	601a      	str	r2, [r3, #0]
    huart2.Init.BaudRate = 115200;
 80007ba:	4b13      	ldr	r3, [pc, #76]	@ (8000808 <MX_USART2_UART_Init+0x58>)
 80007bc:	f44f 32e1 	mov.w	r2, #115200	@ 0x1c200
 80007c0:	605a      	str	r2, [r3, #4]
    huart2.Init.WordLength = UART_WORDLENGTH_8B;
 80007c2:	4b11      	ldr	r3, [pc, #68]	@ (8000808 <MX_USART2_UART_Init+0x58>)
 80007c4:	2200      	movs	r2, #0
 80007c6:	609a      	str	r2, [r3, #8]
    huart2.Init.StopBits = UART_STOPBITS_1;
 80007c8:	4b0f      	ldr	r3, [pc, #60]	@ (8000808 <MX_USART2_UART_Init+0x58>)
 80007ca:	2200      	movs	r2, #0
 80007cc:	60da      	str	r2, [r3, #12]
    huart2.Init.Parity = UART_PARITY_NONE;
 80007ce:	4b0e      	ldr	r3, [pc, #56]	@ (8000808 <MX_USART2_UART_Init+0x58>)
 80007d0:	2200      	movs	r2, #0
 80007d2:	611a      	str	r2, [r3, #16]
    huart2.Init.Mode = UART_MODE_TX_RX;
 80007d4:	4b0c      	ldr	r3, [pc, #48]	@ (8000808 <MX_USART2_UART_Init+0x58>)
 80007d6:	220c      	movs	r2, #12
 80007d8:	615a      	str	r2, [r3, #20]
    huart2.Init.HwFlowCtl = UART_HWCONTROL_NONE;
 80007da:	4b0b      	ldr	r3, [pc, #44]	@ (8000808 <MX_USART2_UART_Init+0x58>)
 80007dc:	2200      	movs	r2, #0
 80007de:	619a      	str	r2, [r3, #24]
    huart2.Init.OverSampling = UART_OVERSAMPLING_16;
 80007e0:	4b09      	ldr	r3, [pc, #36]	@ (8000808 <MX_USART2_UART_Init+0x58>)
 80007e2:	2200      	movs	r2, #0
 80007e4:	61da      	str	r2, [r3, #28]
    huart2.Init.OneBitSampling = UART_ONE_BIT_SAMPLE_DISABLE;
 80007e6:	4b08      	ldr	r3, [pc, #32]	@ (8000808 <MX_USART2_UART_Init+0x58>)
 80007e8:	2200      	movs	r2, #0
 80007ea:	621a      	str	r2, [r3, #32]
    huart2.AdvancedInit.AdvFeatureInit = UART_ADVFEATURE_NO_INIT;
 80007ec:	4b06      	ldr	r3, [pc, #24]	@ (8000808 <MX_USART2_UART_Init+0x58>)
 80007ee:	2200      	movs	r2, #0
 80007f0:	625a      	str	r2, [r3, #36]	@ 0x24
    if (HAL_UART_Init(&huart2) != HAL_OK)
 80007f2:	4805      	ldr	r0, [pc, #20]	@ (8000808 <MX_USART2_UART_Init+0x58>)
 80007f4:	f001 fffc 	bl	80027f0 <HAL_UART_Init>
 80007f8:	4603      	mov	r3, r0
 80007fa:	2b00      	cmp	r3, #0
 80007fc:	d001      	beq.n	8000802 <MX_USART2_UART_Init+0x52>
        Error_Handler();
 80007fe:	f000 f875 	bl	80008ec <Error_Handler>
}
 8000802:	bf00      	nop
 8000804:	bd80      	pop	{r7, pc}
 8000806:	bf00      	nop
 8000808:	200002d0 	.word	0x200002d0
 800080c:	40004400 	.word	0x40004400

08000810 <MX_GPIO_Init>:

// initialize GPIO
static void MX_GPIO_Init(void)
{
 8000810:	b580      	push	{r7, lr}
 8000812:	b08a      	sub	sp, #40	@ 0x28
 8000814:	af00      	add	r7, sp, #0
    GPIO_InitTypeDef GPIO_InitStruct = {0};
 8000816:	f107 0314 	add.w	r3, r7, #20
 800081a:	2200      	movs	r2, #0
 800081c:	601a      	str	r2, [r3, #0]
 800081e:	605a      	str	r2, [r3, #4]
 8000820:	609a      	str	r2, [r3, #8]
 8000822:	60da      	str	r2, [r3, #12]
 8000824:	611a      	str	r2, [r3, #16]

    __HAL_RCC_GPIOC_CLK_ENABLE(); // enable port C clock
 8000826:	4b2b      	ldr	r3, [pc, #172]	@ (80008d4 <MX_GPIO_Init+0xc4>)
 8000828:	6cdb      	ldr	r3, [r3, #76]	@ 0x4c
 800082a:	4a2a      	ldr	r2, [pc, #168]	@ (80008d4 <MX_GPIO_Init+0xc4>)
 800082c:	f043 0304 	orr.w	r3, r3, #4
 8000830:	64d3      	str	r3, [r2, #76]	@ 0x4c
 8000832:	4b28      	ldr	r3, [pc, #160]	@ (80008d4 <MX_GPIO_Init+0xc4>)
 8000834:	6cdb      	ldr	r3, [r3, #76]	@ 0x4c
 8000836:	f003 0304 	and.w	r3, r3, #4
 800083a:	613b      	str	r3, [r7, #16]
 800083c:	693b      	ldr	r3, [r7, #16]
    __HAL_RCC_GPIOH_CLK_ENABLE(); // enable port H clock
 800083e:	4b25      	ldr	r3, [pc, #148]	@ (80008d4 <MX_GPIO_Init+0xc4>)
 8000840:	6cdb      	ldr	r3, [r3, #76]	@ 0x4c
 8000842:	4a24      	ldr	r2, [pc, #144]	@ (80008d4 <MX_GPIO_Init+0xc4>)
 8000844:	f043 0380 	orr.w	r3, r3, #128	@ 0x80
 8000848:	64d3      	str	r3, [r2, #76]	@ 0x4c
 800084a:	4b22      	ldr	r3, [pc, #136]	@ (80008d4 <MX_GPIO_Init+0xc4>)
 800084c:	6cdb      	ldr	r3, [r3, #76]	@ 0x4c
 800084e:	f003 0380 	and.w	r3, r3, #128	@ 0x80
 8000852:	60fb      	str	r3, [r7, #12]
 8000854:	68fb      	ldr	r3, [r7, #12]
    __HAL_RCC_GPIOA_CLK_ENABLE(); // enable port A clock
 8000856:	4b1f      	ldr	r3, [pc, #124]	@ (80008d4 <MX_GPIO_Init+0xc4>)
 8000858:	6cdb      	ldr	r3, [r3, #76]	@ 0x4c
 800085a:	4a1e      	ldr	r2, [pc, #120]	@ (80008d4 <MX_GPIO_Init+0xc4>)
 800085c:	f043 0301 	orr.w	r3, r3, #1
 8000860:	64d3      	str	r3, [r2, #76]	@ 0x4c
 8000862:	4b1c      	ldr	r3, [pc, #112]	@ (80008d4 <MX_GPIO_Init+0xc4>)
 8000864:	6cdb      	ldr	r3, [r3, #76]	@ 0x4c
 8000866:	f003 0301 	and.w	r3, r3, #1
 800086a:	60bb      	str	r3, [r7, #8]
 800086c:	68bb      	ldr	r3, [r7, #8]
    __HAL_RCC_GPIOB_CLK_ENABLE(); // enable port B clock
 800086e:	4b19      	ldr	r3, [pc, #100]	@ (80008d4 <MX_GPIO_Init+0xc4>)
 8000870:	6cdb      	ldr	r3, [r3, #76]	@ 0x4c
 8000872:	4a18      	ldr	r2, [pc, #96]	@ (80008d4 <MX_GPIO_Init+0xc4>)
 8000874:	f043 0302 	orr.w	r3, r3, #2
 8000878:	64d3      	str	r3, [r2, #76]	@ 0x4c
 800087a:	4b16      	ldr	r3, [pc, #88]	@ (80008d4 <MX_GPIO_Init+0xc4>)
 800087c:	6cdb      	ldr	r3, [r3, #76]	@ 0x4c
 800087e:	f003 0302 	and.w	r3, r3, #2
 8000882:	607b      	str	r3, [r7, #4]
 8000884:	687b      	ldr	r3, [r7, #4]

    HAL_GPIO_WritePin(LD2_GPIO_Port, LD2_Pin, GPIO_PIN_RESET); // reset LED pin
 8000886:	2200      	movs	r2, #0
 8000888:	2120      	movs	r1, #32
 800088a:	f04f 4090 	mov.w	r0, #1207959552	@ 0x48000000
 800088e:	f000 fc5d 	bl	800114c <HAL_GPIO_WritePin>

    // configure button pin
    GPIO_InitStruct.Pin = B1_Pin;
 8000892:	f44f 5300 	mov.w	r3, #8192	@ 0x2000
 8000896:	617b      	str	r3, [r7, #20]
    GPIO_InitStruct.Mode = GPIO_MODE_IT_FALLING;
 8000898:	f44f 1304 	mov.w	r3, #2162688	@ 0x210000
 800089c:	61bb      	str	r3, [r7, #24]
    GPIO_InitStruct.Pull = GPIO_NOPULL;
 800089e:	2300      	movs	r3, #0
 80008a0:	61fb      	str	r3, [r7, #28]
    HAL_GPIO_Init(B1_GPIO_Port, &GPIO_InitStruct);
 80008a2:	f107 0314 	add.w	r3, r7, #20
 80008a6:	4619      	mov	r1, r3
 80008a8:	480b      	ldr	r0, [pc, #44]	@ (80008d8 <MX_GPIO_Init+0xc8>)
 80008aa:	f000 faa5 	bl	8000df8 <HAL_GPIO_Init>

    // configure LED pin
    GPIO_InitStruct.Pin = LD2_Pin;
 80008ae:	2320      	movs	r3, #32
 80008b0:	617b      	str	r3, [r7, #20]
    GPIO_InitStruct.Mode = GPIO_MODE_OUTPUT_PP;
 80008b2:	2301      	movs	r3, #1
 80008b4:	61bb      	str	r3, [r7, #24]
    GPIO_InitStruct.Pull = GPIO_NOPULL;
 80008b6:	2300      	movs	r3, #0
 80008b8:	61fb      	str	r3, [r7, #28]
    GPIO_InitStruct.Speed = GPIO_SPEED_FREQ_LOW;
 80008ba:	2300      	movs	r3, #0
 80008bc:	623b      	str	r3, [r7, #32]
    HAL_GPIO_Init(LD2_GPIO_Port, &GPIO_InitStruct);
 80008be:	f107 0314 	add.w	r3, r7, #20
 80008c2:	4619      	mov	r1, r3
 80008c4:	f04f 4090 	mov.w	r0, #1207959552	@ 0x48000000
 80008c8:	f000 fa96 	bl	8000df8 <HAL_GPIO_Init>
}
 80008cc:	bf00      	nop
 80008ce:	3728      	adds	r7, #40	@ 0x28
 80008d0:	46bd      	mov	sp, r7
 80008d2:	bd80      	pop	{r7, pc}
 80008d4:	40021000 	.word	0x40021000
 80008d8:	48000800 	.word	0x48000800

080008dc <StartDefaultTask>:

// default task
void StartDefaultTask(void const * argument)
{
 80008dc:	b580      	push	{r7, lr}
 80008de:	b082      	sub	sp, #8
 80008e0:	af00      	add	r7, sp, #0
 80008e2:	6078      	str	r0, [r7, #4]
    for(;;) // infinite loop
    {
        osDelay(1); // delay 1 ms
 80008e4:	2001      	movs	r0, #1
 80008e6:	f002 fd99 	bl	800341c <osDelay>
 80008ea:	e7fb      	b.n	80008e4 <StartDefaultTask+0x8>

080008ec <Error_Handler>:
    }
}

// error handler
void Error_Handler(void)
{
 80008ec:	b480      	push	{r7}
 80008ee:	af00      	add	r7, sp, #0
  \details Disables IRQ interrupts by setting the I-bit in the CPSR.
           Can only be executed in Privileged modes.
 */
__STATIC_FORCEINLINE void __disable_irq(void)
{
  __ASM volatile ("cpsid i" : : : "memory");
 80008f0:	b672      	cpsid	i
}
 80008f2:	bf00      	nop
    __disable_irq(); // disable interrupts
    while (1) { }    // stay here
 80008f4:	bf00      	nop
 80008f6:	e7fd      	b.n	80008f4 <Error_Handler+0x8>

080008f8 <HAL_MspInit>:
/* USER CODE END 0 */
/**
  * Initializes the Global MSP.
  */
void HAL_MspInit(void)
{
 80008f8:	b580      	push	{r7, lr}
 80008fa:	b082      	sub	sp, #8
 80008fc:	af00      	add	r7, sp, #0

  /* USER CODE BEGIN MspInit 0 */

  /* USER CODE END MspInit 0 */

  __HAL_RCC_SYSCFG_CLK_ENABLE();
 80008fe:	4b11      	ldr	r3, [pc, #68]	@ (8000944 <HAL_MspInit+0x4c>)
 8000900:	6e1b      	ldr	r3, [r3, #96]	@ 0x60
 8000902:	4a10      	ldr	r2, [pc, #64]	@ (8000944 <HAL_MspInit+0x4c>)
 8000904:	f043 0301 	orr.w	r3, r3, #1
 8000908:	6613      	str	r3, [r2, #96]	@ 0x60
 800090a:	4b0e      	ldr	r3, [pc, #56]	@ (8000944 <HAL_MspInit+0x4c>)
 800090c:	6e1b      	ldr	r3, [r3, #96]	@ 0x60
 800090e:	f003 0301 	and.w	r3, r3, #1
 8000912:	607b      	str	r3, [r7, #4]
 8000914:	687b      	ldr	r3, [r7, #4]
  __HAL_RCC_PWR_CLK_ENABLE();
 8000916:	4b0b      	ldr	r3, [pc, #44]	@ (8000944 <HAL_MspInit+0x4c>)
 8000918:	6d9b      	ldr	r3, [r3, #88]	@ 0x58
 800091a:	4a0a      	ldr	r2, [pc, #40]	@ (8000944 <HAL_MspInit+0x4c>)
 800091c:	f043 5380 	orr.w	r3, r3, #268435456	@ 0x10000000
 8000920:	6593      	str	r3, [r2, #88]	@ 0x58
 8000922:	4b08      	ldr	r3, [pc, #32]	@ (8000944 <HAL_MspInit+0x4c>)
 8000924:	6d9b      	ldr	r3, [r3, #88]	@ 0x58
 8000926:	f003 5380 	and.w	r3, r3, #268435456	@ 0x10000000
 800092a:	603b      	str	r3, [r7, #0]
 800092c:	683b      	ldr	r3, [r7, #0]

  /* System interrupt init*/
  /* PendSV_IRQn interrupt configuration */
  HAL_NVIC_SetPriority(PendSV_IRQn, 15, 0);
 800092e:	2200      	movs	r2, #0
 8000930:	210f      	movs	r1, #15
 8000932:	f06f 0001 	mvn.w	r0, #1
 8000936:	f000 fa36 	bl	8000da6 <HAL_NVIC_SetPriority>

  /* USER CODE BEGIN MspInit 1 */

  /* USER CODE END MspInit 1 */
}
 800093a:	bf00      	nop
 800093c:	3708      	adds	r7, #8
 800093e:	46bd      	mov	sp, r7
 8000940:	bd80      	pop	{r7, pc}
 8000942:	bf00      	nop
 8000944:	40021000 	.word	0x40021000

08000948 <HAL_UART_MspInit>:
  * This function configures the hardware resources used in this example
  * @param huart: UART handle pointer
  * @retval None
  */
void HAL_UART_MspInit(UART_HandleTypeDef* huart)
{
 8000948:	b580      	push	{r7, lr}
 800094a:	b0ac      	sub	sp, #176	@ 0xb0
 800094c:	af00      	add	r7, sp, #0
 800094e:	6078      	str	r0, [r7, #4]
  GPIO_InitTypeDef GPIO_InitStruct = {0};
 8000950:	f107 039c 	add.w	r3, r7, #156	@ 0x9c
 8000954:	2200      	movs	r2, #0
 8000956:	601a      	str	r2, [r3, #0]
 8000958:	605a      	str	r2, [r3, #4]
 800095a:	609a      	str	r2, [r3, #8]
 800095c:	60da      	str	r2, [r3, #12]
 800095e:	611a      	str	r2, [r3, #16]
  RCC_PeriphCLKInitTypeDef PeriphClkInit = {0};
 8000960:	f107 0314 	add.w	r3, r7, #20
 8000964:	2288      	movs	r2, #136	@ 0x88
 8000966:	2100      	movs	r1, #0
 8000968:	4618      	mov	r0, r3
 800096a:	f003 ff9d 	bl	80048a8 <memset>
  if(huart->Instance==USART2)
 800096e:	687b      	ldr	r3, [r7, #4]
 8000970:	681b      	ldr	r3, [r3, #0]
 8000972:	4a21      	ldr	r2, [pc, #132]	@ (80009f8 <HAL_UART_MspInit+0xb0>)
 8000974:	4293      	cmp	r3, r2
 8000976:	d13b      	bne.n	80009f0 <HAL_UART_MspInit+0xa8>

    /* USER CODE END USART2_MspInit 0 */

  /** Initializes the peripherals clock
  */
    PeriphClkInit.PeriphClockSelection = RCC_PERIPHCLK_USART2;
 8000978:	2302      	movs	r3, #2
 800097a:	617b      	str	r3, [r7, #20]
    PeriphClkInit.Usart2ClockSelection = RCC_USART2CLKSOURCE_PCLK1;
 800097c:	2300      	movs	r3, #0
 800097e:	653b      	str	r3, [r7, #80]	@ 0x50
    if (HAL_RCCEx_PeriphCLKConfig(&PeriphClkInit) != HAL_OK)
 8000980:	f107 0314 	add.w	r3, r7, #20
 8000984:	4618      	mov	r0, r3
 8000986:	f001 fa77 	bl	8001e78 <HAL_RCCEx_PeriphCLKConfig>
 800098a:	4603      	mov	r3, r0
 800098c:	2b00      	cmp	r3, #0
 800098e:	d001      	beq.n	8000994 <HAL_UART_MspInit+0x4c>
    {
      Error_Handler();
 8000990:	f7ff ffac 	bl	80008ec <Error_Handler>
    }

    /* Peripheral clock enable */
    __HAL_RCC_USART2_CLK_ENABLE();
 8000994:	4b19      	ldr	r3, [pc, #100]	@ (80009fc <HAL_UART_MspInit+0xb4>)
 8000996:	6d9b      	ldr	r3, [r3, #88]	@ 0x58
 8000998:	4a18      	ldr	r2, [pc, #96]	@ (80009fc <HAL_UART_MspInit+0xb4>)
 800099a:	f443 3300 	orr.w	r3, r3, #131072	@ 0x20000
 800099e:	6593      	str	r3, [r2, #88]	@ 0x58
 80009a0:	4b16      	ldr	r3, [pc, #88]	@ (80009fc <HAL_UART_MspInit+0xb4>)
 80009a2:	6d9b      	ldr	r3, [r3, #88]	@ 0x58
 80009a4:	f403 3300 	and.w	r3, r3, #131072	@ 0x20000
 80009a8:	613b      	str	r3, [r7, #16]
 80009aa:	693b      	ldr	r3, [r7, #16]

    __HAL_RCC_GPIOA_CLK_ENABLE();
 80009ac:	4b13      	ldr	r3, [pc, #76]	@ (80009fc <HAL_UART_MspInit+0xb4>)
 80009ae:	6cdb      	ldr	r3, [r3, #76]	@ 0x4c
 80009b0:	4a12      	ldr	r2, [pc, #72]	@ (80009fc <HAL_UART_MspInit+0xb4>)
 80009b2:	f043 0301 	orr.w	r3, r3, #1
 80009b6:	64d3      	str	r3, [r2, #76]	@ 0x4c
 80009b8:	4b10      	ldr	r3, [pc, #64]	@ (80009fc <HAL_UART_MspInit+0xb4>)
 80009ba:	6cdb      	ldr	r3, [r3, #76]	@ 0x4c
 80009bc:	f003 0301 	and.w	r3, r3, #1
 80009c0:	60fb      	str	r3, [r7, #12]
 80009c2:	68fb      	ldr	r3, [r7, #12]
    /**USART2 GPIO Configuration
    PA2     ------> USART2_TX
    PA3     ------> USART2_RX
    */
    GPIO_InitStruct.Pin = USART_TX_Pin|USART_RX_Pin;
 80009c4:	230c      	movs	r3, #12
 80009c6:	f8c7 309c 	str.w	r3, [r7, #156]	@ 0x9c
    GPIO_InitStruct.Mode = GPIO_MODE_AF_PP;
 80009ca:	2302      	movs	r3, #2
 80009cc:	f8c7 30a0 	str.w	r3, [r7, #160]	@ 0xa0
    GPIO_InitStruct.Pull = GPIO_NOPULL;
 80009d0:	2300      	movs	r3, #0
 80009d2:	f8c7 30a4 	str.w	r3, [r7, #164]	@ 0xa4
    GPIO_InitStruct.Speed = GPIO_SPEED_FREQ_VERY_HIGH;
 80009d6:	2303      	movs	r3, #3
 80009d8:	f8c7 30a8 	str.w	r3, [r7, #168]	@ 0xa8
    GPIO_InitStruct.Alternate = GPIO_AF7_USART2;
 80009dc:	2307      	movs	r3, #7
 80009de:	f8c7 30ac 	str.w	r3, [r7, #172]	@ 0xac
    HAL_GPIO_Init(GPIOA, &GPIO_InitStruct);
 80009e2:	f107 039c 	add.w	r3, r7, #156	@ 0x9c
 80009e6:	4619      	mov	r1, r3
 80009e8:	f04f 4090 	mov.w	r0, #1207959552	@ 0x48000000
 80009ec:	f000 fa04 	bl	8000df8 <HAL_GPIO_Init>

    /* USER CODE END USART2_MspInit 1 */

  }

}
 80009f0:	bf00      	nop
 80009f2:	37b0      	adds	r7, #176	@ 0xb0
 80009f4:	46bd      	mov	sp, r7
 80009f6:	bd80      	pop	{r7, pc}
 80009f8:	40004400 	.word	0x40004400
 80009fc:	40021000 	.word	0x40021000

08000a00 <NMI_Handler>:
/******************************************************************************/
/**
  * @brief This function handles Non maskable interrupt.
  */
void NMI_Handler(void)
{
 8000a00:	b480      	push	{r7}
 8000a02:	af00      	add	r7, sp, #0
  /* USER CODE BEGIN NonMaskableInt_IRQn 0 */

  /* USER CODE END NonMaskableInt_IRQn 0 */
  /* USER CODE BEGIN NonMaskableInt_IRQn 1 */
   while (1)
 8000a04:	bf00      	nop
 8000a06:	e7fd      	b.n	8000a04 <NMI_Handler+0x4>

08000a08 <HardFault_Handler>:

/**
  * @brief This function handles Hard fault interrupt.
  */
void HardFault_Handler(void)
{
 8000a08:	b480      	push	{r7}
 8000a0a:	af00      	add	r7, sp, #0
  /* USER CODE BEGIN HardFault_IRQn 0 */

  /* USER CODE END HardFault_IRQn 0 */
  while (1)
 8000a0c:	bf00      	nop
 8000a0e:	e7fd      	b.n	8000a0c <HardFault_Handler+0x4>

08000a10 <MemManage_Handler>:

/**
  * @brief This function handles Memory management fault.
  */
void MemManage_Handler(void)
{
 8000a10:	b480      	push	{r7}
 8000a12:	af00      	add	r7, sp, #0
  /* USER CODE BEGIN MemoryManagement_IRQn 0 */

  /* USER CODE END MemoryManagement_IRQn 0 */
  while (1)
 8000a14:	bf00      	nop
 8000a16:	e7fd      	b.n	8000a14 <MemManage_Handler+0x4>

08000a18 <BusFault_Handler>:

/**
  * @brief This function handles Prefetch fault, memory access fault.
  */
void BusFault_Handler(void)
{
 8000a18:	b480      	push	{r7}
 8000a1a:	af00      	add	r7, sp, #0
  /* USER CODE BEGIN BusFault_IRQn 0 */

  /* USER CODE END BusFault_IRQn 0 */
  while (1)
 8000a1c:	bf00      	nop
 8000a1e:	e7fd      	b.n	8000a1c <BusFault_Handler+0x4>

08000a20 <UsageFault_Handler>:

/**
  * @brief This function handles Undefined instruction or illegal state.
  */
void UsageFault_Handler(void)
{
 8000a20:	b480      	push	{r7}
 8000a22:	af00      	add	r7, sp, #0
  /* USER CODE BEGIN UsageFault_IRQn 0 */

  /* USER CODE END UsageFault_IRQn 0 */
  while (1)
 8000a24:	bf00      	nop
 8000a26:	e7fd      	b.n	8000a24 <UsageFault_Handler+0x4>

08000a28 <DebugMon_Handler>:

/**
  * @brief This function handles Debug monitor.
  */
void DebugMon_Handler(void)
{
 8000a28:	b480      	push	{r7}
 8000a2a:	af00      	add	r7, sp, #0

  /* USER CODE END DebugMonitor_IRQn 0 */
  /* USER CODE BEGIN DebugMonitor_IRQn 1 */

  /* USER CODE END DebugMonitor_IRQn 1 */
}
 8000a2c:	bf00      	nop
 8000a2e:	46bd      	mov	sp, r7
 8000a30:	f85d 7b04 	ldr.w	r7, [sp], #4
 8000a34:	4770      	bx	lr

08000a36 <SysTick_Handler>:

/**
  * @brief This function handles System tick timer.
  */
void SysTick_Handler(void)
{
 8000a36:	b580      	push	{r7, lr}
 8000a38:	af00      	add	r7, sp, #0
  /* USER CODE BEGIN SysTick_IRQn 0 */

  /* USER CODE END SysTick_IRQn 0 */
  HAL_IncTick();
 8000a3a:	f000 f8d7 	bl	8000bec <HAL_IncTick>
#if (INCLUDE_xTaskGetSchedulerState == 1 )
  if (xTaskGetSchedulerState() != taskSCHEDULER_NOT_STARTED)
 8000a3e:	f003 fa8d 	bl	8003f5c <xTaskGetSchedulerState>
 8000a42:	4603      	mov	r3, r0
 8000a44:	2b01      	cmp	r3, #1
 8000a46:	d001      	beq.n	8000a4c <SysTick_Handler+0x16>
  {
#endif /* INCLUDE_xTaskGetSchedulerState */
  xPortSysTickHandler();
 8000a48:	f003 fcce 	bl	80043e8 <xPortSysTickHandler>
  }
#endif /* INCLUDE_xTaskGetSchedulerState */
  /* USER CODE BEGIN SysTick_IRQn 1 */

  /* USER CODE END SysTick_IRQn 1 */
}
 8000a4c:	bf00      	nop
 8000a4e:	bd80      	pop	{r7, pc}

08000a50 <_sbrk>:
 *
 * @param incr Memory size
 * @return Pointer to allocated memory
 */
void *_sbrk(ptrdiff_t incr)
{
 8000a50:	b580      	push	{r7, lr}
 8000a52:	b086      	sub	sp, #24
 8000a54:	af00      	add	r7, sp, #0
 8000a56:	6078      	str	r0, [r7, #4]
  extern uint8_t _end; /* Symbol defined in the linker script */
  extern uint8_t _estack; /* Symbol defined in the linker script */
  extern uint32_t _Min_Stack_Size; /* Symbol defined in the linker script */
  const uint32_t stack_limit = (uint32_t)&_estack - (uint32_t)&_Min_Stack_Size;
 8000a58:	4a14      	ldr	r2, [pc, #80]	@ (8000aac <_sbrk+0x5c>)
 8000a5a:	4b15      	ldr	r3, [pc, #84]	@ (8000ab0 <_sbrk+0x60>)
 8000a5c:	1ad3      	subs	r3, r2, r3
 8000a5e:	617b      	str	r3, [r7, #20]
  const uint8_t *max_heap = (uint8_t *)stack_limit;
 8000a60:	697b      	ldr	r3, [r7, #20]
 8000a62:	613b      	str	r3, [r7, #16]
  uint8_t *prev_heap_end;

  /* Initialize heap end at first call */
  if (NULL == __sbrk_heap_end)
 8000a64:	4b13      	ldr	r3, [pc, #76]	@ (8000ab4 <_sbrk+0x64>)
 8000a66:	681b      	ldr	r3, [r3, #0]
 8000a68:	2b00      	cmp	r3, #0
 8000a6a:	d102      	bne.n	8000a72 <_sbrk+0x22>
  {
    __sbrk_heap_end = &_end;
 8000a6c:	4b11      	ldr	r3, [pc, #68]	@ (8000ab4 <_sbrk+0x64>)
 8000a6e:	4a12      	ldr	r2, [pc, #72]	@ (8000ab8 <_sbrk+0x68>)
 8000a70:	601a      	str	r2, [r3, #0]
  }

  /* Protect heap from growing into the reserved MSP stack */
  if (__sbrk_heap_end + incr > max_heap)
 8000a72:	4b10      	ldr	r3, [pc, #64]	@ (8000ab4 <_sbrk+0x64>)
 8000a74:	681a      	ldr	r2, [r3, #0]
 8000a76:	687b      	ldr	r3, [r7, #4]
 8000a78:	4413      	add	r3, r2
 8000a7a:	693a      	ldr	r2, [r7, #16]
 8000a7c:	429a      	cmp	r2, r3
 8000a7e:	d207      	bcs.n	8000a90 <_sbrk+0x40>
  {
    errno = ENOMEM;
 8000a80:	f003 ff1a 	bl	80048b8 <__errno>
 8000a84:	4603      	mov	r3, r0
 8000a86:	220c      	movs	r2, #12
 8000a88:	601a      	str	r2, [r3, #0]
    return (void *)-1;
 8000a8a:	f04f 33ff 	mov.w	r3, #4294967295
 8000a8e:	e009      	b.n	8000aa4 <_sbrk+0x54>
  }

  prev_heap_end = __sbrk_heap_end;
 8000a90:	4b08      	ldr	r3, [pc, #32]	@ (8000ab4 <_sbrk+0x64>)
 8000a92:	681b      	ldr	r3, [r3, #0]
 8000a94:	60fb      	str	r3, [r7, #12]
  __sbrk_heap_end += incr;
 8000a96:	4b07      	ldr	r3, [pc, #28]	@ (8000ab4 <_sbrk+0x64>)
 8000a98:	681a      	ldr	r2, [r3, #0]
 8000a9a:	687b      	ldr	r3, [r7, #4]
 8000a9c:	4413      	add	r3, r2
 8000a9e:	4a05      	ldr	r2, [pc, #20]	@ (8000ab4 <_sbrk+0x64>)
 8000aa0:	6013      	str	r3, [r2, #0]

  return (void *)prev_heap_end;
 8000aa2:	68fb      	ldr	r3, [r7, #12]
}
 8000aa4:	4618      	mov	r0, r3
 8000aa6:	3718      	adds	r7, #24
 8000aa8:	46bd      	mov	sp, r7
 8000aaa:	bd80      	pop	{r7, pc}
 8000aac:	20018000 	.word	0x20018000
 8000ab0:	00000400 	.word	0x00000400
 8000ab4:	2000035c 	.word	0x2000035c
 8000ab8:	200011b8 	.word	0x200011b8

08000abc <SystemInit>:
  * @brief  Setup the microcontroller system.
  * @retval None
  */

void SystemInit(void)
{
 8000abc:	b480      	push	{r7}
 8000abe:	af00      	add	r7, sp, #0
  SCB->VTOR = VECT_TAB_BASE_ADDRESS | VECT_TAB_OFFSET;
#endif

  /* FPU settings ------------------------------------------------------------*/
#if (__FPU_PRESENT == 1) && (__FPU_USED == 1)
  SCB->CPACR |= ((3UL << 20U)|(3UL << 22U));  /* set CP10 and CP11 Full Access */
 8000ac0:	4b06      	ldr	r3, [pc, #24]	@ (8000adc <SystemInit+0x20>)
 8000ac2:	f8d3 3088 	ldr.w	r3, [r3, #136]	@ 0x88
 8000ac6:	4a05      	ldr	r2, [pc, #20]	@ (8000adc <SystemInit+0x20>)
 8000ac8:	f443 0370 	orr.w	r3, r3, #15728640	@ 0xf00000
 8000acc:	f8c2 3088 	str.w	r3, [r2, #136]	@ 0x88
#endif
}
 8000ad0:	bf00      	nop
 8000ad2:	46bd      	mov	sp, r7
 8000ad4:	f85d 7b04 	ldr.w	r7, [sp], #4
 8000ad8:	4770      	bx	lr
 8000ada:	bf00      	nop
 8000adc:	e000ed00 	.word	0xe000ed00

08000ae0 <Reset_Handler>:

    .section	.text.Reset_Handler
	.weak	Reset_Handler
	.type	Reset_Handler, %function
Reset_Handler:
  ldr   sp, =_estack    /* Set stack pointer */
 8000ae0:	f8df d034 	ldr.w	sp, [pc, #52]	@ 8000b18 <LoopForever+0x2>

/* Call the clock system initialization function.*/
    bl  SystemInit
 8000ae4:	f7ff ffea 	bl	8000abc <SystemInit>

/* Copy the data segment initializers from flash to SRAM */
  ldr r0, =_sdata
 8000ae8:	480c      	ldr	r0, [pc, #48]	@ (8000b1c <LoopForever+0x6>)
  ldr r1, =_edata
 8000aea:	490d      	ldr	r1, [pc, #52]	@ (8000b20 <LoopForever+0xa>)
  ldr r2, =_sidata
 8000aec:	4a0d      	ldr	r2, [pc, #52]	@ (8000b24 <LoopForever+0xe>)
  movs r3, #0
 8000aee:	2300      	movs	r3, #0
  b LoopCopyDataInit
 8000af0:	e002      	b.n	8000af8 <LoopCopyDataInit>

08000af2 <CopyDataInit>:

CopyDataInit:
  ldr r4, [r2, r3]
 8000af2:	58d4      	ldr	r4, [r2, r3]
  str r4, [r0, r3]
 8000af4:	50c4      	str	r4, [r0, r3]
  adds r3, r3, #4
 8000af6:	3304      	adds	r3, #4

08000af8 <LoopCopyDataInit>:

LoopCopyDataInit:
  adds r4, r0, r3
 8000af8:	18c4      	adds	r4, r0, r3
  cmp r4, r1
 8000afa:	428c      	cmp	r4, r1
  bcc CopyDataInit
 8000afc:	d3f9      	bcc.n	8000af2 <CopyDataInit>
  
/* Zero fill the bss segment. */
  ldr r2, =_sbss
 8000afe:	4a0a      	ldr	r2, [pc, #40]	@ (8000b28 <LoopForever+0x12>)
  ldr r4, =_ebss
 8000b00:	4c0a      	ldr	r4, [pc, #40]	@ (8000b2c <LoopForever+0x16>)
  movs r3, #0
 8000b02:	2300      	movs	r3, #0
  b LoopFillZerobss
 8000b04:	e001      	b.n	8000b0a <LoopFillZerobss>

08000b06 <FillZerobss>:

FillZerobss:
  str  r3, [r2]
 8000b06:	6013      	str	r3, [r2, #0]
  adds r2, r2, #4
 8000b08:	3204      	adds	r2, #4

08000b0a <LoopFillZerobss>:

LoopFillZerobss:
  cmp r2, r4
 8000b0a:	42a2      	cmp	r2, r4
  bcc FillZerobss
 8000b0c:	d3fb      	bcc.n	8000b06 <FillZerobss>

/* Call static constructors */
    bl __libc_init_array
 8000b0e:	f003 fed9 	bl	80048c4 <__libc_init_array>
/* Call the application's entry point.*/
	bl	main
 8000b12:	f7ff fdbb 	bl	800068c <main>

08000b16 <LoopForever>:

LoopForever:
    b LoopForever
 8000b16:	e7fe      	b.n	8000b16 <LoopForever>
  ldr   sp, =_estack    /* Set stack pointer */
 8000b18:	20018000 	.word	0x20018000
  ldr r0, =_sdata
 8000b1c:	20000000 	.word	0x20000000
  ldr r1, =_edata
 8000b20:	20000060 	.word	0x20000060
  ldr r2, =_sidata
 8000b24:	080052a4 	.word	0x080052a4
  ldr r2, =_sbss
 8000b28:	20000060 	.word	0x20000060
  ldr r4, =_ebss
 8000b2c:	200011b8 	.word	0x200011b8

08000b30 <ADC1_2_IRQHandler>:
 * @retval : None
*/
    .section	.text.Default_Handler,"ax",%progbits
Default_Handler:
Infinite_Loop:
	b	Infinite_Loop
 8000b30:	e7fe      	b.n	8000b30 <ADC1_2_IRQHandler>
	...

08000b34 <HAL_Init>:
  *         each 1ms in the SysTick_Handler() interrupt handler.
  *
  * @retval HAL status
  */
HAL_StatusTypeDef HAL_Init(void)
{
 8000b34:	b580      	push	{r7, lr}
 8000b36:	b082      	sub	sp, #8
 8000b38:	af00      	add	r7, sp, #0
  HAL_StatusTypeDef  status = HAL_OK;
 8000b3a:	2300      	movs	r3, #0
 8000b3c:	71fb      	strb	r3, [r7, #7]
#if (DATA_CACHE_ENABLE == 0)
   __HAL_FLASH_DATA_CACHE_DISABLE();
#endif /* DATA_CACHE_ENABLE */

#if (PREFETCH_ENABLE != 0)
  __HAL_FLASH_PREFETCH_BUFFER_ENABLE();
 8000b3e:	4b0c      	ldr	r3, [pc, #48]	@ (8000b70 <HAL_Init+0x3c>)
 8000b40:	681b      	ldr	r3, [r3, #0]
 8000b42:	4a0b      	ldr	r2, [pc, #44]	@ (8000b70 <HAL_Init+0x3c>)
 8000b44:	f443 7380 	orr.w	r3, r3, #256	@ 0x100
 8000b48:	6013      	str	r3, [r2, #0]
#endif /* PREFETCH_ENABLE */

  /* Set Interrupt Group Priority */
  HAL_NVIC_SetPriorityGrouping(NVIC_PRIORITYGROUP_4);
 8000b4a:	2003      	movs	r0, #3
 8000b4c:	f000 f920 	bl	8000d90 <HAL_NVIC_SetPriorityGrouping>

  /* Use SysTick as time base source and configure 1ms tick (default clock after Reset is MSI) */
  if (HAL_InitTick(TICK_INT_PRIORITY) != HAL_OK)
 8000b50:	200f      	movs	r0, #15
 8000b52:	f000 f80f 	bl	8000b74 <HAL_InitTick>
 8000b56:	4603      	mov	r3, r0
 8000b58:	2b00      	cmp	r3, #0
 8000b5a:	d002      	beq.n	8000b62 <HAL_Init+0x2e>
  {
    status = HAL_ERROR;
 8000b5c:	2301      	movs	r3, #1
 8000b5e:	71fb      	strb	r3, [r7, #7]
 8000b60:	e001      	b.n	8000b66 <HAL_Init+0x32>
  }
  else
  {
    /* Init the low level hardware */
    HAL_MspInit();
 8000b62:	f7ff fec9 	bl	80008f8 <HAL_MspInit>
  }

  /* Return function status */
  return status;
 8000b66:	79fb      	ldrb	r3, [r7, #7]
}
 8000b68:	4618      	mov	r0, r3
 8000b6a:	3708      	adds	r7, #8
 8000b6c:	46bd      	mov	sp, r7
 8000b6e:	bd80      	pop	{r7, pc}
 8000b70:	40022000 	.word	0x40022000

08000b74 <HAL_InitTick>:
  *       implementation  in user file.
  * @param TickPriority  Tick interrupt priority.
  * @retval HAL status
  */
__weak HAL_StatusTypeDef HAL_InitTick(uint32_t TickPriority)
{
 8000b74:	b580      	push	{r7, lr}
 8000b76:	b084      	sub	sp, #16
 8000b78:	af00      	add	r7, sp, #0
 8000b7a:	6078      	str	r0, [r7, #4]
  HAL_StatusTypeDef  status = HAL_OK;
 8000b7c:	2300      	movs	r3, #0
 8000b7e:	73fb      	strb	r3, [r7, #15]

  /* Check uwTickFreq for MisraC 2012 (even if uwTickFreq is a enum type that doesn't take the value zero)*/
  if ((uint32_t)uwTickFreq != 0U)
 8000b80:	4b17      	ldr	r3, [pc, #92]	@ (8000be0 <HAL_InitTick+0x6c>)
 8000b82:	781b      	ldrb	r3, [r3, #0]
 8000b84:	2b00      	cmp	r3, #0
 8000b86:	d023      	beq.n	8000bd0 <HAL_InitTick+0x5c>
  {
    /*Configure the SysTick to have interrupt in 1ms time basis*/
    if (HAL_SYSTICK_Config(SystemCoreClock / (1000U / (uint32_t)uwTickFreq)) == 0U)
 8000b88:	4b16      	ldr	r3, [pc, #88]	@ (8000be4 <HAL_InitTick+0x70>)
 8000b8a:	681a      	ldr	r2, [r3, #0]
 8000b8c:	4b14      	ldr	r3, [pc, #80]	@ (8000be0 <HAL_InitTick+0x6c>)
 8000b8e:	781b      	ldrb	r3, [r3, #0]
 8000b90:	4619      	mov	r1, r3
 8000b92:	f44f 737a 	mov.w	r3, #1000	@ 0x3e8
 8000b96:	fbb3 f3f1 	udiv	r3, r3, r1
 8000b9a:	fbb2 f3f3 	udiv	r3, r2, r3
 8000b9e:	4618      	mov	r0, r3
 8000ba0:	f000 f91d 	bl	8000dde <HAL_SYSTICK_Config>
 8000ba4:	4603      	mov	r3, r0
 8000ba6:	2b00      	cmp	r3, #0
 8000ba8:	d10f      	bne.n	8000bca <HAL_InitTick+0x56>
    {
      /* Configure the SysTick IRQ priority */
      if (TickPriority < (1UL << __NVIC_PRIO_BITS))
 8000baa:	687b      	ldr	r3, [r7, #4]
 8000bac:	2b0f      	cmp	r3, #15
 8000bae:	d809      	bhi.n	8000bc4 <HAL_InitTick+0x50>
      {
        HAL_NVIC_SetPriority(SysTick_IRQn, TickPriority, 0U);
 8000bb0:	2200      	movs	r2, #0
 8000bb2:	6879      	ldr	r1, [r7, #4]
 8000bb4:	f04f 30ff 	mov.w	r0, #4294967295
 8000bb8:	f000 f8f5 	bl	8000da6 <HAL_NVIC_SetPriority>
        uwTickPrio = TickPriority;
 8000bbc:	4a0a      	ldr	r2, [pc, #40]	@ (8000be8 <HAL_InitTick+0x74>)
 8000bbe:	687b      	ldr	r3, [r7, #4]
 8000bc0:	6013      	str	r3, [r2, #0]
 8000bc2:	e007      	b.n	8000bd4 <HAL_InitTick+0x60>
      }
      else
      {
        status = HAL_ERROR;
 8000bc4:	2301      	movs	r3, #1
 8000bc6:	73fb      	strb	r3, [r7, #15]
 8000bc8:	e004      	b.n	8000bd4 <HAL_InitTick+0x60>
      }
    }
    else
    {
      status = HAL_ERROR;
 8000bca:	2301      	movs	r3, #1
 8000bcc:	73fb      	strb	r3, [r7, #15]
 8000bce:	e001      	b.n	8000bd4 <HAL_InitTick+0x60>
    }
  }
  else
  {
    status = HAL_ERROR;
 8000bd0:	2301      	movs	r3, #1
 8000bd2:	73fb      	strb	r3, [r7, #15]
  }

  /* Return function status */
  return status;
 8000bd4:	7bfb      	ldrb	r3, [r7, #15]
}
 8000bd6:	4618      	mov	r0, r3
 8000bd8:	3710      	adds	r7, #16
 8000bda:	46bd      	mov	sp, r7
 8000bdc:	bd80      	pop	{r7, pc}
 8000bde:	bf00      	nop
 8000be0:	20000008 	.word	0x20000008
 8000be4:	20000000 	.word	0x20000000
 8000be8:	20000004 	.word	0x20000004

08000bec <HAL_IncTick>:
 * @note This function is declared as __weak to be overwritten in case of other
  *      implementations in user file.
  * @retval None
  */
__weak void HAL_IncTick(void)
{
 8000bec:	b480      	push	{r7}
 8000bee:	af00      	add	r7, sp, #0
  uwTick += (uint32_t)uwTickFreq;
 8000bf0:	4b06      	ldr	r3, [pc, #24]	@ (8000c0c <HAL_IncTick+0x20>)
 8000bf2:	781b      	ldrb	r3, [r3, #0]
 8000bf4:	461a      	mov	r2, r3
 8000bf6:	4b06      	ldr	r3, [pc, #24]	@ (8000c10 <HAL_IncTick+0x24>)
 8000bf8:	681b      	ldr	r3, [r3, #0]
 8000bfa:	4413      	add	r3, r2
 8000bfc:	4a04      	ldr	r2, [pc, #16]	@ (8000c10 <HAL_IncTick+0x24>)
 8000bfe:	6013      	str	r3, [r2, #0]
}
 8000c00:	bf00      	nop
 8000c02:	46bd      	mov	sp, r7
 8000c04:	f85d 7b04 	ldr.w	r7, [sp], #4
 8000c08:	4770      	bx	lr
 8000c0a:	bf00      	nop
 8000c0c:	20000008 	.word	0x20000008
 8000c10:	20000360 	.word	0x20000360

08000c14 <HAL_GetTick>:
  * @note This function is declared as __weak to be overwritten in case of other
  *       implementations in user file.
  * @retval tick value
  */
__weak uint32_t HAL_GetTick(void)
{
 8000c14:	b480      	push	{r7}
 8000c16:	af00      	add	r7, sp, #0
  return uwTick;
 8000c18:	4b03      	ldr	r3, [pc, #12]	@ (8000c28 <HAL_GetTick+0x14>)
 8000c1a:	681b      	ldr	r3, [r3, #0]
}
 8000c1c:	4618      	mov	r0, r3
 8000c1e:	46bd      	mov	sp, r7
 8000c20:	f85d 7b04 	ldr.w	r7, [sp], #4
 8000c24:	4770      	bx	lr
 8000c26:	bf00      	nop
 8000c28:	20000360 	.word	0x20000360

08000c2c <__NVIC_SetPriorityGrouping>:
           In case of a conflict between priority grouping and available
           priority bits (__NVIC_PRIO_BITS), the smallest possible priority group is set.
  \param [in]      PriorityGroup  Priority grouping field.
 */
__STATIC_INLINE void __NVIC_SetPriorityGrouping(uint32_t PriorityGroup)
{
 8000c2c:	b480      	push	{r7}
 8000c2e:	b085      	sub	sp, #20
 8000c30:	af00      	add	r7, sp, #0
 8000c32:	6078      	str	r0, [r7, #4]
  uint32_t reg_value;
  uint32_t PriorityGroupTmp = (PriorityGroup & (uint32_t)0x07UL);             /* only values 0..7 are used          */
 8000c34:	687b      	ldr	r3, [r7, #4]
 8000c36:	f003 0307 	and.w	r3, r3, #7
 8000c3a:	60fb      	str	r3, [r7, #12]

  reg_value  =  SCB->AIRCR;                                                   /* read old register configuration    */
 8000c3c:	4b0c      	ldr	r3, [pc, #48]	@ (8000c70 <__NVIC_SetPriorityGrouping+0x44>)
 8000c3e:	68db      	ldr	r3, [r3, #12]
 8000c40:	60bb      	str	r3, [r7, #8]
  reg_value &= ~((uint32_t)(SCB_AIRCR_VECTKEY_Msk | SCB_AIRCR_PRIGROUP_Msk)); /* clear bits to change               */
 8000c42:	68ba      	ldr	r2, [r7, #8]
 8000c44:	f64f 03ff 	movw	r3, #63743	@ 0xf8ff
 8000c48:	4013      	ands	r3, r2
 8000c4a:	60bb      	str	r3, [r7, #8]
  reg_value  =  (reg_value                                   |
                ((uint32_t)0x5FAUL << SCB_AIRCR_VECTKEY_Pos) |
                (PriorityGroupTmp << SCB_AIRCR_PRIGROUP_Pos)  );              /* Insert write key and priority group */
 8000c4c:	68fb      	ldr	r3, [r7, #12]
 8000c4e:	021a      	lsls	r2, r3, #8
                ((uint32_t)0x5FAUL << SCB_AIRCR_VECTKEY_Pos) |
 8000c50:	68bb      	ldr	r3, [r7, #8]
 8000c52:	4313      	orrs	r3, r2
  reg_value  =  (reg_value                                   |
 8000c54:	f043 63bf 	orr.w	r3, r3, #100139008	@ 0x5f80000
 8000c58:	f443 3300 	orr.w	r3, r3, #131072	@ 0x20000
 8000c5c:	60bb      	str	r3, [r7, #8]
  SCB->AIRCR =  reg_value;
 8000c5e:	4a04      	ldr	r2, [pc, #16]	@ (8000c70 <__NVIC_SetPriorityGrouping+0x44>)
 8000c60:	68bb      	ldr	r3, [r7, #8]
 8000c62:	60d3      	str	r3, [r2, #12]
}
 8000c64:	bf00      	nop
 8000c66:	3714      	adds	r7, #20
 8000c68:	46bd      	mov	sp, r7
 8000c6a:	f85d 7b04 	ldr.w	r7, [sp], #4
 8000c6e:	4770      	bx	lr
 8000c70:	e000ed00 	.word	0xe000ed00

08000c74 <__NVIC_GetPriorityGrouping>:
  \brief   Get Priority Grouping
  \details Reads the priority grouping field from the NVIC Interrupt Controller.
  \return                Priority grouping field (SCB->AIRCR [10:8] PRIGROUP field).
 */
__STATIC_INLINE uint32_t __NVIC_GetPriorityGrouping(void)
{
 8000c74:	b480      	push	{r7}
 8000c76:	af00      	add	r7, sp, #0
  return ((uint32_t)((SCB->AIRCR & SCB_AIRCR_PRIGROUP_Msk) >> SCB_AIRCR_PRIGROUP_Pos));
 8000c78:	4b04      	ldr	r3, [pc, #16]	@ (8000c8c <__NVIC_GetPriorityGrouping+0x18>)
 8000c7a:	68db      	ldr	r3, [r3, #12]
 8000c7c:	0a1b      	lsrs	r3, r3, #8
 8000c7e:	f003 0307 	and.w	r3, r3, #7
}
 8000c82:	4618      	mov	r0, r3
 8000c84:	46bd      	mov	sp, r7
 8000c86:	f85d 7b04 	ldr.w	r7, [sp], #4
 8000c8a:	4770      	bx	lr
 8000c8c:	e000ed00 	.word	0xe000ed00

08000c90 <__NVIC_SetPriority>:
  \param [in]      IRQn  Interrupt number.
  \param [in]  priority  Priority to set.
  \note    The priority cannot be set for every processor exception.
 */
__STATIC_INLINE void __NVIC_SetPriority(IRQn_Type IRQn, uint32_t priority)
{
 8000c90:	b480      	push	{r7}
 8000c92:	b083      	sub	sp, #12
 8000c94:	af00      	add	r7, sp, #0
 8000c96:	4603      	mov	r3, r0
 8000c98:	6039      	str	r1, [r7, #0]
 8000c9a:	71fb      	strb	r3, [r7, #7]
  if ((int32_t)(IRQn) >= 0)
 8000c9c:	f997 3007 	ldrsb.w	r3, [r7, #7]
 8000ca0:	2b00      	cmp	r3, #0
 8000ca2:	db0a      	blt.n	8000cba <__NVIC_SetPriority+0x2a>
  {
    NVIC->IP[((uint32_t)IRQn)]               = (uint8_t)((priority << (8U - __NVIC_PRIO_BITS)) & (uint32_t)0xFFUL);
 8000ca4:	683b      	ldr	r3, [r7, #0]
 8000ca6:	b2da      	uxtb	r2, r3
 8000ca8:	490c      	ldr	r1, [pc, #48]	@ (8000cdc <__NVIC_SetPriority+0x4c>)
 8000caa:	f997 3007 	ldrsb.w	r3, [r7, #7]
 8000cae:	0112      	lsls	r2, r2, #4
 8000cb0:	b2d2      	uxtb	r2, r2
 8000cb2:	440b      	add	r3, r1
 8000cb4:	f883 2300 	strb.w	r2, [r3, #768]	@ 0x300
  }
  else
  {
    SCB->SHP[(((uint32_t)IRQn) & 0xFUL)-4UL] = (uint8_t)((priority << (8U - __NVIC_PRIO_BITS)) & (uint32_t)0xFFUL);
  }
}
 8000cb8:	e00a      	b.n	8000cd0 <__NVIC_SetPriority+0x40>
    SCB->SHP[(((uint32_t)IRQn) & 0xFUL)-4UL] = (uint8_t)((priority << (8U - __NVIC_PRIO_BITS)) & (uint32_t)0xFFUL);
 8000cba:	683b      	ldr	r3, [r7, #0]
 8000cbc:	b2da      	uxtb	r2, r3
 8000cbe:	4908      	ldr	r1, [pc, #32]	@ (8000ce0 <__NVIC_SetPriority+0x50>)
 8000cc0:	79fb      	ldrb	r3, [r7, #7]
 8000cc2:	f003 030f 	and.w	r3, r3, #15
 8000cc6:	3b04      	subs	r3, #4
 8000cc8:	0112      	lsls	r2, r2, #4
 8000cca:	b2d2      	uxtb	r2, r2
 8000ccc:	440b      	add	r3, r1
 8000cce:	761a      	strb	r2, [r3, #24]
}
 8000cd0:	bf00      	nop
 8000cd2:	370c      	adds	r7, #12
 8000cd4:	46bd      	mov	sp, r7
 8000cd6:	f85d 7b04 	ldr.w	r7, [sp], #4
 8000cda:	4770      	bx	lr
 8000cdc:	e000e100 	.word	0xe000e100
 8000ce0:	e000ed00 	.word	0xe000ed00

08000ce4 <NVIC_EncodePriority>:
  \param [in]   PreemptPriority  Preemptive priority value (starting from 0).
  \param [in]       SubPriority  Subpriority value (starting from 0).
  \return                        Encoded priority. Value can be used in the function \ref NVIC_SetPriority().
 */
__STATIC_INLINE uint32_t NVIC_EncodePriority (uint32_t PriorityGroup, uint32_t PreemptPriority, uint32_t SubPriority)
{
 8000ce4:	b480      	push	{r7}
 8000ce6:	b089      	sub	sp, #36	@ 0x24
 8000ce8:	af00      	add	r7, sp, #0
 8000cea:	60f8      	str	r0, [r7, #12]
 8000cec:	60b9      	str	r1, [r7, #8]
 8000cee:	607a      	str	r2, [r7, #4]
  uint32_t PriorityGroupTmp = (PriorityGroup & (uint32_t)0x07UL);   /* only values 0..7 are used          */
 8000cf0:	68fb      	ldr	r3, [r7, #12]
 8000cf2:	f003 0307 	and.w	r3, r3, #7
 8000cf6:	61fb      	str	r3, [r7, #28]
  uint32_t PreemptPriorityBits;
  uint32_t SubPriorityBits;

  PreemptPriorityBits = ((7UL - PriorityGroupTmp) > (uint32_t)(__NVIC_PRIO_BITS)) ? (uint32_t)(__NVIC_PRIO_BITS) : (uint32_t)(7UL - PriorityGroupTmp);
 8000cf8:	69fb      	ldr	r3, [r7, #28]
 8000cfa:	f1c3 0307 	rsb	r3, r3, #7
 8000cfe:	2b04      	cmp	r3, #4
 8000d00:	bf28      	it	cs
 8000d02:	2304      	movcs	r3, #4
 8000d04:	61bb      	str	r3, [r7, #24]
  SubPriorityBits     = ((PriorityGroupTmp + (uint32_t)(__NVIC_PRIO_BITS)) < (uint32_t)7UL) ? (uint32_t)0UL : (uint32_t)((PriorityGroupTmp - 7UL) + (uint32_t)(__NVIC_PRIO_BITS));
 8000d06:	69fb      	ldr	r3, [r7, #28]
 8000d08:	3304      	adds	r3, #4
 8000d0a:	2b06      	cmp	r3, #6
 8000d0c:	d902      	bls.n	8000d14 <NVIC_EncodePriority+0x30>
 8000d0e:	69fb      	ldr	r3, [r7, #28]
 8000d10:	3b03      	subs	r3, #3
 8000d12:	e000      	b.n	8000d16 <NVIC_EncodePriority+0x32>
 8000d14:	2300      	movs	r3, #0
 8000d16:	617b      	str	r3, [r7, #20]

  return (
           ((PreemptPriority & (uint32_t)((1UL << (PreemptPriorityBits)) - 1UL)) << SubPriorityBits) |
 8000d18:	f04f 32ff 	mov.w	r2, #4294967295
 8000d1c:	69bb      	ldr	r3, [r7, #24]
 8000d1e:	fa02 f303 	lsl.w	r3, r2, r3
 8000d22:	43da      	mvns	r2, r3
 8000d24:	68bb      	ldr	r3, [r7, #8]
 8000d26:	401a      	ands	r2, r3
 8000d28:	697b      	ldr	r3, [r7, #20]
 8000d2a:	409a      	lsls	r2, r3
           ((SubPriority     & (uint32_t)((1UL << (SubPriorityBits    )) - 1UL)))
 8000d2c:	f04f 31ff 	mov.w	r1, #4294967295
 8000d30:	697b      	ldr	r3, [r7, #20]
 8000d32:	fa01 f303 	lsl.w	r3, r1, r3
 8000d36:	43d9      	mvns	r1, r3
 8000d38:	687b      	ldr	r3, [r7, #4]
 8000d3a:	400b      	ands	r3, r1
           ((PreemptPriority & (uint32_t)((1UL << (PreemptPriorityBits)) - 1UL)) << SubPriorityBits) |
 8000d3c:	4313      	orrs	r3, r2
         );
}
 8000d3e:	4618      	mov	r0, r3
 8000d40:	3724      	adds	r7, #36	@ 0x24
 8000d42:	46bd      	mov	sp, r7
 8000d44:	f85d 7b04 	ldr.w	r7, [sp], #4
 8000d48:	4770      	bx	lr
	...

08000d4c <SysTick_Config>:
  \note    When the variable <b>__Vendor_SysTickConfig</b> is set to 1, then the
           function <b>SysTick_Config</b> is not included. In this case, the file <b><i>device</i>.h</b>
           must contain a vendor-specific implementation of this function.
 */
__STATIC_INLINE uint32_t SysTick_Config(uint32_t ticks)
{
 8000d4c:	b580      	push	{r7, lr}
 8000d4e:	b082      	sub	sp, #8
 8000d50:	af00      	add	r7, sp, #0
 8000d52:	6078      	str	r0, [r7, #4]
  if ((ticks - 1UL) > SysTick_LOAD_RELOAD_Msk)
 8000d54:	687b      	ldr	r3, [r7, #4]
 8000d56:	3b01      	subs	r3, #1
 8000d58:	f1b3 7f80 	cmp.w	r3, #16777216	@ 0x1000000
 8000d5c:	d301      	bcc.n	8000d62 <SysTick_Config+0x16>
  {
    return (1UL);                                                   /* Reload value impossible */
 8000d5e:	2301      	movs	r3, #1
 8000d60:	e00f      	b.n	8000d82 <SysTick_Config+0x36>
  }

  SysTick->LOAD  = (uint32_t)(ticks - 1UL);                         /* set reload register */
 8000d62:	4a0a      	ldr	r2, [pc, #40]	@ (8000d8c <SysTick_Config+0x40>)
 8000d64:	687b      	ldr	r3, [r7, #4]
 8000d66:	3b01      	subs	r3, #1
 8000d68:	6053      	str	r3, [r2, #4]
  NVIC_SetPriority (SysTick_IRQn, (1UL << __NVIC_PRIO_BITS) - 1UL); /* set Priority for Systick Interrupt */
 8000d6a:	210f      	movs	r1, #15
 8000d6c:	f04f 30ff 	mov.w	r0, #4294967295
 8000d70:	f7ff ff8e 	bl	8000c90 <__NVIC_SetPriority>
  SysTick->VAL   = 0UL;                                             /* Load the SysTick Counter Value */
 8000d74:	4b05      	ldr	r3, [pc, #20]	@ (8000d8c <SysTick_Config+0x40>)
 8000d76:	2200      	movs	r2, #0
 8000d78:	609a      	str	r2, [r3, #8]
  SysTick->CTRL  = SysTick_CTRL_CLKSOURCE_Msk |
 8000d7a:	4b04      	ldr	r3, [pc, #16]	@ (8000d8c <SysTick_Config+0x40>)
 8000d7c:	2207      	movs	r2, #7
 8000d7e:	601a      	str	r2, [r3, #0]
                   SysTick_CTRL_TICKINT_Msk   |
                   SysTick_CTRL_ENABLE_Msk;                         /* Enable SysTick IRQ and SysTick Timer */
  return (0UL);                                                     /* Function successful */
 8000d80:	2300      	movs	r3, #0
}
 8000d82:	4618      	mov	r0, r3
 8000d84:	3708      	adds	r7, #8
 8000d86:	46bd      	mov	sp, r7
 8000d88:	bd80      	pop	{r7, pc}
 8000d8a:	bf00      	nop
 8000d8c:	e000e010 	.word	0xe000e010

08000d90 <HAL_NVIC_SetPriorityGrouping>:
  * @note   When the NVIC_PriorityGroup_0 is selected, IRQ pre-emption is no more possible.
  *         The pending IRQ priority will be managed only by the subpriority.
  * @retval None
  */
void HAL_NVIC_SetPriorityGrouping(uint32_t PriorityGroup)
{
 8000d90:	b580      	push	{r7, lr}
 8000d92:	b082      	sub	sp, #8
 8000d94:	af00      	add	r7, sp, #0
 8000d96:	6078      	str	r0, [r7, #4]
  /* Check the parameters */
  assert_param(IS_NVIC_PRIORITY_GROUP(PriorityGroup));

  /* Set the PRIGROUP[10:8] bits according to the PriorityGroup parameter value */
  NVIC_SetPriorityGrouping(PriorityGroup);
 8000d98:	6878      	ldr	r0, [r7, #4]
 8000d9a:	f7ff ff47 	bl	8000c2c <__NVIC_SetPriorityGrouping>
}
 8000d9e:	bf00      	nop
 8000da0:	3708      	adds	r7, #8
 8000da2:	46bd      	mov	sp, r7
 8000da4:	bd80      	pop	{r7, pc}

08000da6 <HAL_NVIC_SetPriority>:
  *         This parameter can be a value between 0 and 15
  *         A lower priority value indicates a higher priority.
  * @retval None
  */
void HAL_NVIC_SetPriority(IRQn_Type IRQn, uint32_t PreemptPriority, uint32_t SubPriority)
{
 8000da6:	b580      	push	{r7, lr}
 8000da8:	b086      	sub	sp, #24
 8000daa:	af00      	add	r7, sp, #0
 8000dac:	4603      	mov	r3, r0
 8000dae:	60b9      	str	r1, [r7, #8]
 8000db0:	607a      	str	r2, [r7, #4]
 8000db2:	73fb      	strb	r3, [r7, #15]
  uint32_t prioritygroup = 0x00;
 8000db4:	2300      	movs	r3, #0
 8000db6:	617b      	str	r3, [r7, #20]

  /* Check the parameters */
  assert_param(IS_NVIC_SUB_PRIORITY(SubPriority));
  assert_param(IS_NVIC_PREEMPTION_PRIORITY(PreemptPriority));

  prioritygroup = NVIC_GetPriorityGrouping();
 8000db8:	f7ff ff5c 	bl	8000c74 <__NVIC_GetPriorityGrouping>
 8000dbc:	6178      	str	r0, [r7, #20]

  NVIC_SetPriority(IRQn, NVIC_EncodePriority(prioritygroup, PreemptPriority, SubPriority));
 8000dbe:	687a      	ldr	r2, [r7, #4]
 8000dc0:	68b9      	ldr	r1, [r7, #8]
 8000dc2:	6978      	ldr	r0, [r7, #20]
 8000dc4:	f7ff ff8e 	bl	8000ce4 <NVIC_EncodePriority>
 8000dc8:	4602      	mov	r2, r0
 8000dca:	f997 300f 	ldrsb.w	r3, [r7, #15]
 8000dce:	4611      	mov	r1, r2
 8000dd0:	4618      	mov	r0, r3
 8000dd2:	f7ff ff5d 	bl	8000c90 <__NVIC_SetPriority>
}
 8000dd6:	bf00      	nop
 8000dd8:	3718      	adds	r7, #24
 8000dda:	46bd      	mov	sp, r7
 8000ddc:	bd80      	pop	{r7, pc}

08000dde <HAL_SYSTICK_Config>:
  * @param  TicksNumb: Specifies the ticks Number of ticks between two interrupts.
  * @retval status:  - 0  Function succeeded.
  *                  - 1  Function failed.
  */
uint32_t HAL_SYSTICK_Config(uint32_t TicksNumb)
{
 8000dde:	b580      	push	{r7, lr}
 8000de0:	b082      	sub	sp, #8
 8000de2:	af00      	add	r7, sp, #0
 8000de4:	6078      	str	r0, [r7, #4]
   return SysTick_Config(TicksNumb);
 8000de6:	6878      	ldr	r0, [r7, #4]
 8000de8:	f7ff ffb0 	bl	8000d4c <SysTick_Config>
 8000dec:	4603      	mov	r3, r0
}
 8000dee:	4618      	mov	r0, r3
 8000df0:	3708      	adds	r7, #8
 8000df2:	46bd      	mov	sp, r7
 8000df4:	bd80      	pop	{r7, pc}
	...

08000df8 <HAL_GPIO_Init>:
  * @param  GPIO_Init pointer to a GPIO_InitTypeDef structure that contains
  *         the configuration information for the specified GPIO peripheral.
  * @retval None
  */
void HAL_GPIO_Init(GPIO_TypeDef  *GPIOx, GPIO_InitTypeDef *GPIO_Init)
{
 8000df8:	b480      	push	{r7}
 8000dfa:	b087      	sub	sp, #28
 8000dfc:	af00      	add	r7, sp, #0
 8000dfe:	6078      	str	r0, [r7, #4]
 8000e00:	6039      	str	r1, [r7, #0]
  uint32_t position = 0x00u;
 8000e02:	2300      	movs	r3, #0
 8000e04:	617b      	str	r3, [r7, #20]
  assert_param(IS_GPIO_ALL_INSTANCE(GPIOx));
  assert_param(IS_GPIO_PIN(GPIO_Init->Pin));
  assert_param(IS_GPIO_MODE(GPIO_Init->Mode));

  /* Configure the port pins */
  while (((GPIO_Init->Pin) >> position) != 0x00u)
 8000e06:	e17f      	b.n	8001108 <HAL_GPIO_Init+0x310>
  {
    /* Get current io position */
    iocurrent = (GPIO_Init->Pin) & (1uL << position);
 8000e08:	683b      	ldr	r3, [r7, #0]
 8000e0a:	681a      	ldr	r2, [r3, #0]
 8000e0c:	2101      	movs	r1, #1
 8000e0e:	697b      	ldr	r3, [r7, #20]
 8000e10:	fa01 f303 	lsl.w	r3, r1, r3
 8000e14:	4013      	ands	r3, r2
 8000e16:	60fb      	str	r3, [r7, #12]

    if (iocurrent != 0x00u)
 8000e18:	68fb      	ldr	r3, [r7, #12]
 8000e1a:	2b00      	cmp	r3, #0
 8000e1c:	f000 8171 	beq.w	8001102 <HAL_GPIO_Init+0x30a>
    {
      /*--------------------- GPIO Mode Configuration ------------------------*/
      /* In case of Output or Alternate function mode selection */
      if (((GPIO_Init->Mode & GPIO_MODE) == MODE_OUTPUT) || ((GPIO_Init->Mode & GPIO_MODE) == MODE_AF))
 8000e20:	683b      	ldr	r3, [r7, #0]
 8000e22:	685b      	ldr	r3, [r3, #4]
 8000e24:	f003 0303 	and.w	r3, r3, #3
 8000e28:	2b01      	cmp	r3, #1
 8000e2a:	d005      	beq.n	8000e38 <HAL_GPIO_Init+0x40>
 8000e2c:	683b      	ldr	r3, [r7, #0]
 8000e2e:	685b      	ldr	r3, [r3, #4]
 8000e30:	f003 0303 	and.w	r3, r3, #3
 8000e34:	2b02      	cmp	r3, #2
 8000e36:	d130      	bne.n	8000e9a <HAL_GPIO_Init+0xa2>
      {
        /* Check the Speed parameter */
        assert_param(IS_GPIO_SPEED(GPIO_Init->Speed));

        /* Configure the IO Speed */
        temp = GPIOx->OSPEEDR;
 8000e38:	687b      	ldr	r3, [r7, #4]
 8000e3a:	689b      	ldr	r3, [r3, #8]
 8000e3c:	613b      	str	r3, [r7, #16]
        temp &= ~(GPIO_OSPEEDR_OSPEED0 << (position * 2u));
 8000e3e:	697b      	ldr	r3, [r7, #20]
 8000e40:	005b      	lsls	r3, r3, #1
 8000e42:	2203      	movs	r2, #3
 8000e44:	fa02 f303 	lsl.w	r3, r2, r3
 8000e48:	43db      	mvns	r3, r3
 8000e4a:	693a      	ldr	r2, [r7, #16]
 8000e4c:	4013      	ands	r3, r2
 8000e4e:	613b      	str	r3, [r7, #16]
        temp |= (GPIO_Init->Speed << (position * 2u));
 8000e50:	683b      	ldr	r3, [r7, #0]
 8000e52:	68da      	ldr	r2, [r3, #12]
 8000e54:	697b      	ldr	r3, [r7, #20]
 8000e56:	005b      	lsls	r3, r3, #1
 8000e58:	fa02 f303 	lsl.w	r3, r2, r3
 8000e5c:	693a      	ldr	r2, [r7, #16]
 8000e5e:	4313      	orrs	r3, r2
 8000e60:	613b      	str	r3, [r7, #16]
        GPIOx->OSPEEDR = temp;
 8000e62:	687b      	ldr	r3, [r7, #4]
 8000e64:	693a      	ldr	r2, [r7, #16]
 8000e66:	609a      	str	r2, [r3, #8]

        /* Configure the IO Output Type */
        temp = GPIOx->OTYPER;
 8000e68:	687b      	ldr	r3, [r7, #4]
 8000e6a:	685b      	ldr	r3, [r3, #4]
 8000e6c:	613b      	str	r3, [r7, #16]
        temp &= ~(GPIO_OTYPER_OT0 << position) ;
 8000e6e:	2201      	movs	r2, #1
 8000e70:	697b      	ldr	r3, [r7, #20]
 8000e72:	fa02 f303 	lsl.w	r3, r2, r3
 8000e76:	43db      	mvns	r3, r3
 8000e78:	693a      	ldr	r2, [r7, #16]
 8000e7a:	4013      	ands	r3, r2
 8000e7c:	613b      	str	r3, [r7, #16]
        temp |= (((GPIO_Init->Mode & OUTPUT_TYPE) >> OUTPUT_TYPE_Pos) << position);
 8000e7e:	683b      	ldr	r3, [r7, #0]
 8000e80:	685b      	ldr	r3, [r3, #4]
 8000e82:	091b      	lsrs	r3, r3, #4
 8000e84:	f003 0201 	and.w	r2, r3, #1
 8000e88:	697b      	ldr	r3, [r7, #20]
 8000e8a:	fa02 f303 	lsl.w	r3, r2, r3
 8000e8e:	693a      	ldr	r2, [r7, #16]
 8000e90:	4313      	orrs	r3, r2
 8000e92:	613b      	str	r3, [r7, #16]
        GPIOx->OTYPER = temp;
 8000e94:	687b      	ldr	r3, [r7, #4]
 8000e96:	693a      	ldr	r2, [r7, #16]
 8000e98:	605a      	str	r2, [r3, #4]
      }

#if defined(STM32L471xx) || defined(STM32L475xx) || defined(STM32L476xx) || defined(STM32L485xx) || defined(STM32L486xx)

      /* In case of Analog mode, check if ADC control mode is selected */
      if((GPIO_Init->Mode & GPIO_MODE_ANALOG) == GPIO_MODE_ANALOG)
 8000e9a:	683b      	ldr	r3, [r7, #0]
 8000e9c:	685b      	ldr	r3, [r3, #4]
 8000e9e:	f003 0303 	and.w	r3, r3, #3
 8000ea2:	2b03      	cmp	r3, #3
 8000ea4:	d118      	bne.n	8000ed8 <HAL_GPIO_Init+0xe0>
      {
        /* Configure the IO Output Type */
        temp = GPIOx->ASCR;
 8000ea6:	687b      	ldr	r3, [r7, #4]
 8000ea8:	6adb      	ldr	r3, [r3, #44]	@ 0x2c
 8000eaa:	613b      	str	r3, [r7, #16]
        temp &= ~(GPIO_ASCR_ASC0 << position) ;
 8000eac:	2201      	movs	r2, #1
 8000eae:	697b      	ldr	r3, [r7, #20]
 8000eb0:	fa02 f303 	lsl.w	r3, r2, r3
 8000eb4:	43db      	mvns	r3, r3
 8000eb6:	693a      	ldr	r2, [r7, #16]
 8000eb8:	4013      	ands	r3, r2
 8000eba:	613b      	str	r3, [r7, #16]
        temp |= (((GPIO_Init->Mode & GPIO_MODE_ANALOG_ADC_CONTROL) >> 3) << position);
 8000ebc:	683b      	ldr	r3, [r7, #0]
 8000ebe:	685b      	ldr	r3, [r3, #4]
 8000ec0:	08db      	lsrs	r3, r3, #3
 8000ec2:	f003 0201 	and.w	r2, r3, #1
 8000ec6:	697b      	ldr	r3, [r7, #20]
 8000ec8:	fa02 f303 	lsl.w	r3, r2, r3
 8000ecc:	693a      	ldr	r2, [r7, #16]
 8000ece:	4313      	orrs	r3, r2
 8000ed0:	613b      	str	r3, [r7, #16]
        GPIOx->ASCR = temp;
 8000ed2:	687b      	ldr	r3, [r7, #4]
 8000ed4:	693a      	ldr	r2, [r7, #16]
 8000ed6:	62da      	str	r2, [r3, #44]	@ 0x2c
      }

#endif /* STM32L471xx || STM32L475xx || STM32L476xx || STM32L485xx || STM32L486xx */

      /* Activate the Pull-up or Pull down resistor for the current IO */
      if ((GPIO_Init->Mode & GPIO_MODE) != MODE_ANALOG)
 8000ed8:	683b      	ldr	r3, [r7, #0]
 8000eda:	685b      	ldr	r3, [r3, #4]
 8000edc:	f003 0303 	and.w	r3, r3, #3
 8000ee0:	2b03      	cmp	r3, #3
 8000ee2:	d017      	beq.n	8000f14 <HAL_GPIO_Init+0x11c>
      {
        /* Check the Pull parameter */
        assert_param(IS_GPIO_PULL(GPIO_Init->Pull));

        temp = GPIOx->PUPDR;
 8000ee4:	687b      	ldr	r3, [r7, #4]
 8000ee6:	68db      	ldr	r3, [r3, #12]
 8000ee8:	613b      	str	r3, [r7, #16]
        temp &= ~(GPIO_PUPDR_PUPD0 << (position * 2U));
 8000eea:	697b      	ldr	r3, [r7, #20]
 8000eec:	005b      	lsls	r3, r3, #1
 8000eee:	2203      	movs	r2, #3
 8000ef0:	fa02 f303 	lsl.w	r3, r2, r3
 8000ef4:	43db      	mvns	r3, r3
 8000ef6:	693a      	ldr	r2, [r7, #16]
 8000ef8:	4013      	ands	r3, r2
 8000efa:	613b      	str	r3, [r7, #16]
        temp |= ((GPIO_Init->Pull) << (position * 2U));
 8000efc:	683b      	ldr	r3, [r7, #0]
 8000efe:	689a      	ldr	r2, [r3, #8]
 8000f00:	697b      	ldr	r3, [r7, #20]
 8000f02:	005b      	lsls	r3, r3, #1
 8000f04:	fa02 f303 	lsl.w	r3, r2, r3
 8000f08:	693a      	ldr	r2, [r7, #16]
 8000f0a:	4313      	orrs	r3, r2
 8000f0c:	613b      	str	r3, [r7, #16]
        GPIOx->PUPDR = temp;
 8000f0e:	687b      	ldr	r3, [r7, #4]
 8000f10:	693a      	ldr	r2, [r7, #16]
 8000f12:	60da      	str	r2, [r3, #12]
      }

      /* In case of Alternate function mode selection */
      if ((GPIO_Init->Mode & GPIO_MODE) == MODE_AF)
 8000f14:	683b      	ldr	r3, [r7, #0]
 8000f16:	685b      	ldr	r3, [r3, #4]
 8000f18:	f003 0303 	and.w	r3, r3, #3
 8000f1c:	2b02      	cmp	r3, #2
 8000f1e:	d123      	bne.n	8000f68 <HAL_GPIO_Init+0x170>
        /* Check the Alternate function parameters */
        assert_param(IS_GPIO_AF_INSTANCE(GPIOx));
        assert_param(IS_GPIO_AF(GPIO_Init->Alternate));

        /* Configure Alternate function mapped with the current IO */
        temp = GPIOx->AFR[position >> 3u];
 8000f20:	697b      	ldr	r3, [r7, #20]
 8000f22:	08da      	lsrs	r2, r3, #3
 8000f24:	687b      	ldr	r3, [r7, #4]
 8000f26:	3208      	adds	r2, #8
 8000f28:	f853 3022 	ldr.w	r3, [r3, r2, lsl #2]
 8000f2c:	613b      	str	r3, [r7, #16]
        temp &= ~(0xFu << ((position & 0x07u) * 4u));
 8000f2e:	697b      	ldr	r3, [r7, #20]
 8000f30:	f003 0307 	and.w	r3, r3, #7
 8000f34:	009b      	lsls	r3, r3, #2
 8000f36:	220f      	movs	r2, #15
 8000f38:	fa02 f303 	lsl.w	r3, r2, r3
 8000f3c:	43db      	mvns	r3, r3
 8000f3e:	693a      	ldr	r2, [r7, #16]
 8000f40:	4013      	ands	r3, r2
 8000f42:	613b      	str	r3, [r7, #16]
        temp |= ((GPIO_Init->Alternate) << ((position & 0x07u) * 4u));
 8000f44:	683b      	ldr	r3, [r7, #0]
 8000f46:	691a      	ldr	r2, [r3, #16]
 8000f48:	697b      	ldr	r3, [r7, #20]
 8000f4a:	f003 0307 	and.w	r3, r3, #7
 8000f4e:	009b      	lsls	r3, r3, #2
 8000f50:	fa02 f303 	lsl.w	r3, r2, r3
 8000f54:	693a      	ldr	r2, [r7, #16]
 8000f56:	4313      	orrs	r3, r2
 8000f58:	613b      	str	r3, [r7, #16]
        GPIOx->AFR[position >> 3u] = temp;
 8000f5a:	697b      	ldr	r3, [r7, #20]
 8000f5c:	08da      	lsrs	r2, r3, #3
 8000f5e:	687b      	ldr	r3, [r7, #4]
 8000f60:	3208      	adds	r2, #8
 8000f62:	6939      	ldr	r1, [r7, #16]
 8000f64:	f843 1022 	str.w	r1, [r3, r2, lsl #2]
      }

      /* Configure IO Direction mode (Input, Output, Alternate or Analog) */
      temp = GPIOx->MODER;
 8000f68:	687b      	ldr	r3, [r7, #4]
 8000f6a:	681b      	ldr	r3, [r3, #0]
 8000f6c:	613b      	str	r3, [r7, #16]
      temp &= ~(GPIO_MODER_MODE0 << (position * 2u));
 8000f6e:	697b      	ldr	r3, [r7, #20]
 8000f70:	005b      	lsls	r3, r3, #1
 8000f72:	2203      	movs	r2, #3
 8000f74:	fa02 f303 	lsl.w	r3, r2, r3
 8000f78:	43db      	mvns	r3, r3
 8000f7a:	693a      	ldr	r2, [r7, #16]
 8000f7c:	4013      	ands	r3, r2
 8000f7e:	613b      	str	r3, [r7, #16]
      temp |= ((GPIO_Init->Mode & GPIO_MODE) << (position * 2u));
 8000f80:	683b      	ldr	r3, [r7, #0]
 8000f82:	685b      	ldr	r3, [r3, #4]
 8000f84:	f003 0203 	and.w	r2, r3, #3
 8000f88:	697b      	ldr	r3, [r7, #20]
 8000f8a:	005b      	lsls	r3, r3, #1
 8000f8c:	fa02 f303 	lsl.w	r3, r2, r3
 8000f90:	693a      	ldr	r2, [r7, #16]
 8000f92:	4313      	orrs	r3, r2
 8000f94:	613b      	str	r3, [r7, #16]
      GPIOx->MODER = temp;
 8000f96:	687b      	ldr	r3, [r7, #4]
 8000f98:	693a      	ldr	r2, [r7, #16]
 8000f9a:	601a      	str	r2, [r3, #0]

      /*--------------------- EXTI Mode Configuration ------------------------*/
      /* Configure the External Interrupt or event for the current IO */
      if ((GPIO_Init->Mode & EXTI_MODE) != 0x00u)
 8000f9c:	683b      	ldr	r3, [r7, #0]
 8000f9e:	685b      	ldr	r3, [r3, #4]
 8000fa0:	f403 3340 	and.w	r3, r3, #196608	@ 0x30000
 8000fa4:	2b00      	cmp	r3, #0
 8000fa6:	f000 80ac 	beq.w	8001102 <HAL_GPIO_Init+0x30a>
      {
        /* Enable SYSCFG Clock */
        __HAL_RCC_SYSCFG_CLK_ENABLE();
 8000faa:	4b5f      	ldr	r3, [pc, #380]	@ (8001128 <HAL_GPIO_Init+0x330>)
 8000fac:	6e1b      	ldr	r3, [r3, #96]	@ 0x60
 8000fae:	4a5e      	ldr	r2, [pc, #376]	@ (8001128 <HAL_GPIO_Init+0x330>)
 8000fb0:	f043 0301 	orr.w	r3, r3, #1
 8000fb4:	6613      	str	r3, [r2, #96]	@ 0x60
 8000fb6:	4b5c      	ldr	r3, [pc, #368]	@ (8001128 <HAL_GPIO_Init+0x330>)
 8000fb8:	6e1b      	ldr	r3, [r3, #96]	@ 0x60
 8000fba:	f003 0301 	and.w	r3, r3, #1
 8000fbe:	60bb      	str	r3, [r7, #8]
 8000fc0:	68bb      	ldr	r3, [r7, #8]

        temp = SYSCFG->EXTICR[position >> 2u];
 8000fc2:	4a5a      	ldr	r2, [pc, #360]	@ (800112c <HAL_GPIO_Init+0x334>)
 8000fc4:	697b      	ldr	r3, [r7, #20]
 8000fc6:	089b      	lsrs	r3, r3, #2
 8000fc8:	3302      	adds	r3, #2
 8000fca:	f852 3023 	ldr.w	r3, [r2, r3, lsl #2]
 8000fce:	613b      	str	r3, [r7, #16]
        temp &= ~(0x0FuL << (4u * (position & 0x03u)));
 8000fd0:	697b      	ldr	r3, [r7, #20]
 8000fd2:	f003 0303 	and.w	r3, r3, #3
 8000fd6:	009b      	lsls	r3, r3, #2
 8000fd8:	220f      	movs	r2, #15
 8000fda:	fa02 f303 	lsl.w	r3, r2, r3
 8000fde:	43db      	mvns	r3, r3
 8000fe0:	693a      	ldr	r2, [r7, #16]
 8000fe2:	4013      	ands	r3, r2
 8000fe4:	613b      	str	r3, [r7, #16]
        temp |= (GPIO_GET_INDEX(GPIOx) << (4u * (position & 0x03u)));
 8000fe6:	687b      	ldr	r3, [r7, #4]
 8000fe8:	f1b3 4f90 	cmp.w	r3, #1207959552	@ 0x48000000
 8000fec:	d025      	beq.n	800103a <HAL_GPIO_Init+0x242>
 8000fee:	687b      	ldr	r3, [r7, #4]
 8000ff0:	4a4f      	ldr	r2, [pc, #316]	@ (8001130 <HAL_GPIO_Init+0x338>)
 8000ff2:	4293      	cmp	r3, r2
 8000ff4:	d01f      	beq.n	8001036 <HAL_GPIO_Init+0x23e>
 8000ff6:	687b      	ldr	r3, [r7, #4]
 8000ff8:	4a4e      	ldr	r2, [pc, #312]	@ (8001134 <HAL_GPIO_Init+0x33c>)
 8000ffa:	4293      	cmp	r3, r2
 8000ffc:	d019      	beq.n	8001032 <HAL_GPIO_Init+0x23a>
 8000ffe:	687b      	ldr	r3, [r7, #4]
 8001000:	4a4d      	ldr	r2, [pc, #308]	@ (8001138 <HAL_GPIO_Init+0x340>)
 8001002:	4293      	cmp	r3, r2
 8001004:	d013      	beq.n	800102e <HAL_GPIO_Init+0x236>
 8001006:	687b      	ldr	r3, [r7, #4]
 8001008:	4a4c      	ldr	r2, [pc, #304]	@ (800113c <HAL_GPIO_Init+0x344>)
 800100a:	4293      	cmp	r3, r2
 800100c:	d00d      	beq.n	800102a <HAL_GPIO_Init+0x232>
 800100e:	687b      	ldr	r3, [r7, #4]
 8001010:	4a4b      	ldr	r2, [pc, #300]	@ (8001140 <HAL_GPIO_Init+0x348>)
 8001012:	4293      	cmp	r3, r2
 8001014:	d007      	beq.n	8001026 <HAL_GPIO_Init+0x22e>
 8001016:	687b      	ldr	r3, [r7, #4]
 8001018:	4a4a      	ldr	r2, [pc, #296]	@ (8001144 <HAL_GPIO_Init+0x34c>)
 800101a:	4293      	cmp	r3, r2
 800101c:	d101      	bne.n	8001022 <HAL_GPIO_Init+0x22a>
 800101e:	2306      	movs	r3, #6
 8001020:	e00c      	b.n	800103c <HAL_GPIO_Init+0x244>
 8001022:	2307      	movs	r3, #7
 8001024:	e00a      	b.n	800103c <HAL_GPIO_Init+0x244>
 8001026:	2305      	movs	r3, #5
 8001028:	e008      	b.n	800103c <HAL_GPIO_Init+0x244>
 800102a:	2304      	movs	r3, #4
 800102c:	e006      	b.n	800103c <HAL_GPIO_Init+0x244>
 800102e:	2303      	movs	r3, #3
 8001030:	e004      	b.n	800103c <HAL_GPIO_Init+0x244>
 8001032:	2302      	movs	r3, #2
 8001034:	e002      	b.n	800103c <HAL_GPIO_Init+0x244>
 8001036:	2301      	movs	r3, #1
 8001038:	e000      	b.n	800103c <HAL_GPIO_Init+0x244>
 800103a:	2300      	movs	r3, #0
 800103c:	697a      	ldr	r2, [r7, #20]
 800103e:	f002 0203 	and.w	r2, r2, #3
 8001042:	0092      	lsls	r2, r2, #2
 8001044:	4093      	lsls	r3, r2
 8001046:	693a      	ldr	r2, [r7, #16]
 8001048:	4313      	orrs	r3, r2
 800104a:	613b      	str	r3, [r7, #16]
        SYSCFG->EXTICR[position >> 2u] = temp;
 800104c:	4937      	ldr	r1, [pc, #220]	@ (800112c <HAL_GPIO_Init+0x334>)
 800104e:	697b      	ldr	r3, [r7, #20]
 8001050:	089b      	lsrs	r3, r3, #2
 8001052:	3302      	adds	r3, #2
 8001054:	693a      	ldr	r2, [r7, #16]
 8001056:	f841 2023 	str.w	r2, [r1, r3, lsl #2]

        /* Clear Rising Falling edge configuration */
        temp = EXTI->RTSR1;
 800105a:	4b3b      	ldr	r3, [pc, #236]	@ (8001148 <HAL_GPIO_Init+0x350>)
 800105c:	689b      	ldr	r3, [r3, #8]
 800105e:	613b      	str	r3, [r7, #16]
        temp &= ~(iocurrent);
 8001060:	68fb      	ldr	r3, [r7, #12]
 8001062:	43db      	mvns	r3, r3
 8001064:	693a      	ldr	r2, [r7, #16]
 8001066:	4013      	ands	r3, r2
 8001068:	613b      	str	r3, [r7, #16]
        if ((GPIO_Init->Mode & TRIGGER_RISING) != 0x00u)
 800106a:	683b      	ldr	r3, [r7, #0]
 800106c:	685b      	ldr	r3, [r3, #4]
 800106e:	f403 1380 	and.w	r3, r3, #1048576	@ 0x100000
 8001072:	2b00      	cmp	r3, #0
 8001074:	d003      	beq.n	800107e <HAL_GPIO_Init+0x286>
        {
          temp |= iocurrent;
 8001076:	693a      	ldr	r2, [r7, #16]
 8001078:	68fb      	ldr	r3, [r7, #12]
 800107a:	4313      	orrs	r3, r2
 800107c:	613b      	str	r3, [r7, #16]
        }
        EXTI->RTSR1 = temp;
 800107e:	4a32      	ldr	r2, [pc, #200]	@ (8001148 <HAL_GPIO_Init+0x350>)
 8001080:	693b      	ldr	r3, [r7, #16]
 8001082:	6093      	str	r3, [r2, #8]

        temp = EXTI->FTSR1;
 8001084:	4b30      	ldr	r3, [pc, #192]	@ (8001148 <HAL_GPIO_Init+0x350>)
 8001086:	68db      	ldr	r3, [r3, #12]
 8001088:	613b      	str	r3, [r7, #16]
        temp &= ~(iocurrent);
 800108a:	68fb      	ldr	r3, [r7, #12]
 800108c:	43db      	mvns	r3, r3
 800108e:	693a      	ldr	r2, [r7, #16]
 8001090:	4013      	ands	r3, r2
 8001092:	613b      	str	r3, [r7, #16]
        if ((GPIO_Init->Mode & TRIGGER_FALLING) != 0x00u)
 8001094:	683b      	ldr	r3, [r7, #0]
 8001096:	685b      	ldr	r3, [r3, #4]
 8001098:	f403 1300 	and.w	r3, r3, #2097152	@ 0x200000
 800109c:	2b00      	cmp	r3, #0
 800109e:	d003      	beq.n	80010a8 <HAL_GPIO_Init+0x2b0>
        {
          temp |= iocurrent;
 80010a0:	693a      	ldr	r2, [r7, #16]
 80010a2:	68fb      	ldr	r3, [r7, #12]
 80010a4:	4313      	orrs	r3, r2
 80010a6:	613b      	str	r3, [r7, #16]
        }
        EXTI->FTSR1 = temp;
 80010a8:	4a27      	ldr	r2, [pc, #156]	@ (8001148 <HAL_GPIO_Init+0x350>)
 80010aa:	693b      	ldr	r3, [r7, #16]
 80010ac:	60d3      	str	r3, [r2, #12]

        /* Clear EXTI line configuration */
        temp = EXTI->EMR1;
 80010ae:	4b26      	ldr	r3, [pc, #152]	@ (8001148 <HAL_GPIO_Init+0x350>)
 80010b0:	685b      	ldr	r3, [r3, #4]
 80010b2:	613b      	str	r3, [r7, #16]
        temp &= ~(iocurrent);
 80010b4:	68fb      	ldr	r3, [r7, #12]
 80010b6:	43db      	mvns	r3, r3
 80010b8:	693a      	ldr	r2, [r7, #16]
 80010ba:	4013      	ands	r3, r2
 80010bc:	613b      	str	r3, [r7, #16]
        if ((GPIO_Init->Mode & EXTI_EVT) != 0x00u)
 80010be:	683b      	ldr	r3, [r7, #0]
 80010c0:	685b      	ldr	r3, [r3, #4]
 80010c2:	f403 3300 	and.w	r3, r3, #131072	@ 0x20000
 80010c6:	2b00      	cmp	r3, #0
 80010c8:	d003      	beq.n	80010d2 <HAL_GPIO_Init+0x2da>
        {
          temp |= iocurrent;
 80010ca:	693a      	ldr	r2, [r7, #16]
 80010cc:	68fb      	ldr	r3, [r7, #12]
 80010ce:	4313      	orrs	r3, r2
 80010d0:	613b      	str	r3, [r7, #16]
        }
        EXTI->EMR1 = temp;
 80010d2:	4a1d      	ldr	r2, [pc, #116]	@ (8001148 <HAL_GPIO_Init+0x350>)
 80010d4:	693b      	ldr	r3, [r7, #16]
 80010d6:	6053      	str	r3, [r2, #4]

        temp = EXTI->IMR1;
 80010d8:	4b1b      	ldr	r3, [pc, #108]	@ (8001148 <HAL_GPIO_Init+0x350>)
 80010da:	681b      	ldr	r3, [r3, #0]
 80010dc:	613b      	str	r3, [r7, #16]
        temp &= ~(iocurrent);
 80010de:	68fb      	ldr	r3, [r7, #12]
 80010e0:	43db      	mvns	r3, r3
 80010e2:	693a      	ldr	r2, [r7, #16]
 80010e4:	4013      	ands	r3, r2
 80010e6:	613b      	str	r3, [r7, #16]
        if ((GPIO_Init->Mode & EXTI_IT) != 0x00u)
 80010e8:	683b      	ldr	r3, [r7, #0]
 80010ea:	685b      	ldr	r3, [r3, #4]
 80010ec:	f403 3380 	and.w	r3, r3, #65536	@ 0x10000
 80010f0:	2b00      	cmp	r3, #0
 80010f2:	d003      	beq.n	80010fc <HAL_GPIO_Init+0x304>
        {
          temp |= iocurrent;
 80010f4:	693a      	ldr	r2, [r7, #16]
 80010f6:	68fb      	ldr	r3, [r7, #12]
 80010f8:	4313      	orrs	r3, r2
 80010fa:	613b      	str	r3, [r7, #16]
        }
        EXTI->IMR1 = temp;
 80010fc:	4a12      	ldr	r2, [pc, #72]	@ (8001148 <HAL_GPIO_Init+0x350>)
 80010fe:	693b      	ldr	r3, [r7, #16]
 8001100:	6013      	str	r3, [r2, #0]
      }
    }

    position++;
 8001102:	697b      	ldr	r3, [r7, #20]
 8001104:	3301      	adds	r3, #1
 8001106:	617b      	str	r3, [r7, #20]
  while (((GPIO_Init->Pin) >> position) != 0x00u)
 8001108:	683b      	ldr	r3, [r7, #0]
 800110a:	681a      	ldr	r2, [r3, #0]
 800110c:	697b      	ldr	r3, [r7, #20]
 800110e:	fa22 f303 	lsr.w	r3, r2, r3
 8001112:	2b00      	cmp	r3, #0
 8001114:	f47f ae78 	bne.w	8000e08 <HAL_GPIO_Init+0x10>
  }
}
 8001118:	bf00      	nop
 800111a:	bf00      	nop
 800111c:	371c      	adds	r7, #28
 800111e:	46bd      	mov	sp, r7
 8001120:	f85d 7b04 	ldr.w	r7, [sp], #4
 8001124:	4770      	bx	lr
 8001126:	bf00      	nop
 8001128:	40021000 	.word	0x40021000
 800112c:	40010000 	.word	0x40010000
 8001130:	48000400 	.word	0x48000400
 8001134:	48000800 	.word	0x48000800
 8001138:	48000c00 	.word	0x48000c00
 800113c:	48001000 	.word	0x48001000
 8001140:	48001400 	.word	0x48001400
 8001144:	48001800 	.word	0x48001800
 8001148:	40010400 	.word	0x40010400

0800114c <HAL_GPIO_WritePin>:
  *            @arg GPIO_PIN_RESET: to clear the port pin
  *            @arg GPIO_PIN_SET: to set the port pin
  * @retval None
  */
void HAL_GPIO_WritePin(GPIO_TypeDef* GPIOx, uint16_t GPIO_Pin, GPIO_PinState PinState)
{
 800114c:	b480      	push	{r7}
 800114e:	b083      	sub	sp, #12
 8001150:	af00      	add	r7, sp, #0
 8001152:	6078      	str	r0, [r7, #4]
 8001154:	460b      	mov	r3, r1
 8001156:	807b      	strh	r3, [r7, #2]
 8001158:	4613      	mov	r3, r2
 800115a:	707b      	strb	r3, [r7, #1]
  /* Check the parameters */
  assert_param(IS_GPIO_PIN(GPIO_Pin));
  assert_param(IS_GPIO_PIN_ACTION(PinState));

  if(PinState != GPIO_PIN_RESET)
 800115c:	787b      	ldrb	r3, [r7, #1]
 800115e:	2b00      	cmp	r3, #0
 8001160:	d003      	beq.n	800116a <HAL_GPIO_WritePin+0x1e>
  {
    GPIOx->BSRR = (uint32_t)GPIO_Pin;
 8001162:	887a      	ldrh	r2, [r7, #2]
 8001164:	687b      	ldr	r3, [r7, #4]
 8001166:	619a      	str	r2, [r3, #24]
  }
  else
  {
    GPIOx->BRR = (uint32_t)GPIO_Pin;
  }
}
 8001168:	e002      	b.n	8001170 <HAL_GPIO_WritePin+0x24>
    GPIOx->BRR = (uint32_t)GPIO_Pin;
 800116a:	887a      	ldrh	r2, [r7, #2]
 800116c:	687b      	ldr	r3, [r7, #4]
 800116e:	629a      	str	r2, [r3, #40]	@ 0x28
}
 8001170:	bf00      	nop
 8001172:	370c      	adds	r7, #12
 8001174:	46bd      	mov	sp, r7
 8001176:	f85d 7b04 	ldr.w	r7, [sp], #4
 800117a:	4770      	bx	lr

0800117c <HAL_GPIO_TogglePin>:
  * @param  GPIOx where x can be (A..H) to select the GPIO peripheral for STM32L4 family
  * @param  GPIO_Pin specifies the pin to be toggled.
  * @retval None
  */
void HAL_GPIO_TogglePin(GPIO_TypeDef* GPIOx, uint16_t GPIO_Pin)
{
 800117c:	b480      	push	{r7}
 800117e:	b085      	sub	sp, #20
 8001180:	af00      	add	r7, sp, #0
 8001182:	6078      	str	r0, [r7, #4]
 8001184:	460b      	mov	r3, r1
 8001186:	807b      	strh	r3, [r7, #2]

  /* Check the parameters */
  assert_param(IS_GPIO_PIN(GPIO_Pin));

  /* get current Output Data Register value */
  odr = GPIOx->ODR;
 8001188:	687b      	ldr	r3, [r7, #4]
 800118a:	695b      	ldr	r3, [r3, #20]
 800118c:	60fb      	str	r3, [r7, #12]

  /* Set selected pins that were at low level, and reset ones that were high */
  GPIOx->BSRR = ((odr & GPIO_Pin) << GPIO_NUMBER) | (~odr & GPIO_Pin);
 800118e:	887a      	ldrh	r2, [r7, #2]
 8001190:	68fb      	ldr	r3, [r7, #12]
 8001192:	4013      	ands	r3, r2
 8001194:	041a      	lsls	r2, r3, #16
 8001196:	68fb      	ldr	r3, [r7, #12]
 8001198:	43d9      	mvns	r1, r3
 800119a:	887b      	ldrh	r3, [r7, #2]
 800119c:	400b      	ands	r3, r1
 800119e:	431a      	orrs	r2, r3
 80011a0:	687b      	ldr	r3, [r7, #4]
 80011a2:	619a      	str	r2, [r3, #24]
}
 80011a4:	bf00      	nop
 80011a6:	3714      	adds	r7, #20
 80011a8:	46bd      	mov	sp, r7
 80011aa:	f85d 7b04 	ldr.w	r7, [sp], #4
 80011ae:	4770      	bx	lr

080011b0 <HAL_PWREx_GetVoltageRange>:
  * @brief Return Voltage Scaling Range.
  * @retval VOS bit field (PWR_REGULATOR_VOLTAGE_SCALE1 or PWR_REGULATOR_VOLTAGE_SCALE2
  *         or PWR_REGULATOR_VOLTAGE_SCALE1_BOOST when applicable)
  */
uint32_t HAL_PWREx_GetVoltageRange(void)
{
 80011b0:	b480      	push	{r7}
 80011b2:	af00      	add	r7, sp, #0
    else
    {
      return PWR_REGULATOR_VOLTAGE_SCALE1_BOOST;
    }
#else
  return  (PWR->CR1 & PWR_CR1_VOS);
 80011b4:	4b04      	ldr	r3, [pc, #16]	@ (80011c8 <HAL_PWREx_GetVoltageRange+0x18>)
 80011b6:	681b      	ldr	r3, [r3, #0]
 80011b8:	f403 63c0 	and.w	r3, r3, #1536	@ 0x600
#endif
}
 80011bc:	4618      	mov	r0, r3
 80011be:	46bd      	mov	sp, r7
 80011c0:	f85d 7b04 	ldr.w	r7, [sp], #4
 80011c4:	4770      	bx	lr
 80011c6:	bf00      	nop
 80011c8:	40007000 	.word	0x40007000

080011cc <HAL_PWREx_ControlVoltageScaling>:
  *        cleared before returning the status. If the flag is not cleared within
  *        50 microseconds, HAL_TIMEOUT status is reported.
  * @retval HAL Status
  */
HAL_StatusTypeDef HAL_PWREx_ControlVoltageScaling(uint32_t VoltageScaling)
{
 80011cc:	b480      	push	{r7}
 80011ce:	b085      	sub	sp, #20
 80011d0:	af00      	add	r7, sp, #0
 80011d2:	6078      	str	r0, [r7, #4]
  }

#else

  /* If Set Range 1 */
  if (VoltageScaling == PWR_REGULATOR_VOLTAGE_SCALE1)
 80011d4:	687b      	ldr	r3, [r7, #4]
 80011d6:	f5b3 7f00 	cmp.w	r3, #512	@ 0x200
 80011da:	d130      	bne.n	800123e <HAL_PWREx_ControlVoltageScaling+0x72>
  {
    if (READ_BIT(PWR->CR1, PWR_CR1_VOS) != PWR_REGULATOR_VOLTAGE_SCALE1)
 80011dc:	4b23      	ldr	r3, [pc, #140]	@ (800126c <HAL_PWREx_ControlVoltageScaling+0xa0>)
 80011de:	681b      	ldr	r3, [r3, #0]
 80011e0:	f403 63c0 	and.w	r3, r3, #1536	@ 0x600
 80011e4:	f5b3 7f00 	cmp.w	r3, #512	@ 0x200
 80011e8:	d038      	beq.n	800125c <HAL_PWREx_ControlVoltageScaling+0x90>
    {
      /* Set Range 1 */
      MODIFY_REG(PWR->CR1, PWR_CR1_VOS, PWR_REGULATOR_VOLTAGE_SCALE1);
 80011ea:	4b20      	ldr	r3, [pc, #128]	@ (800126c <HAL_PWREx_ControlVoltageScaling+0xa0>)
 80011ec:	681b      	ldr	r3, [r3, #0]
 80011ee:	f423 63c0 	bic.w	r3, r3, #1536	@ 0x600
 80011f2:	4a1e      	ldr	r2, [pc, #120]	@ (800126c <HAL_PWREx_ControlVoltageScaling+0xa0>)
 80011f4:	f443 7300 	orr.w	r3, r3, #512	@ 0x200
 80011f8:	6013      	str	r3, [r2, #0]

      /* Wait until VOSF is cleared */
      wait_loop_index = ((PWR_FLAG_SETTING_DELAY_US * SystemCoreClock) / 1000000U) + 1U;
 80011fa:	4b1d      	ldr	r3, [pc, #116]	@ (8001270 <HAL_PWREx_ControlVoltageScaling+0xa4>)
 80011fc:	681b      	ldr	r3, [r3, #0]
 80011fe:	2232      	movs	r2, #50	@ 0x32
 8001200:	fb02 f303 	mul.w	r3, r2, r3
 8001204:	4a1b      	ldr	r2, [pc, #108]	@ (8001274 <HAL_PWREx_ControlVoltageScaling+0xa8>)
 8001206:	fba2 2303 	umull	r2, r3, r2, r3
 800120a:	0c9b      	lsrs	r3, r3, #18
 800120c:	3301      	adds	r3, #1
 800120e:	60fb      	str	r3, [r7, #12]
      while ((HAL_IS_BIT_SET(PWR->SR2, PWR_SR2_VOSF)) && (wait_loop_index != 0U))
 8001210:	e002      	b.n	8001218 <HAL_PWREx_ControlVoltageScaling+0x4c>
      {
        wait_loop_index--;
 8001212:	68fb      	ldr	r3, [r7, #12]
 8001214:	3b01      	subs	r3, #1
 8001216:	60fb      	str	r3, [r7, #12]
      while ((HAL_IS_BIT_SET(PWR->SR2, PWR_SR2_VOSF)) && (wait_loop_index != 0U))
 8001218:	4b14      	ldr	r3, [pc, #80]	@ (800126c <HAL_PWREx_ControlVoltageScaling+0xa0>)
 800121a:	695b      	ldr	r3, [r3, #20]
 800121c:	f403 6380 	and.w	r3, r3, #1024	@ 0x400
 8001220:	f5b3 6f80 	cmp.w	r3, #1024	@ 0x400
 8001224:	d102      	bne.n	800122c <HAL_PWREx_ControlVoltageScaling+0x60>
 8001226:	68fb      	ldr	r3, [r7, #12]
 8001228:	2b00      	cmp	r3, #0
 800122a:	d1f2      	bne.n	8001212 <HAL_PWREx_ControlVoltageScaling+0x46>
      }
      if (HAL_IS_BIT_SET(PWR->SR2, PWR_SR2_VOSF))
 800122c:	4b0f      	ldr	r3, [pc, #60]	@ (800126c <HAL_PWREx_ControlVoltageScaling+0xa0>)
 800122e:	695b      	ldr	r3, [r3, #20]
 8001230:	f403 6380 	and.w	r3, r3, #1024	@ 0x400
 8001234:	f5b3 6f80 	cmp.w	r3, #1024	@ 0x400
 8001238:	d110      	bne.n	800125c <HAL_PWREx_ControlVoltageScaling+0x90>
      {
        return HAL_TIMEOUT;
 800123a:	2303      	movs	r3, #3
 800123c:	e00f      	b.n	800125e <HAL_PWREx_ControlVoltageScaling+0x92>
      }
    }
  }
  else
  {
    if (READ_BIT(PWR->CR1, PWR_CR1_VOS) != PWR_REGULATOR_VOLTAGE_SCALE2)
 800123e:	4b0b      	ldr	r3, [pc, #44]	@ (800126c <HAL_PWREx_ControlVoltageScaling+0xa0>)
 8001240:	681b      	ldr	r3, [r3, #0]
 8001242:	f403 63c0 	and.w	r3, r3, #1536	@ 0x600
 8001246:	f5b3 6f80 	cmp.w	r3, #1024	@ 0x400
 800124a:	d007      	beq.n	800125c <HAL_PWREx_ControlVoltageScaling+0x90>
    {
      /* Set Range 2 */
      MODIFY_REG(PWR->CR1, PWR_CR1_VOS, PWR_REGULATOR_VOLTAGE_SCALE2);
 800124c:	4b07      	ldr	r3, [pc, #28]	@ (800126c <HAL_PWREx_ControlVoltageScaling+0xa0>)
 800124e:	681b      	ldr	r3, [r3, #0]
 8001250:	f423 63c0 	bic.w	r3, r3, #1536	@ 0x600
 8001254:	4a05      	ldr	r2, [pc, #20]	@ (800126c <HAL_PWREx_ControlVoltageScaling+0xa0>)
 8001256:	f443 6380 	orr.w	r3, r3, #1024	@ 0x400
 800125a:	6013      	str	r3, [r2, #0]
      /* No need to wait for VOSF to be cleared for this transition */
    }
  }
#endif

  return HAL_OK;
 800125c:	2300      	movs	r3, #0
}
 800125e:	4618      	mov	r0, r3
 8001260:	3714      	adds	r7, #20
 8001262:	46bd      	mov	sp, r7
 8001264:	f85d 7b04 	ldr.w	r7, [sp], #4
 8001268:	4770      	bx	lr
 800126a:	bf00      	nop
 800126c:	40007000 	.word	0x40007000
 8001270:	20000000 	.word	0x20000000
 8001274:	431bde83 	.word	0x431bde83

08001278 <HAL_RCC_OscConfig>:
  * @note   If HSE failed to start, HSE should be disabled before recalling
            HAL_RCC_OscConfig().
  * @retval HAL status
  */
HAL_StatusTypeDef HAL_RCC_OscConfig(RCC_OscInitTypeDef  *RCC_OscInitStruct)
{
 8001278:	b580      	push	{r7, lr}
 800127a:	b088      	sub	sp, #32
 800127c:	af00      	add	r7, sp, #0
 800127e:	6078      	str	r0, [r7, #4]
  uint32_t tickstart;
  HAL_StatusTypeDef status;
  uint32_t sysclk_source, pll_config;

  /* Check Null pointer */
  if(RCC_OscInitStruct == NULL)
 8001280:	687b      	ldr	r3, [r7, #4]
 8001282:	2b00      	cmp	r3, #0
 8001284:	d101      	bne.n	800128a <HAL_RCC_OscConfig+0x12>
  {
    return HAL_ERROR;
 8001286:	2301      	movs	r3, #1
 8001288:	e3ca      	b.n	8001a20 <HAL_RCC_OscConfig+0x7a8>
  }

  /* Check the parameters */
  assert_param(IS_RCC_OSCILLATORTYPE(RCC_OscInitStruct->OscillatorType));

  sysclk_source = __HAL_RCC_GET_SYSCLK_SOURCE();
 800128a:	4b97      	ldr	r3, [pc, #604]	@ (80014e8 <HAL_RCC_OscConfig+0x270>)
 800128c:	689b      	ldr	r3, [r3, #8]
 800128e:	f003 030c 	and.w	r3, r3, #12
 8001292:	61bb      	str	r3, [r7, #24]
  pll_config = __HAL_RCC_GET_PLL_OSCSOURCE();
 8001294:	4b94      	ldr	r3, [pc, #592]	@ (80014e8 <HAL_RCC_OscConfig+0x270>)
 8001296:	68db      	ldr	r3, [r3, #12]
 8001298:	f003 0303 	and.w	r3, r3, #3
 800129c:	617b      	str	r3, [r7, #20]

  /*----------------------------- MSI Configuration --------------------------*/
  if(((RCC_OscInitStruct->OscillatorType) & RCC_OSCILLATORTYPE_MSI) == RCC_OSCILLATORTYPE_MSI)
 800129e:	687b      	ldr	r3, [r7, #4]
 80012a0:	681b      	ldr	r3, [r3, #0]
 80012a2:	f003 0310 	and.w	r3, r3, #16
 80012a6:	2b00      	cmp	r3, #0
 80012a8:	f000 80e4 	beq.w	8001474 <HAL_RCC_OscConfig+0x1fc>
    assert_param(IS_RCC_MSI(RCC_OscInitStruct->MSIState));
    assert_param(IS_RCC_MSICALIBRATION_VALUE(RCC_OscInitStruct->MSICalibrationValue));
    assert_param(IS_RCC_MSI_CLOCK_RANGE(RCC_OscInitStruct->MSIClockRange));

    /* Check if MSI is used as system clock or as PLL source when PLL is selected as system clock */
    if((sysclk_source == RCC_CFGR_SWS_MSI) ||
 80012ac:	69bb      	ldr	r3, [r7, #24]
 80012ae:	2b00      	cmp	r3, #0
 80012b0:	d007      	beq.n	80012c2 <HAL_RCC_OscConfig+0x4a>
 80012b2:	69bb      	ldr	r3, [r7, #24]
 80012b4:	2b0c      	cmp	r3, #12
 80012b6:	f040 808b 	bne.w	80013d0 <HAL_RCC_OscConfig+0x158>
       ((sysclk_source == RCC_CFGR_SWS_PLL) && (pll_config == RCC_PLLSOURCE_MSI)))
 80012ba:	697b      	ldr	r3, [r7, #20]
 80012bc:	2b01      	cmp	r3, #1
 80012be:	f040 8087 	bne.w	80013d0 <HAL_RCC_OscConfig+0x158>
    {
      if((READ_BIT(RCC->CR, RCC_CR_MSIRDY) != 0U) && (RCC_OscInitStruct->MSIState == RCC_MSI_OFF))
 80012c2:	4b89      	ldr	r3, [pc, #548]	@ (80014e8 <HAL_RCC_OscConfig+0x270>)
 80012c4:	681b      	ldr	r3, [r3, #0]
 80012c6:	f003 0302 	and.w	r3, r3, #2
 80012ca:	2b00      	cmp	r3, #0
 80012cc:	d005      	beq.n	80012da <HAL_RCC_OscConfig+0x62>
 80012ce:	687b      	ldr	r3, [r7, #4]
 80012d0:	699b      	ldr	r3, [r3, #24]
 80012d2:	2b00      	cmp	r3, #0
 80012d4:	d101      	bne.n	80012da <HAL_RCC_OscConfig+0x62>
      {
        return HAL_ERROR;
 80012d6:	2301      	movs	r3, #1
 80012d8:	e3a2      	b.n	8001a20 <HAL_RCC_OscConfig+0x7a8>
      else
      {
        /* To correctly read data from FLASH memory, the number of wait states (LATENCY)
           must be correctly programmed according to the frequency of the CPU clock
           (HCLK) and the supply voltage of the device. */
        if(RCC_OscInitStruct->MSIClockRange > __HAL_RCC_GET_MSI_RANGE())
 80012da:	687b      	ldr	r3, [r7, #4]
 80012dc:	6a1a      	ldr	r2, [r3, #32]
 80012de:	4b82      	ldr	r3, [pc, #520]	@ (80014e8 <HAL_RCC_OscConfig+0x270>)
 80012e0:	681b      	ldr	r3, [r3, #0]
 80012e2:	f003 0308 	and.w	r3, r3, #8
 80012e6:	2b00      	cmp	r3, #0
 80012e8:	d004      	beq.n	80012f4 <HAL_RCC_OscConfig+0x7c>
 80012ea:	4b7f      	ldr	r3, [pc, #508]	@ (80014e8 <HAL_RCC_OscConfig+0x270>)
 80012ec:	681b      	ldr	r3, [r3, #0]
 80012ee:	f003 03f0 	and.w	r3, r3, #240	@ 0xf0
 80012f2:	e005      	b.n	8001300 <HAL_RCC_OscConfig+0x88>
 80012f4:	4b7c      	ldr	r3, [pc, #496]	@ (80014e8 <HAL_RCC_OscConfig+0x270>)
 80012f6:	f8d3 3094 	ldr.w	r3, [r3, #148]	@ 0x94
 80012fa:	091b      	lsrs	r3, r3, #4
 80012fc:	f003 03f0 	and.w	r3, r3, #240	@ 0xf0
 8001300:	4293      	cmp	r3, r2
 8001302:	d223      	bcs.n	800134c <HAL_RCC_OscConfig+0xd4>
        {
          /* First increase number of wait states update if necessary */
          if(RCC_SetFlashLatencyFromMSIRange(RCC_OscInitStruct->MSIClockRange) != HAL_OK)
 8001304:	687b      	ldr	r3, [r7, #4]
 8001306:	6a1b      	ldr	r3, [r3, #32]
 8001308:	4618      	mov	r0, r3
 800130a:	f000 fd55 	bl	8001db8 <RCC_SetFlashLatencyFromMSIRange>
 800130e:	4603      	mov	r3, r0
 8001310:	2b00      	cmp	r3, #0
 8001312:	d001      	beq.n	8001318 <HAL_RCC_OscConfig+0xa0>
          {
            return HAL_ERROR;
 8001314:	2301      	movs	r3, #1
 8001316:	e383      	b.n	8001a20 <HAL_RCC_OscConfig+0x7a8>
          }

          /* Selects the Multiple Speed oscillator (MSI) clock range .*/
          __HAL_RCC_MSI_RANGE_CONFIG(RCC_OscInitStruct->MSIClockRange);
 8001318:	4b73      	ldr	r3, [pc, #460]	@ (80014e8 <HAL_RCC_OscConfig+0x270>)
 800131a:	681b      	ldr	r3, [r3, #0]
 800131c:	4a72      	ldr	r2, [pc, #456]	@ (80014e8 <HAL_RCC_OscConfig+0x270>)
 800131e:	f043 0308 	orr.w	r3, r3, #8
 8001322:	6013      	str	r3, [r2, #0]
 8001324:	4b70      	ldr	r3, [pc, #448]	@ (80014e8 <HAL_RCC_OscConfig+0x270>)
 8001326:	681b      	ldr	r3, [r3, #0]
 8001328:	f023 02f0 	bic.w	r2, r3, #240	@ 0xf0
 800132c:	687b      	ldr	r3, [r7, #4]
 800132e:	6a1b      	ldr	r3, [r3, #32]
 8001330:	496d      	ldr	r1, [pc, #436]	@ (80014e8 <HAL_RCC_OscConfig+0x270>)
 8001332:	4313      	orrs	r3, r2
 8001334:	600b      	str	r3, [r1, #0]
          /* Adjusts the Multiple Speed oscillator (MSI) calibration value.*/
          __HAL_RCC_MSI_CALIBRATIONVALUE_ADJUST(RCC_OscInitStruct->MSICalibrationValue);
 8001336:	4b6c      	ldr	r3, [pc, #432]	@ (80014e8 <HAL_RCC_OscConfig+0x270>)
 8001338:	685b      	ldr	r3, [r3, #4]
 800133a:	f423 427f 	bic.w	r2, r3, #65280	@ 0xff00
 800133e:	687b      	ldr	r3, [r7, #4]
 8001340:	69db      	ldr	r3, [r3, #28]
 8001342:	021b      	lsls	r3, r3, #8
 8001344:	4968      	ldr	r1, [pc, #416]	@ (80014e8 <HAL_RCC_OscConfig+0x270>)
 8001346:	4313      	orrs	r3, r2
 8001348:	604b      	str	r3, [r1, #4]
 800134a:	e025      	b.n	8001398 <HAL_RCC_OscConfig+0x120>
        }
        else
        {
          /* Else, keep current flash latency while decreasing applies */
          /* Selects the Multiple Speed oscillator (MSI) clock range .*/
          __HAL_RCC_MSI_RANGE_CONFIG(RCC_OscInitStruct->MSIClockRange);
 800134c:	4b66      	ldr	r3, [pc, #408]	@ (80014e8 <HAL_RCC_OscConfig+0x270>)
 800134e:	681b      	ldr	r3, [r3, #0]
 8001350:	4a65      	ldr	r2, [pc, #404]	@ (80014e8 <HAL_RCC_OscConfig+0x270>)
 8001352:	f043 0308 	orr.w	r3, r3, #8
 8001356:	6013      	str	r3, [r2, #0]
 8001358:	4b63      	ldr	r3, [pc, #396]	@ (80014e8 <HAL_RCC_OscConfig+0x270>)
 800135a:	681b      	ldr	r3, [r3, #0]
 800135c:	f023 02f0 	bic.w	r2, r3, #240	@ 0xf0
 8001360:	687b      	ldr	r3, [r7, #4]
 8001362:	6a1b      	ldr	r3, [r3, #32]
 8001364:	4960      	ldr	r1, [pc, #384]	@ (80014e8 <HAL_RCC_OscConfig+0x270>)
 8001366:	4313      	orrs	r3, r2
 8001368:	600b      	str	r3, [r1, #0]
          /* Adjusts the Multiple Speed oscillator (MSI) calibration value.*/
          __HAL_RCC_MSI_CALIBRATIONVALUE_ADJUST(RCC_OscInitStruct->MSICalibrationValue);
 800136a:	4b5f      	ldr	r3, [pc, #380]	@ (80014e8 <HAL_RCC_OscConfig+0x270>)
 800136c:	685b      	ldr	r3, [r3, #4]
 800136e:	f423 427f 	bic.w	r2, r3, #65280	@ 0xff00
 8001372:	687b      	ldr	r3, [r7, #4]
 8001374:	69db      	ldr	r3, [r3, #28]
 8001376:	021b      	lsls	r3, r3, #8
 8001378:	495b      	ldr	r1, [pc, #364]	@ (80014e8 <HAL_RCC_OscConfig+0x270>)
 800137a:	4313      	orrs	r3, r2
 800137c:	604b      	str	r3, [r1, #4]

          /* Decrease number of wait states update if necessary */
          /* Only possible when MSI is the System clock source  */
          if(sysclk_source == RCC_CFGR_SWS_MSI)
 800137e:	69bb      	ldr	r3, [r7, #24]
 8001380:	2b00      	cmp	r3, #0
 8001382:	d109      	bne.n	8001398 <HAL_RCC_OscConfig+0x120>
          {
            if(RCC_SetFlashLatencyFromMSIRange(RCC_OscInitStruct->MSIClockRange) != HAL_OK)
 8001384:	687b      	ldr	r3, [r7, #4]
 8001386:	6a1b      	ldr	r3, [r3, #32]
 8001388:	4618      	mov	r0, r3
 800138a:	f000 fd15 	bl	8001db8 <RCC_SetFlashLatencyFromMSIRange>
 800138e:	4603      	mov	r3, r0
 8001390:	2b00      	cmp	r3, #0
 8001392:	d001      	beq.n	8001398 <HAL_RCC_OscConfig+0x120>
            {
              return HAL_ERROR;
 8001394:	2301      	movs	r3, #1
 8001396:	e343      	b.n	8001a20 <HAL_RCC_OscConfig+0x7a8>
            }
          }
        }

        /* Update the SystemCoreClock global variable */
        SystemCoreClock = HAL_RCC_GetSysClockFreq() >> (AHBPrescTable[READ_BIT(RCC->CFGR, RCC_CFGR_HPRE) >> RCC_CFGR_HPRE_Pos] & 0x1FU);
 8001398:	f000 fc4a 	bl	8001c30 <HAL_RCC_GetSysClockFreq>
 800139c:	4602      	mov	r2, r0
 800139e:	4b52      	ldr	r3, [pc, #328]	@ (80014e8 <HAL_RCC_OscConfig+0x270>)
 80013a0:	689b      	ldr	r3, [r3, #8]
 80013a2:	091b      	lsrs	r3, r3, #4
 80013a4:	f003 030f 	and.w	r3, r3, #15
 80013a8:	4950      	ldr	r1, [pc, #320]	@ (80014ec <HAL_RCC_OscConfig+0x274>)
 80013aa:	5ccb      	ldrb	r3, [r1, r3]
 80013ac:	f003 031f 	and.w	r3, r3, #31
 80013b0:	fa22 f303 	lsr.w	r3, r2, r3
 80013b4:	4a4e      	ldr	r2, [pc, #312]	@ (80014f0 <HAL_RCC_OscConfig+0x278>)
 80013b6:	6013      	str	r3, [r2, #0]

        /* Configure the source of time base considering new system clocks settings*/
        status = HAL_InitTick(uwTickPrio);
 80013b8:	4b4e      	ldr	r3, [pc, #312]	@ (80014f4 <HAL_RCC_OscConfig+0x27c>)
 80013ba:	681b      	ldr	r3, [r3, #0]
 80013bc:	4618      	mov	r0, r3
 80013be:	f7ff fbd9 	bl	8000b74 <HAL_InitTick>
 80013c2:	4603      	mov	r3, r0
 80013c4:	73fb      	strb	r3, [r7, #15]
        if(status != HAL_OK)
 80013c6:	7bfb      	ldrb	r3, [r7, #15]
 80013c8:	2b00      	cmp	r3, #0
 80013ca:	d052      	beq.n	8001472 <HAL_RCC_OscConfig+0x1fa>
        {
          return status;
 80013cc:	7bfb      	ldrb	r3, [r7, #15]
 80013ce:	e327      	b.n	8001a20 <HAL_RCC_OscConfig+0x7a8>
      }
    }
    else
    {
      /* Check the MSI State */
      if(RCC_OscInitStruct->MSIState != RCC_MSI_OFF)
 80013d0:	687b      	ldr	r3, [r7, #4]
 80013d2:	699b      	ldr	r3, [r3, #24]
 80013d4:	2b00      	cmp	r3, #0
 80013d6:	d032      	beq.n	800143e <HAL_RCC_OscConfig+0x1c6>
      {
        /* Enable the Internal High Speed oscillator (MSI). */
        __HAL_RCC_MSI_ENABLE();
 80013d8:	4b43      	ldr	r3, [pc, #268]	@ (80014e8 <HAL_RCC_OscConfig+0x270>)
 80013da:	681b      	ldr	r3, [r3, #0]
 80013dc:	4a42      	ldr	r2, [pc, #264]	@ (80014e8 <HAL_RCC_OscConfig+0x270>)
 80013de:	f043 0301 	orr.w	r3, r3, #1
 80013e2:	6013      	str	r3, [r2, #0]

        /* Get timeout */
        tickstart = HAL_GetTick();
 80013e4:	f7ff fc16 	bl	8000c14 <HAL_GetTick>
 80013e8:	6138      	str	r0, [r7, #16]

        /* Wait till MSI is ready */
        while(READ_BIT(RCC->CR, RCC_CR_MSIRDY) == 0U)
 80013ea:	e008      	b.n	80013fe <HAL_RCC_OscConfig+0x186>
        {
          if((HAL_GetTick() - tickstart) > MSI_TIMEOUT_VALUE)
 80013ec:	f7ff fc12 	bl	8000c14 <HAL_GetTick>
 80013f0:	4602      	mov	r2, r0
 80013f2:	693b      	ldr	r3, [r7, #16]
 80013f4:	1ad3      	subs	r3, r2, r3
 80013f6:	2b02      	cmp	r3, #2
 80013f8:	d901      	bls.n	80013fe <HAL_RCC_OscConfig+0x186>
          {
            return HAL_TIMEOUT;
 80013fa:	2303      	movs	r3, #3
 80013fc:	e310      	b.n	8001a20 <HAL_RCC_OscConfig+0x7a8>
        while(READ_BIT(RCC->CR, RCC_CR_MSIRDY) == 0U)
 80013fe:	4b3a      	ldr	r3, [pc, #232]	@ (80014e8 <HAL_RCC_OscConfig+0x270>)
 8001400:	681b      	ldr	r3, [r3, #0]
 8001402:	f003 0302 	and.w	r3, r3, #2
 8001406:	2b00      	cmp	r3, #0
 8001408:	d0f0      	beq.n	80013ec <HAL_RCC_OscConfig+0x174>
          }
        }
         /* Selects the Multiple Speed oscillator (MSI) clock range .*/
        __HAL_RCC_MSI_RANGE_CONFIG(RCC_OscInitStruct->MSIClockRange);
 800140a:	4b37      	ldr	r3, [pc, #220]	@ (80014e8 <HAL_RCC_OscConfig+0x270>)
 800140c:	681b      	ldr	r3, [r3, #0]
 800140e:	4a36      	ldr	r2, [pc, #216]	@ (80014e8 <HAL_RCC_OscConfig+0x270>)
 8001410:	f043 0308 	orr.w	r3, r3, #8
 8001414:	6013      	str	r3, [r2, #0]
 8001416:	4b34      	ldr	r3, [pc, #208]	@ (80014e8 <HAL_RCC_OscConfig+0x270>)
 8001418:	681b      	ldr	r3, [r3, #0]
 800141a:	f023 02f0 	bic.w	r2, r3, #240	@ 0xf0
 800141e:	687b      	ldr	r3, [r7, #4]
 8001420:	6a1b      	ldr	r3, [r3, #32]
 8001422:	4931      	ldr	r1, [pc, #196]	@ (80014e8 <HAL_RCC_OscConfig+0x270>)
 8001424:	4313      	orrs	r3, r2
 8001426:	600b      	str	r3, [r1, #0]
         /* Adjusts the Multiple Speed oscillator (MSI) calibration value.*/
        __HAL_RCC_MSI_CALIBRATIONVALUE_ADJUST(RCC_OscInitStruct->MSICalibrationValue);
 8001428:	4b2f      	ldr	r3, [pc, #188]	@ (80014e8 <HAL_RCC_OscConfig+0x270>)
 800142a:	685b      	ldr	r3, [r3, #4]
 800142c:	f423 427f 	bic.w	r2, r3, #65280	@ 0xff00
 8001430:	687b      	ldr	r3, [r7, #4]
 8001432:	69db      	ldr	r3, [r3, #28]
 8001434:	021b      	lsls	r3, r3, #8
 8001436:	492c      	ldr	r1, [pc, #176]	@ (80014e8 <HAL_RCC_OscConfig+0x270>)
 8001438:	4313      	orrs	r3, r2
 800143a:	604b      	str	r3, [r1, #4]
 800143c:	e01a      	b.n	8001474 <HAL_RCC_OscConfig+0x1fc>

      }
      else
      {
        /* Disable the Internal High Speed oscillator (MSI). */
        __HAL_RCC_MSI_DISABLE();
 800143e:	4b2a      	ldr	r3, [pc, #168]	@ (80014e8 <HAL_RCC_OscConfig+0x270>)
 8001440:	681b      	ldr	r3, [r3, #0]
 8001442:	4a29      	ldr	r2, [pc, #164]	@ (80014e8 <HAL_RCC_OscConfig+0x270>)
 8001444:	f023 0301 	bic.w	r3, r3, #1
 8001448:	6013      	str	r3, [r2, #0]

        /* Get timeout */
        tickstart = HAL_GetTick();
 800144a:	f7ff fbe3 	bl	8000c14 <HAL_GetTick>
 800144e:	6138      	str	r0, [r7, #16]

        /* Wait till MSI is ready */
        while(READ_BIT(RCC->CR, RCC_CR_MSIRDY) != 0U)
 8001450:	e008      	b.n	8001464 <HAL_RCC_OscConfig+0x1ec>
        {
          if((HAL_GetTick() - tickstart) > MSI_TIMEOUT_VALUE)
 8001452:	f7ff fbdf 	bl	8000c14 <HAL_GetTick>
 8001456:	4602      	mov	r2, r0
 8001458:	693b      	ldr	r3, [r7, #16]
 800145a:	1ad3      	subs	r3, r2, r3
 800145c:	2b02      	cmp	r3, #2
 800145e:	d901      	bls.n	8001464 <HAL_RCC_OscConfig+0x1ec>
          {
            return HAL_TIMEOUT;
 8001460:	2303      	movs	r3, #3
 8001462:	e2dd      	b.n	8001a20 <HAL_RCC_OscConfig+0x7a8>
        while(READ_BIT(RCC->CR, RCC_CR_MSIRDY) != 0U)
 8001464:	4b20      	ldr	r3, [pc, #128]	@ (80014e8 <HAL_RCC_OscConfig+0x270>)
 8001466:	681b      	ldr	r3, [r3, #0]
 8001468:	f003 0302 	and.w	r3, r3, #2
 800146c:	2b00      	cmp	r3, #0
 800146e:	d1f0      	bne.n	8001452 <HAL_RCC_OscConfig+0x1da>
 8001470:	e000      	b.n	8001474 <HAL_RCC_OscConfig+0x1fc>
      if((READ_BIT(RCC->CR, RCC_CR_MSIRDY) != 0U) && (RCC_OscInitStruct->MSIState == RCC_MSI_OFF))
 8001472:	bf00      	nop
        }
      }
    }
  }
  /*------------------------------- HSE Configuration ------------------------*/
  if(((RCC_OscInitStruct->OscillatorType) & RCC_OSCILLATORTYPE_HSE) == RCC_OSCILLATORTYPE_HSE)
 8001474:	687b      	ldr	r3, [r7, #4]
 8001476:	681b      	ldr	r3, [r3, #0]
 8001478:	f003 0301 	and.w	r3, r3, #1
 800147c:	2b00      	cmp	r3, #0
 800147e:	d074      	beq.n	800156a <HAL_RCC_OscConfig+0x2f2>
  {
    /* Check the parameters */
    assert_param(IS_RCC_HSE(RCC_OscInitStruct->HSEState));

    /* When the HSE is used as system clock or clock source for PLL in these cases it is not allowed to be disabled */
    if((sysclk_source == RCC_CFGR_SWS_HSE) ||
 8001480:	69bb      	ldr	r3, [r7, #24]
 8001482:	2b08      	cmp	r3, #8
 8001484:	d005      	beq.n	8001492 <HAL_RCC_OscConfig+0x21a>
 8001486:	69bb      	ldr	r3, [r7, #24]
 8001488:	2b0c      	cmp	r3, #12
 800148a:	d10e      	bne.n	80014aa <HAL_RCC_OscConfig+0x232>
       ((sysclk_source == RCC_CFGR_SWS_PLL) && (pll_config == RCC_PLLSOURCE_HSE)))
 800148c:	697b      	ldr	r3, [r7, #20]
 800148e:	2b03      	cmp	r3, #3
 8001490:	d10b      	bne.n	80014aa <HAL_RCC_OscConfig+0x232>
    {
      if((READ_BIT(RCC->CR, RCC_CR_HSERDY) != 0U) && (RCC_OscInitStruct->HSEState == RCC_HSE_OFF))
 8001492:	4b15      	ldr	r3, [pc, #84]	@ (80014e8 <HAL_RCC_OscConfig+0x270>)
 8001494:	681b      	ldr	r3, [r3, #0]
 8001496:	f403 3300 	and.w	r3, r3, #131072	@ 0x20000
 800149a:	2b00      	cmp	r3, #0
 800149c:	d064      	beq.n	8001568 <HAL_RCC_OscConfig+0x2f0>
 800149e:	687b      	ldr	r3, [r7, #4]
 80014a0:	685b      	ldr	r3, [r3, #4]
 80014a2:	2b00      	cmp	r3, #0
 80014a4:	d160      	bne.n	8001568 <HAL_RCC_OscConfig+0x2f0>
      {
        return HAL_ERROR;
 80014a6:	2301      	movs	r3, #1
 80014a8:	e2ba      	b.n	8001a20 <HAL_RCC_OscConfig+0x7a8>
      }
    }
    else
    {
      /* Set the new HSE configuration ---------------------------------------*/
      __HAL_RCC_HSE_CONFIG(RCC_OscInitStruct->HSEState);
 80014aa:	687b      	ldr	r3, [r7, #4]
 80014ac:	685b      	ldr	r3, [r3, #4]
 80014ae:	f5b3 3f80 	cmp.w	r3, #65536	@ 0x10000
 80014b2:	d106      	bne.n	80014c2 <HAL_RCC_OscConfig+0x24a>
 80014b4:	4b0c      	ldr	r3, [pc, #48]	@ (80014e8 <HAL_RCC_OscConfig+0x270>)
 80014b6:	681b      	ldr	r3, [r3, #0]
 80014b8:	4a0b      	ldr	r2, [pc, #44]	@ (80014e8 <HAL_RCC_OscConfig+0x270>)
 80014ba:	f443 3380 	orr.w	r3, r3, #65536	@ 0x10000
 80014be:	6013      	str	r3, [r2, #0]
 80014c0:	e026      	b.n	8001510 <HAL_RCC_OscConfig+0x298>
 80014c2:	687b      	ldr	r3, [r7, #4]
 80014c4:	685b      	ldr	r3, [r3, #4]
 80014c6:	f5b3 2fa0 	cmp.w	r3, #327680	@ 0x50000
 80014ca:	d115      	bne.n	80014f8 <HAL_RCC_OscConfig+0x280>
 80014cc:	4b06      	ldr	r3, [pc, #24]	@ (80014e8 <HAL_RCC_OscConfig+0x270>)
 80014ce:	681b      	ldr	r3, [r3, #0]
 80014d0:	4a05      	ldr	r2, [pc, #20]	@ (80014e8 <HAL_RCC_OscConfig+0x270>)
 80014d2:	f443 2380 	orr.w	r3, r3, #262144	@ 0x40000
 80014d6:	6013      	str	r3, [r2, #0]
 80014d8:	4b03      	ldr	r3, [pc, #12]	@ (80014e8 <HAL_RCC_OscConfig+0x270>)
 80014da:	681b      	ldr	r3, [r3, #0]
 80014dc:	4a02      	ldr	r2, [pc, #8]	@ (80014e8 <HAL_RCC_OscConfig+0x270>)
 80014de:	f443 3380 	orr.w	r3, r3, #65536	@ 0x10000
 80014e2:	6013      	str	r3, [r2, #0]
 80014e4:	e014      	b.n	8001510 <HAL_RCC_OscConfig+0x298>
 80014e6:	bf00      	nop
 80014e8:	40021000 	.word	0x40021000
 80014ec:	08005218 	.word	0x08005218
 80014f0:	20000000 	.word	0x20000000
 80014f4:	20000004 	.word	0x20000004
 80014f8:	4ba0      	ldr	r3, [pc, #640]	@ (800177c <HAL_RCC_OscConfig+0x504>)
 80014fa:	681b      	ldr	r3, [r3, #0]
 80014fc:	4a9f      	ldr	r2, [pc, #636]	@ (800177c <HAL_RCC_OscConfig+0x504>)
 80014fe:	f423 3380 	bic.w	r3, r3, #65536	@ 0x10000
 8001502:	6013      	str	r3, [r2, #0]
 8001504:	4b9d      	ldr	r3, [pc, #628]	@ (800177c <HAL_RCC_OscConfig+0x504>)
 8001506:	681b      	ldr	r3, [r3, #0]
 8001508:	4a9c      	ldr	r2, [pc, #624]	@ (800177c <HAL_RCC_OscConfig+0x504>)
 800150a:	f423 2380 	bic.w	r3, r3, #262144	@ 0x40000
 800150e:	6013      	str	r3, [r2, #0]

      /* Check the HSE State */
      if(RCC_OscInitStruct->HSEState != RCC_HSE_OFF)
 8001510:	687b      	ldr	r3, [r7, #4]
 8001512:	685b      	ldr	r3, [r3, #4]
 8001514:	2b00      	cmp	r3, #0
 8001516:	d013      	beq.n	8001540 <HAL_RCC_OscConfig+0x2c8>
      {
        /* Get Start Tick*/
        tickstart = HAL_GetTick();
 8001518:	f7ff fb7c 	bl	8000c14 <HAL_GetTick>
 800151c:	6138      	str	r0, [r7, #16]

        /* Wait till HSE is ready */
        while(READ_BIT(RCC->CR, RCC_CR_HSERDY) == 0U)
 800151e:	e008      	b.n	8001532 <HAL_RCC_OscConfig+0x2ba>
        {
          if((HAL_GetTick() - tickstart) > HSE_TIMEOUT_VALUE)
 8001520:	f7ff fb78 	bl	8000c14 <HAL_GetTick>
 8001524:	4602      	mov	r2, r0
 8001526:	693b      	ldr	r3, [r7, #16]
 8001528:	1ad3      	subs	r3, r2, r3
 800152a:	2b64      	cmp	r3, #100	@ 0x64
 800152c:	d901      	bls.n	8001532 <HAL_RCC_OscConfig+0x2ba>
          {
            return HAL_TIMEOUT;
 800152e:	2303      	movs	r3, #3
 8001530:	e276      	b.n	8001a20 <HAL_RCC_OscConfig+0x7a8>
        while(READ_BIT(RCC->CR, RCC_CR_HSERDY) == 0U)
 8001532:	4b92      	ldr	r3, [pc, #584]	@ (800177c <HAL_RCC_OscConfig+0x504>)
 8001534:	681b      	ldr	r3, [r3, #0]
 8001536:	f403 3300 	and.w	r3, r3, #131072	@ 0x20000
 800153a:	2b00      	cmp	r3, #0
 800153c:	d0f0      	beq.n	8001520 <HAL_RCC_OscConfig+0x2a8>
 800153e:	e014      	b.n	800156a <HAL_RCC_OscConfig+0x2f2>
        }
      }
      else
      {
        /* Get Start Tick*/
        tickstart = HAL_GetTick();
 8001540:	f7ff fb68 	bl	8000c14 <HAL_GetTick>
 8001544:	6138      	str	r0, [r7, #16]

        /* Wait till HSE is disabled */
        while(READ_BIT(RCC->CR, RCC_CR_HSERDY) != 0U)
 8001546:	e008      	b.n	800155a <HAL_RCC_OscConfig+0x2e2>
        {
          if((HAL_GetTick() - tickstart) > HSE_TIMEOUT_VALUE)
 8001548:	f7ff fb64 	bl	8000c14 <HAL_GetTick>
 800154c:	4602      	mov	r2, r0
 800154e:	693b      	ldr	r3, [r7, #16]
 8001550:	1ad3      	subs	r3, r2, r3
 8001552:	2b64      	cmp	r3, #100	@ 0x64
 8001554:	d901      	bls.n	800155a <HAL_RCC_OscConfig+0x2e2>
          {
            return HAL_TIMEOUT;
 8001556:	2303      	movs	r3, #3
 8001558:	e262      	b.n	8001a20 <HAL_RCC_OscConfig+0x7a8>
        while(READ_BIT(RCC->CR, RCC_CR_HSERDY) != 0U)
 800155a:	4b88      	ldr	r3, [pc, #544]	@ (800177c <HAL_RCC_OscConfig+0x504>)
 800155c:	681b      	ldr	r3, [r3, #0]
 800155e:	f403 3300 	and.w	r3, r3, #131072	@ 0x20000
 8001562:	2b00      	cmp	r3, #0
 8001564:	d1f0      	bne.n	8001548 <HAL_RCC_OscConfig+0x2d0>
 8001566:	e000      	b.n	800156a <HAL_RCC_OscConfig+0x2f2>
      if((READ_BIT(RCC->CR, RCC_CR_HSERDY) != 0U) && (RCC_OscInitStruct->HSEState == RCC_HSE_OFF))
 8001568:	bf00      	nop
        }
      }
    }
  }
  /*----------------------------- HSI Configuration --------------------------*/
  if(((RCC_OscInitStruct->OscillatorType) & RCC_OSCILLATORTYPE_HSI) == RCC_OSCILLATORTYPE_HSI)
 800156a:	687b      	ldr	r3, [r7, #4]
 800156c:	681b      	ldr	r3, [r3, #0]
 800156e:	f003 0302 	and.w	r3, r3, #2
 8001572:	2b00      	cmp	r3, #0
 8001574:	d060      	beq.n	8001638 <HAL_RCC_OscConfig+0x3c0>
    /* Check the parameters */
    assert_param(IS_RCC_HSI(RCC_OscInitStruct->HSIState));
    assert_param(IS_RCC_HSI_CALIBRATION_VALUE(RCC_OscInitStruct->HSICalibrationValue));

    /* Check if HSI is used as system clock or as PLL source when PLL is selected as system clock */
    if((sysclk_source == RCC_CFGR_SWS_HSI) ||
 8001576:	69bb      	ldr	r3, [r7, #24]
 8001578:	2b04      	cmp	r3, #4
 800157a:	d005      	beq.n	8001588 <HAL_RCC_OscConfig+0x310>
 800157c:	69bb      	ldr	r3, [r7, #24]
 800157e:	2b0c      	cmp	r3, #12
 8001580:	d119      	bne.n	80015b6 <HAL_RCC_OscConfig+0x33e>
       ((sysclk_source == RCC_CFGR_SWS_PLL) && (pll_config == RCC_PLLSOURCE_HSI)))
 8001582:	697b      	ldr	r3, [r7, #20]
 8001584:	2b02      	cmp	r3, #2
 8001586:	d116      	bne.n	80015b6 <HAL_RCC_OscConfig+0x33e>
    {
      /* When HSI is used as system clock it will not be disabled */
      if((READ_BIT(RCC->CR, RCC_CR_HSIRDY) != 0U) && (RCC_OscInitStruct->HSIState == RCC_HSI_OFF))
 8001588:	4b7c      	ldr	r3, [pc, #496]	@ (800177c <HAL_RCC_OscConfig+0x504>)
 800158a:	681b      	ldr	r3, [r3, #0]
 800158c:	f403 6380 	and.w	r3, r3, #1024	@ 0x400
 8001590:	2b00      	cmp	r3, #0
 8001592:	d005      	beq.n	80015a0 <HAL_RCC_OscConfig+0x328>
 8001594:	687b      	ldr	r3, [r7, #4]
 8001596:	68db      	ldr	r3, [r3, #12]
 8001598:	2b00      	cmp	r3, #0
 800159a:	d101      	bne.n	80015a0 <HAL_RCC_OscConfig+0x328>
      {
        return HAL_ERROR;
 800159c:	2301      	movs	r3, #1
 800159e:	e23f      	b.n	8001a20 <HAL_RCC_OscConfig+0x7a8>
      }
      /* Otherwise, just the calibration is allowed */
      else
      {
        /* Adjusts the Internal High Speed oscillator (HSI) calibration value.*/
        __HAL_RCC_HSI_CALIBRATIONVALUE_ADJUST(RCC_OscInitStruct->HSICalibrationValue);
 80015a0:	4b76      	ldr	r3, [pc, #472]	@ (800177c <HAL_RCC_OscConfig+0x504>)
 80015a2:	685b      	ldr	r3, [r3, #4]
 80015a4:	f023 52f8 	bic.w	r2, r3, #520093696	@ 0x1f000000
 80015a8:	687b      	ldr	r3, [r7, #4]
 80015aa:	691b      	ldr	r3, [r3, #16]
 80015ac:	061b      	lsls	r3, r3, #24
 80015ae:	4973      	ldr	r1, [pc, #460]	@ (800177c <HAL_RCC_OscConfig+0x504>)
 80015b0:	4313      	orrs	r3, r2
 80015b2:	604b      	str	r3, [r1, #4]
      if((READ_BIT(RCC->CR, RCC_CR_HSIRDY) != 0U) && (RCC_OscInitStruct->HSIState == RCC_HSI_OFF))
 80015b4:	e040      	b.n	8001638 <HAL_RCC_OscConfig+0x3c0>
      }
    }
    else
    {
      /* Check the HSI State */
      if(RCC_OscInitStruct->HSIState != RCC_HSI_OFF)
 80015b6:	687b      	ldr	r3, [r7, #4]
 80015b8:	68db      	ldr	r3, [r3, #12]
 80015ba:	2b00      	cmp	r3, #0
 80015bc:	d023      	beq.n	8001606 <HAL_RCC_OscConfig+0x38e>
      {
        /* Enable the Internal High Speed oscillator (HSI). */
        __HAL_RCC_HSI_ENABLE();
 80015be:	4b6f      	ldr	r3, [pc, #444]	@ (800177c <HAL_RCC_OscConfig+0x504>)
 80015c0:	681b      	ldr	r3, [r3, #0]
 80015c2:	4a6e      	ldr	r2, [pc, #440]	@ (800177c <HAL_RCC_OscConfig+0x504>)
 80015c4:	f443 7380 	orr.w	r3, r3, #256	@ 0x100
 80015c8:	6013      	str	r3, [r2, #0]

        /* Get Start Tick*/
        tickstart = HAL_GetTick();
 80015ca:	f7ff fb23 	bl	8000c14 <HAL_GetTick>
 80015ce:	6138      	str	r0, [r7, #16]

        /* Wait till HSI is ready */
        while(READ_BIT(RCC->CR, RCC_CR_HSIRDY) == 0U)
 80015d0:	e008      	b.n	80015e4 <HAL_RCC_OscConfig+0x36c>
        {
          if((HAL_GetTick() - tickstart) > HSI_TIMEOUT_VALUE)
 80015d2:	f7ff fb1f 	bl	8000c14 <HAL_GetTick>
 80015d6:	4602      	mov	r2, r0
 80015d8:	693b      	ldr	r3, [r7, #16]
 80015da:	1ad3      	subs	r3, r2, r3
 80015dc:	2b02      	cmp	r3, #2
 80015de:	d901      	bls.n	80015e4 <HAL_RCC_OscConfig+0x36c>
          {
            return HAL_TIMEOUT;
 80015e0:	2303      	movs	r3, #3
 80015e2:	e21d      	b.n	8001a20 <HAL_RCC_OscConfig+0x7a8>
        while(READ_BIT(RCC->CR, RCC_CR_HSIRDY) == 0U)
 80015e4:	4b65      	ldr	r3, [pc, #404]	@ (800177c <HAL_RCC_OscConfig+0x504>)
 80015e6:	681b      	ldr	r3, [r3, #0]
 80015e8:	f403 6380 	and.w	r3, r3, #1024	@ 0x400
 80015ec:	2b00      	cmp	r3, #0
 80015ee:	d0f0      	beq.n	80015d2 <HAL_RCC_OscConfig+0x35a>
          }
        }

        /* Adjusts the Internal High Speed oscillator (HSI) calibration value.*/
        __HAL_RCC_HSI_CALIBRATIONVALUE_ADJUST(RCC_OscInitStruct->HSICalibrationValue);
 80015f0:	4b62      	ldr	r3, [pc, #392]	@ (800177c <HAL_RCC_OscConfig+0x504>)
 80015f2:	685b      	ldr	r3, [r3, #4]
 80015f4:	f023 52f8 	bic.w	r2, r3, #520093696	@ 0x1f000000
 80015f8:	687b      	ldr	r3, [r7, #4]
 80015fa:	691b      	ldr	r3, [r3, #16]
 80015fc:	061b      	lsls	r3, r3, #24
 80015fe:	495f      	ldr	r1, [pc, #380]	@ (800177c <HAL_RCC_OscConfig+0x504>)
 8001600:	4313      	orrs	r3, r2
 8001602:	604b      	str	r3, [r1, #4]
 8001604:	e018      	b.n	8001638 <HAL_RCC_OscConfig+0x3c0>
      }
      else
      {
        /* Disable the Internal High Speed oscillator (HSI). */
        __HAL_RCC_HSI_DISABLE();
 8001606:	4b5d      	ldr	r3, [pc, #372]	@ (800177c <HAL_RCC_OscConfig+0x504>)
 8001608:	681b      	ldr	r3, [r3, #0]
 800160a:	4a5c      	ldr	r2, [pc, #368]	@ (800177c <HAL_RCC_OscConfig+0x504>)
 800160c:	f423 7380 	bic.w	r3, r3, #256	@ 0x100
 8001610:	6013      	str	r3, [r2, #0]

        /* Get Start Tick*/
        tickstart = HAL_GetTick();
 8001612:	f7ff faff 	bl	8000c14 <HAL_GetTick>
 8001616:	6138      	str	r0, [r7, #16]

        /* Wait till HSI is disabled */
        while(READ_BIT(RCC->CR, RCC_CR_HSIRDY) != 0U)
 8001618:	e008      	b.n	800162c <HAL_RCC_OscConfig+0x3b4>
        {
          if((HAL_GetTick() - tickstart) > HSI_TIMEOUT_VALUE)
 800161a:	f7ff fafb 	bl	8000c14 <HAL_GetTick>
 800161e:	4602      	mov	r2, r0
 8001620:	693b      	ldr	r3, [r7, #16]
 8001622:	1ad3      	subs	r3, r2, r3
 8001624:	2b02      	cmp	r3, #2
 8001626:	d901      	bls.n	800162c <HAL_RCC_OscConfig+0x3b4>
          {
            return HAL_TIMEOUT;
 8001628:	2303      	movs	r3, #3
 800162a:	e1f9      	b.n	8001a20 <HAL_RCC_OscConfig+0x7a8>
        while(READ_BIT(RCC->CR, RCC_CR_HSIRDY) != 0U)
 800162c:	4b53      	ldr	r3, [pc, #332]	@ (800177c <HAL_RCC_OscConfig+0x504>)
 800162e:	681b      	ldr	r3, [r3, #0]
 8001630:	f403 6380 	and.w	r3, r3, #1024	@ 0x400
 8001634:	2b00      	cmp	r3, #0
 8001636:	d1f0      	bne.n	800161a <HAL_RCC_OscConfig+0x3a2>
        }
      }
    }
  }
  /*------------------------------ LSI Configuration -------------------------*/
  if(((RCC_OscInitStruct->OscillatorType) & RCC_OSCILLATORTYPE_LSI) == RCC_OSCILLATORTYPE_LSI)
 8001638:	687b      	ldr	r3, [r7, #4]
 800163a:	681b      	ldr	r3, [r3, #0]
 800163c:	f003 0308 	and.w	r3, r3, #8
 8001640:	2b00      	cmp	r3, #0
 8001642:	d03c      	beq.n	80016be <HAL_RCC_OscConfig+0x446>
  {
    /* Check the parameters */
    assert_param(IS_RCC_LSI(RCC_OscInitStruct->LSIState));

    /* Check the LSI State */
    if(RCC_OscInitStruct->LSIState != RCC_LSI_OFF)
 8001644:	687b      	ldr	r3, [r7, #4]
 8001646:	695b      	ldr	r3, [r3, #20]
 8001648:	2b00      	cmp	r3, #0
 800164a:	d01c      	beq.n	8001686 <HAL_RCC_OscConfig+0x40e>
        MODIFY_REG(RCC->CSR, RCC_CSR_LSIPREDIV, RCC_OscInitStruct->LSIDiv);
      }
#endif /* RCC_CSR_LSIPREDIV */

      /* Enable the Internal Low Speed oscillator (LSI). */
      __HAL_RCC_LSI_ENABLE();
 800164c:	4b4b      	ldr	r3, [pc, #300]	@ (800177c <HAL_RCC_OscConfig+0x504>)
 800164e:	f8d3 3094 	ldr.w	r3, [r3, #148]	@ 0x94
 8001652:	4a4a      	ldr	r2, [pc, #296]	@ (800177c <HAL_RCC_OscConfig+0x504>)
 8001654:	f043 0301 	orr.w	r3, r3, #1
 8001658:	f8c2 3094 	str.w	r3, [r2, #148]	@ 0x94

      /* Get Start Tick*/
      tickstart = HAL_GetTick();
 800165c:	f7ff fada 	bl	8000c14 <HAL_GetTick>
 8001660:	6138      	str	r0, [r7, #16]

      /* Wait till LSI is ready */
      while(READ_BIT(RCC->CSR, RCC_CSR_LSIRDY) == 0U)
 8001662:	e008      	b.n	8001676 <HAL_RCC_OscConfig+0x3fe>
      {
        if((HAL_GetTick() - tickstart) > LSI_TIMEOUT_VALUE)
 8001664:	f7ff fad6 	bl	8000c14 <HAL_GetTick>
 8001668:	4602      	mov	r2, r0
 800166a:	693b      	ldr	r3, [r7, #16]
 800166c:	1ad3      	subs	r3, r2, r3
 800166e:	2b02      	cmp	r3, #2
 8001670:	d901      	bls.n	8001676 <HAL_RCC_OscConfig+0x3fe>
        {
          return HAL_TIMEOUT;
 8001672:	2303      	movs	r3, #3
 8001674:	e1d4      	b.n	8001a20 <HAL_RCC_OscConfig+0x7a8>
      while(READ_BIT(RCC->CSR, RCC_CSR_LSIRDY) == 0U)
 8001676:	4b41      	ldr	r3, [pc, #260]	@ (800177c <HAL_RCC_OscConfig+0x504>)
 8001678:	f8d3 3094 	ldr.w	r3, [r3, #148]	@ 0x94
 800167c:	f003 0302 	and.w	r3, r3, #2
 8001680:	2b00      	cmp	r3, #0
 8001682:	d0ef      	beq.n	8001664 <HAL_RCC_OscConfig+0x3ec>
 8001684:	e01b      	b.n	80016be <HAL_RCC_OscConfig+0x446>
      }
    }
    else
    {
      /* Disable the Internal Low Speed oscillator (LSI). */
      __HAL_RCC_LSI_DISABLE();
 8001686:	4b3d      	ldr	r3, [pc, #244]	@ (800177c <HAL_RCC_OscConfig+0x504>)
 8001688:	f8d3 3094 	ldr.w	r3, [r3, #148]	@ 0x94
 800168c:	4a3b      	ldr	r2, [pc, #236]	@ (800177c <HAL_RCC_OscConfig+0x504>)
 800168e:	f023 0301 	bic.w	r3, r3, #1
 8001692:	f8c2 3094 	str.w	r3, [r2, #148]	@ 0x94

      /* Get Start Tick*/
      tickstart = HAL_GetTick();
 8001696:	f7ff fabd 	bl	8000c14 <HAL_GetTick>
 800169a:	6138      	str	r0, [r7, #16]

      /* Wait till LSI is disabled */
      while(READ_BIT(RCC->CSR, RCC_CSR_LSIRDY) != 0U)
 800169c:	e008      	b.n	80016b0 <HAL_RCC_OscConfig+0x438>
      {
        if((HAL_GetTick() - tickstart) > LSI_TIMEOUT_VALUE)
 800169e:	f7ff fab9 	bl	8000c14 <HAL_GetTick>
 80016a2:	4602      	mov	r2, r0
 80016a4:	693b      	ldr	r3, [r7, #16]
 80016a6:	1ad3      	subs	r3, r2, r3
 80016a8:	2b02      	cmp	r3, #2
 80016aa:	d901      	bls.n	80016b0 <HAL_RCC_OscConfig+0x438>
        {
          return HAL_TIMEOUT;
 80016ac:	2303      	movs	r3, #3
 80016ae:	e1b7      	b.n	8001a20 <HAL_RCC_OscConfig+0x7a8>
      while(READ_BIT(RCC->CSR, RCC_CSR_LSIRDY) != 0U)
 80016b0:	4b32      	ldr	r3, [pc, #200]	@ (800177c <HAL_RCC_OscConfig+0x504>)
 80016b2:	f8d3 3094 	ldr.w	r3, [r3, #148]	@ 0x94
 80016b6:	f003 0302 	and.w	r3, r3, #2
 80016ba:	2b00      	cmp	r3, #0
 80016bc:	d1ef      	bne.n	800169e <HAL_RCC_OscConfig+0x426>
        }
      }
    }
  }
  /*------------------------------ LSE Configuration -------------------------*/
  if(((RCC_OscInitStruct->OscillatorType) & RCC_OSCILLATORTYPE_LSE) == RCC_OSCILLATORTYPE_LSE)
 80016be:	687b      	ldr	r3, [r7, #4]
 80016c0:	681b      	ldr	r3, [r3, #0]
 80016c2:	f003 0304 	and.w	r3, r3, #4
 80016c6:	2b00      	cmp	r3, #0
 80016c8:	f000 80a6 	beq.w	8001818 <HAL_RCC_OscConfig+0x5a0>
  {
    FlagStatus       pwrclkchanged = RESET;
 80016cc:	2300      	movs	r3, #0
 80016ce:	77fb      	strb	r3, [r7, #31]
    /* Check the parameters */
    assert_param(IS_RCC_LSE(RCC_OscInitStruct->LSEState));

    /* Update LSE configuration in Backup Domain control register    */
    /* Requires to enable write access to Backup Domain of necessary */
    if(HAL_IS_BIT_CLR(RCC->APB1ENR1, RCC_APB1ENR1_PWREN))
 80016d0:	4b2a      	ldr	r3, [pc, #168]	@ (800177c <HAL_RCC_OscConfig+0x504>)
 80016d2:	6d9b      	ldr	r3, [r3, #88]	@ 0x58
 80016d4:	f003 5380 	and.w	r3, r3, #268435456	@ 0x10000000
 80016d8:	2b00      	cmp	r3, #0
 80016da:	d10d      	bne.n	80016f8 <HAL_RCC_OscConfig+0x480>
    {
      __HAL_RCC_PWR_CLK_ENABLE();
 80016dc:	4b27      	ldr	r3, [pc, #156]	@ (800177c <HAL_RCC_OscConfig+0x504>)
 80016de:	6d9b      	ldr	r3, [r3, #88]	@ 0x58
 80016e0:	4a26      	ldr	r2, [pc, #152]	@ (800177c <HAL_RCC_OscConfig+0x504>)
 80016e2:	f043 5380 	orr.w	r3, r3, #268435456	@ 0x10000000
 80016e6:	6593      	str	r3, [r2, #88]	@ 0x58
 80016e8:	4b24      	ldr	r3, [pc, #144]	@ (800177c <HAL_RCC_OscConfig+0x504>)
 80016ea:	6d9b      	ldr	r3, [r3, #88]	@ 0x58
 80016ec:	f003 5380 	and.w	r3, r3, #268435456	@ 0x10000000
 80016f0:	60bb      	str	r3, [r7, #8]
 80016f2:	68bb      	ldr	r3, [r7, #8]
      pwrclkchanged = SET;
 80016f4:	2301      	movs	r3, #1
 80016f6:	77fb      	strb	r3, [r7, #31]
    }

    if(HAL_IS_BIT_CLR(PWR->CR1, PWR_CR1_DBP))
 80016f8:	4b21      	ldr	r3, [pc, #132]	@ (8001780 <HAL_RCC_OscConfig+0x508>)
 80016fa:	681b      	ldr	r3, [r3, #0]
 80016fc:	f403 7380 	and.w	r3, r3, #256	@ 0x100
 8001700:	2b00      	cmp	r3, #0
 8001702:	d118      	bne.n	8001736 <HAL_RCC_OscConfig+0x4be>
    {
      /* Enable write access to Backup domain */
      SET_BIT(PWR->CR1, PWR_CR1_DBP);
 8001704:	4b1e      	ldr	r3, [pc, #120]	@ (8001780 <HAL_RCC_OscConfig+0x508>)
 8001706:	681b      	ldr	r3, [r3, #0]
 8001708:	4a1d      	ldr	r2, [pc, #116]	@ (8001780 <HAL_RCC_OscConfig+0x508>)
 800170a:	f443 7380 	orr.w	r3, r3, #256	@ 0x100
 800170e:	6013      	str	r3, [r2, #0]

      /* Wait for Backup domain Write protection disable */
      tickstart = HAL_GetTick();
 8001710:	f7ff fa80 	bl	8000c14 <HAL_GetTick>
 8001714:	6138      	str	r0, [r7, #16]

      while(HAL_IS_BIT_CLR(PWR->CR1, PWR_CR1_DBP))
 8001716:	e008      	b.n	800172a <HAL_RCC_OscConfig+0x4b2>
      {
        if((HAL_GetTick() - tickstart) > RCC_DBP_TIMEOUT_VALUE)
 8001718:	f7ff fa7c 	bl	8000c14 <HAL_GetTick>
 800171c:	4602      	mov	r2, r0
 800171e:	693b      	ldr	r3, [r7, #16]
 8001720:	1ad3      	subs	r3, r2, r3
 8001722:	2b02      	cmp	r3, #2
 8001724:	d901      	bls.n	800172a <HAL_RCC_OscConfig+0x4b2>
        {
          return HAL_TIMEOUT;
 8001726:	2303      	movs	r3, #3
 8001728:	e17a      	b.n	8001a20 <HAL_RCC_OscConfig+0x7a8>
      while(HAL_IS_BIT_CLR(PWR->CR1, PWR_CR1_DBP))
 800172a:	4b15      	ldr	r3, [pc, #84]	@ (8001780 <HAL_RCC_OscConfig+0x508>)
 800172c:	681b      	ldr	r3, [r3, #0]
 800172e:	f403 7380 	and.w	r3, r3, #256	@ 0x100
 8001732:	2b00      	cmp	r3, #0
 8001734:	d0f0      	beq.n	8001718 <HAL_RCC_OscConfig+0x4a0>
    {
      CLEAR_BIT(RCC->BDCR, RCC_BDCR_LSEON);
      CLEAR_BIT(RCC->BDCR, RCC_BDCR_LSEBYP);
    }
#else
    __HAL_RCC_LSE_CONFIG(RCC_OscInitStruct->LSEState);
 8001736:	687b      	ldr	r3, [r7, #4]
 8001738:	689b      	ldr	r3, [r3, #8]
 800173a:	2b01      	cmp	r3, #1
 800173c:	d108      	bne.n	8001750 <HAL_RCC_OscConfig+0x4d8>
 800173e:	4b0f      	ldr	r3, [pc, #60]	@ (800177c <HAL_RCC_OscConfig+0x504>)
 8001740:	f8d3 3090 	ldr.w	r3, [r3, #144]	@ 0x90
 8001744:	4a0d      	ldr	r2, [pc, #52]	@ (800177c <HAL_RCC_OscConfig+0x504>)
 8001746:	f043 0301 	orr.w	r3, r3, #1
 800174a:	f8c2 3090 	str.w	r3, [r2, #144]	@ 0x90
 800174e:	e029      	b.n	80017a4 <HAL_RCC_OscConfig+0x52c>
 8001750:	687b      	ldr	r3, [r7, #4]
 8001752:	689b      	ldr	r3, [r3, #8]
 8001754:	2b05      	cmp	r3, #5
 8001756:	d115      	bne.n	8001784 <HAL_RCC_OscConfig+0x50c>
 8001758:	4b08      	ldr	r3, [pc, #32]	@ (800177c <HAL_RCC_OscConfig+0x504>)
 800175a:	f8d3 3090 	ldr.w	r3, [r3, #144]	@ 0x90
 800175e:	4a07      	ldr	r2, [pc, #28]	@ (800177c <HAL_RCC_OscConfig+0x504>)
 8001760:	f043 0304 	orr.w	r3, r3, #4
 8001764:	f8c2 3090 	str.w	r3, [r2, #144]	@ 0x90
 8001768:	4b04      	ldr	r3, [pc, #16]	@ (800177c <HAL_RCC_OscConfig+0x504>)
 800176a:	f8d3 3090 	ldr.w	r3, [r3, #144]	@ 0x90
 800176e:	4a03      	ldr	r2, [pc, #12]	@ (800177c <HAL_RCC_OscConfig+0x504>)
 8001770:	f043 0301 	orr.w	r3, r3, #1
 8001774:	f8c2 3090 	str.w	r3, [r2, #144]	@ 0x90
 8001778:	e014      	b.n	80017a4 <HAL_RCC_OscConfig+0x52c>
 800177a:	bf00      	nop
 800177c:	40021000 	.word	0x40021000
 8001780:	40007000 	.word	0x40007000
 8001784:	4b9c      	ldr	r3, [pc, #624]	@ (80019f8 <HAL_RCC_OscConfig+0x780>)
 8001786:	f8d3 3090 	ldr.w	r3, [r3, #144]	@ 0x90
 800178a:	4a9b      	ldr	r2, [pc, #620]	@ (80019f8 <HAL_RCC_OscConfig+0x780>)
 800178c:	f023 0301 	bic.w	r3, r3, #1
 8001790:	f8c2 3090 	str.w	r3, [r2, #144]	@ 0x90
 8001794:	4b98      	ldr	r3, [pc, #608]	@ (80019f8 <HAL_RCC_OscConfig+0x780>)
 8001796:	f8d3 3090 	ldr.w	r3, [r3, #144]	@ 0x90
 800179a:	4a97      	ldr	r2, [pc, #604]	@ (80019f8 <HAL_RCC_OscConfig+0x780>)
 800179c:	f023 0304 	bic.w	r3, r3, #4
 80017a0:	f8c2 3090 	str.w	r3, [r2, #144]	@ 0x90
#endif /* RCC_BDCR_LSESYSDIS */

    /* Check the LSE State */
    if(RCC_OscInitStruct->LSEState != RCC_LSE_OFF)
 80017a4:	687b      	ldr	r3, [r7, #4]
 80017a6:	689b      	ldr	r3, [r3, #8]
 80017a8:	2b00      	cmp	r3, #0
 80017aa:	d016      	beq.n	80017da <HAL_RCC_OscConfig+0x562>
    {
      /* Get Start Tick*/
      tickstart = HAL_GetTick();
 80017ac:	f7ff fa32 	bl	8000c14 <HAL_GetTick>
 80017b0:	6138      	str	r0, [r7, #16]

      /* Wait till LSE is ready */
      while(READ_BIT(RCC->BDCR, RCC_BDCR_LSERDY) == 0U)
 80017b2:	e00a      	b.n	80017ca <HAL_RCC_OscConfig+0x552>
      {
        if((HAL_GetTick() - tickstart) > RCC_LSE_TIMEOUT_VALUE)
 80017b4:	f7ff fa2e 	bl	8000c14 <HAL_GetTick>
 80017b8:	4602      	mov	r2, r0
 80017ba:	693b      	ldr	r3, [r7, #16]
 80017bc:	1ad3      	subs	r3, r2, r3
 80017be:	f241 3288 	movw	r2, #5000	@ 0x1388
 80017c2:	4293      	cmp	r3, r2
 80017c4:	d901      	bls.n	80017ca <HAL_RCC_OscConfig+0x552>
        {
          return HAL_TIMEOUT;
 80017c6:	2303      	movs	r3, #3
 80017c8:	e12a      	b.n	8001a20 <HAL_RCC_OscConfig+0x7a8>
      while(READ_BIT(RCC->BDCR, RCC_BDCR_LSERDY) == 0U)
 80017ca:	4b8b      	ldr	r3, [pc, #556]	@ (80019f8 <HAL_RCC_OscConfig+0x780>)
 80017cc:	f8d3 3090 	ldr.w	r3, [r3, #144]	@ 0x90
 80017d0:	f003 0302 	and.w	r3, r3, #2
 80017d4:	2b00      	cmp	r3, #0
 80017d6:	d0ed      	beq.n	80017b4 <HAL_RCC_OscConfig+0x53c>
 80017d8:	e015      	b.n	8001806 <HAL_RCC_OscConfig+0x58e>
      }
    }
    else
    {
      /* Get Start Tick*/
      tickstart = HAL_GetTick();
 80017da:	f7ff fa1b 	bl	8000c14 <HAL_GetTick>
 80017de:	6138      	str	r0, [r7, #16]

      /* Wait till LSE is disabled */
      while(READ_BIT(RCC->BDCR, RCC_BDCR_LSERDY) != 0U)
 80017e0:	e00a      	b.n	80017f8 <HAL_RCC_OscConfig+0x580>
      {
        if((HAL_GetTick() - tickstart) > RCC_LSE_TIMEOUT_VALUE)
 80017e2:	f7ff fa17 	bl	8000c14 <HAL_GetTick>
 80017e6:	4602      	mov	r2, r0
 80017e8:	693b      	ldr	r3, [r7, #16]
 80017ea:	1ad3      	subs	r3, r2, r3
 80017ec:	f241 3288 	movw	r2, #5000	@ 0x1388
 80017f0:	4293      	cmp	r3, r2
 80017f2:	d901      	bls.n	80017f8 <HAL_RCC_OscConfig+0x580>
        {
          return HAL_TIMEOUT;
 80017f4:	2303      	movs	r3, #3
 80017f6:	e113      	b.n	8001a20 <HAL_RCC_OscConfig+0x7a8>
      while(READ_BIT(RCC->BDCR, RCC_BDCR_LSERDY) != 0U)
 80017f8:	4b7f      	ldr	r3, [pc, #508]	@ (80019f8 <HAL_RCC_OscConfig+0x780>)
 80017fa:	f8d3 3090 	ldr.w	r3, [r3, #144]	@ 0x90
 80017fe:	f003 0302 	and.w	r3, r3, #2
 8001802:	2b00      	cmp	r3, #0
 8001804:	d1ed      	bne.n	80017e2 <HAL_RCC_OscConfig+0x56a>
      CLEAR_BIT(RCC->BDCR, RCC_BDCR_LSESYSDIS);
#endif /* RCC_BDCR_LSESYSDIS */
    }

    /* Restore clock configuration if changed */
    if(pwrclkchanged == SET)
 8001806:	7ffb      	ldrb	r3, [r7, #31]
 8001808:	2b01      	cmp	r3, #1
 800180a:	d105      	bne.n	8001818 <HAL_RCC_OscConfig+0x5a0>
    {
      __HAL_RCC_PWR_CLK_DISABLE();
 800180c:	4b7a      	ldr	r3, [pc, #488]	@ (80019f8 <HAL_RCC_OscConfig+0x780>)
 800180e:	6d9b      	ldr	r3, [r3, #88]	@ 0x58
 8001810:	4a79      	ldr	r2, [pc, #484]	@ (80019f8 <HAL_RCC_OscConfig+0x780>)
 8001812:	f023 5380 	bic.w	r3, r3, #268435456	@ 0x10000000
 8001816:	6593      	str	r3, [r2, #88]	@ 0x58
#endif /* RCC_HSI48_SUPPORT */
  /*-------------------------------- PLL Configuration -----------------------*/
  /* Check the parameters */
  assert_param(IS_RCC_PLL(RCC_OscInitStruct->PLL.PLLState));

  if(RCC_OscInitStruct->PLL.PLLState != RCC_PLL_NONE)
 8001818:	687b      	ldr	r3, [r7, #4]
 800181a:	6a9b      	ldr	r3, [r3, #40]	@ 0x28
 800181c:	2b00      	cmp	r3, #0
 800181e:	f000 80fe 	beq.w	8001a1e <HAL_RCC_OscConfig+0x7a6>
  {
    /* PLL On ? */
    if(RCC_OscInitStruct->PLL.PLLState == RCC_PLL_ON)
 8001822:	687b      	ldr	r3, [r7, #4]
 8001824:	6a9b      	ldr	r3, [r3, #40]	@ 0x28
 8001826:	2b02      	cmp	r3, #2
 8001828:	f040 80d0 	bne.w	80019cc <HAL_RCC_OscConfig+0x754>
#endif /* RCC_PLLP_SUPPORT */
      assert_param(IS_RCC_PLLQ_VALUE(RCC_OscInitStruct->PLL.PLLQ));
      assert_param(IS_RCC_PLLR_VALUE(RCC_OscInitStruct->PLL.PLLR));

      /* Do nothing if PLL configuration is the unchanged */
      pll_config = RCC->PLLCFGR;
 800182c:	4b72      	ldr	r3, [pc, #456]	@ (80019f8 <HAL_RCC_OscConfig+0x780>)
 800182e:	68db      	ldr	r3, [r3, #12]
 8001830:	617b      	str	r3, [r7, #20]
      if((READ_BIT(pll_config, RCC_PLLCFGR_PLLSRC)  != RCC_OscInitStruct->PLL.PLLSource) ||
 8001832:	697b      	ldr	r3, [r7, #20]
 8001834:	f003 0203 	and.w	r2, r3, #3
 8001838:	687b      	ldr	r3, [r7, #4]
 800183a:	6adb      	ldr	r3, [r3, #44]	@ 0x2c
 800183c:	429a      	cmp	r2, r3
 800183e:	d130      	bne.n	80018a2 <HAL_RCC_OscConfig+0x62a>
         (READ_BIT(pll_config, RCC_PLLCFGR_PLLM)    != ((RCC_OscInitStruct->PLL.PLLM - 1U) << RCC_PLLCFGR_PLLM_Pos)) ||
 8001840:	697b      	ldr	r3, [r7, #20]
 8001842:	f003 0270 	and.w	r2, r3, #112	@ 0x70
 8001846:	687b      	ldr	r3, [r7, #4]
 8001848:	6b1b      	ldr	r3, [r3, #48]	@ 0x30
 800184a:	3b01      	subs	r3, #1
 800184c:	011b      	lsls	r3, r3, #4
      if((READ_BIT(pll_config, RCC_PLLCFGR_PLLSRC)  != RCC_OscInitStruct->PLL.PLLSource) ||
 800184e:	429a      	cmp	r2, r3
 8001850:	d127      	bne.n	80018a2 <HAL_RCC_OscConfig+0x62a>
         (READ_BIT(pll_config, RCC_PLLCFGR_PLLN)    != (RCC_OscInitStruct->PLL.PLLN << RCC_PLLCFGR_PLLN_Pos)) ||
 8001852:	697b      	ldr	r3, [r7, #20]
 8001854:	f403 42fe 	and.w	r2, r3, #32512	@ 0x7f00
 8001858:	687b      	ldr	r3, [r7, #4]
 800185a:	6b5b      	ldr	r3, [r3, #52]	@ 0x34
 800185c:	021b      	lsls	r3, r3, #8
         (READ_BIT(pll_config, RCC_PLLCFGR_PLLM)    != ((RCC_OscInitStruct->PLL.PLLM - 1U) << RCC_PLLCFGR_PLLM_Pos)) ||
 800185e:	429a      	cmp	r2, r3
 8001860:	d11f      	bne.n	80018a2 <HAL_RCC_OscConfig+0x62a>
#if defined(RCC_PLLP_SUPPORT)
#if defined(RCC_PLLP_DIV_2_31_SUPPORT)
         (READ_BIT(pll_config, RCC_PLLCFGR_PLLPDIV) != (RCC_OscInitStruct->PLL.PLLP << RCC_PLLCFGR_PLLPDIV_Pos)) ||
#else
         (READ_BIT(pll_config, RCC_PLLCFGR_PLLP)    != ((RCC_OscInitStruct->PLL.PLLP == RCC_PLLP_DIV7) ? 0U : 1U)) ||
 8001862:	697b      	ldr	r3, [r7, #20]
 8001864:	f403 3300 	and.w	r3, r3, #131072	@ 0x20000
 8001868:	687a      	ldr	r2, [r7, #4]
 800186a:	6b92      	ldr	r2, [r2, #56]	@ 0x38
 800186c:	2a07      	cmp	r2, #7
 800186e:	bf14      	ite	ne
 8001870:	2201      	movne	r2, #1
 8001872:	2200      	moveq	r2, #0
 8001874:	b2d2      	uxtb	r2, r2
         (READ_BIT(pll_config, RCC_PLLCFGR_PLLN)    != (RCC_OscInitStruct->PLL.PLLN << RCC_PLLCFGR_PLLN_Pos)) ||
 8001876:	4293      	cmp	r3, r2
 8001878:	d113      	bne.n	80018a2 <HAL_RCC_OscConfig+0x62a>
#endif
#endif
         (READ_BIT(pll_config, RCC_PLLCFGR_PLLQ)    != ((((RCC_OscInitStruct->PLL.PLLQ) >> 1U) - 1U) << RCC_PLLCFGR_PLLQ_Pos)) ||
 800187a:	697b      	ldr	r3, [r7, #20]
 800187c:	f403 02c0 	and.w	r2, r3, #6291456	@ 0x600000
 8001880:	687b      	ldr	r3, [r7, #4]
 8001882:	6bdb      	ldr	r3, [r3, #60]	@ 0x3c
 8001884:	085b      	lsrs	r3, r3, #1
 8001886:	3b01      	subs	r3, #1
 8001888:	055b      	lsls	r3, r3, #21
         (READ_BIT(pll_config, RCC_PLLCFGR_PLLP)    != ((RCC_OscInitStruct->PLL.PLLP == RCC_PLLP_DIV7) ? 0U : 1U)) ||
 800188a:	429a      	cmp	r2, r3
 800188c:	d109      	bne.n	80018a2 <HAL_RCC_OscConfig+0x62a>
         (READ_BIT(pll_config, RCC_PLLCFGR_PLLR)    != ((((RCC_OscInitStruct->PLL.PLLR) >> 1U) - 1U) << RCC_PLLCFGR_PLLR_Pos)))
 800188e:	697b      	ldr	r3, [r7, #20]
 8001890:	f003 62c0 	and.w	r2, r3, #100663296	@ 0x6000000
 8001894:	687b      	ldr	r3, [r7, #4]
 8001896:	6c1b      	ldr	r3, [r3, #64]	@ 0x40
 8001898:	085b      	lsrs	r3, r3, #1
 800189a:	3b01      	subs	r3, #1
 800189c:	065b      	lsls	r3, r3, #25
         (READ_BIT(pll_config, RCC_PLLCFGR_PLLQ)    != ((((RCC_OscInitStruct->PLL.PLLQ) >> 1U) - 1U) << RCC_PLLCFGR_PLLQ_Pos)) ||
 800189e:	429a      	cmp	r2, r3
 80018a0:	d06e      	beq.n	8001980 <HAL_RCC_OscConfig+0x708>
      {
        /* Check if the PLL is used as system clock or not */
        if(sysclk_source != RCC_CFGR_SWS_PLL)
 80018a2:	69bb      	ldr	r3, [r7, #24]
 80018a4:	2b0c      	cmp	r3, #12
 80018a6:	d069      	beq.n	800197c <HAL_RCC_OscConfig+0x704>
        {
#if defined(RCC_PLLSAI1_SUPPORT) || defined(RCC_PLLSAI2_SUPPORT)
          /* Check if main PLL can be updated */
          /* Not possible if the source is shared by other enabled PLLSAIx */
          if((READ_BIT(RCC->CR, RCC_CR_PLLSAI1ON) != 0U)
 80018a8:	4b53      	ldr	r3, [pc, #332]	@ (80019f8 <HAL_RCC_OscConfig+0x780>)
 80018aa:	681b      	ldr	r3, [r3, #0]
 80018ac:	f003 6380 	and.w	r3, r3, #67108864	@ 0x4000000
 80018b0:	2b00      	cmp	r3, #0
 80018b2:	d105      	bne.n	80018c0 <HAL_RCC_OscConfig+0x648>
#if defined(RCC_PLLSAI2_SUPPORT)
             || (READ_BIT(RCC->CR, RCC_CR_PLLSAI2ON) != 0U)
 80018b4:	4b50      	ldr	r3, [pc, #320]	@ (80019f8 <HAL_RCC_OscConfig+0x780>)
 80018b6:	681b      	ldr	r3, [r3, #0]
 80018b8:	f003 5380 	and.w	r3, r3, #268435456	@ 0x10000000
 80018bc:	2b00      	cmp	r3, #0
 80018be:	d001      	beq.n	80018c4 <HAL_RCC_OscConfig+0x64c>
#endif
            )
          {
            return HAL_ERROR;
 80018c0:	2301      	movs	r3, #1
 80018c2:	e0ad      	b.n	8001a20 <HAL_RCC_OscConfig+0x7a8>
          }
          else
#endif /* RCC_PLLSAI1_SUPPORT || RCC_PLLSAI2_SUPPORT */
          {
            /* Disable the main PLL. */
            __HAL_RCC_PLL_DISABLE();
 80018c4:	4b4c      	ldr	r3, [pc, #304]	@ (80019f8 <HAL_RCC_OscConfig+0x780>)
 80018c6:	681b      	ldr	r3, [r3, #0]
 80018c8:	4a4b      	ldr	r2, [pc, #300]	@ (80019f8 <HAL_RCC_OscConfig+0x780>)
 80018ca:	f023 7380 	bic.w	r3, r3, #16777216	@ 0x1000000
 80018ce:	6013      	str	r3, [r2, #0]

            /* Get Start Tick*/
            tickstart = HAL_GetTick();
 80018d0:	f7ff f9a0 	bl	8000c14 <HAL_GetTick>
 80018d4:	6138      	str	r0, [r7, #16]

            /* Wait till PLL is ready */
            while(READ_BIT(RCC->CR, RCC_CR_PLLRDY) != 0U)
 80018d6:	e008      	b.n	80018ea <HAL_RCC_OscConfig+0x672>
            {
              if((HAL_GetTick() - tickstart) > PLL_TIMEOUT_VALUE)
 80018d8:	f7ff f99c 	bl	8000c14 <HAL_GetTick>
 80018dc:	4602      	mov	r2, r0
 80018de:	693b      	ldr	r3, [r7, #16]
 80018e0:	1ad3      	subs	r3, r2, r3
 80018e2:	2b02      	cmp	r3, #2
 80018e4:	d901      	bls.n	80018ea <HAL_RCC_OscConfig+0x672>
              {
                return HAL_TIMEOUT;
 80018e6:	2303      	movs	r3, #3
 80018e8:	e09a      	b.n	8001a20 <HAL_RCC_OscConfig+0x7a8>
            while(READ_BIT(RCC->CR, RCC_CR_PLLRDY) != 0U)
 80018ea:	4b43      	ldr	r3, [pc, #268]	@ (80019f8 <HAL_RCC_OscConfig+0x780>)
 80018ec:	681b      	ldr	r3, [r3, #0]
 80018ee:	f003 7300 	and.w	r3, r3, #33554432	@ 0x2000000
 80018f2:	2b00      	cmp	r3, #0
 80018f4:	d1f0      	bne.n	80018d8 <HAL_RCC_OscConfig+0x660>
              }
            }

            /* Configure the main PLL clock source, multiplication and division factors. */
#if defined(RCC_PLLP_SUPPORT)
            __HAL_RCC_PLL_CONFIG(RCC_OscInitStruct->PLL.PLLSource,
 80018f6:	4b40      	ldr	r3, [pc, #256]	@ (80019f8 <HAL_RCC_OscConfig+0x780>)
 80018f8:	68da      	ldr	r2, [r3, #12]
 80018fa:	4b40      	ldr	r3, [pc, #256]	@ (80019fc <HAL_RCC_OscConfig+0x784>)
 80018fc:	4013      	ands	r3, r2
 80018fe:	687a      	ldr	r2, [r7, #4]
 8001900:	6ad1      	ldr	r1, [r2, #44]	@ 0x2c
 8001902:	687a      	ldr	r2, [r7, #4]
 8001904:	6b12      	ldr	r2, [r2, #48]	@ 0x30
 8001906:	3a01      	subs	r2, #1
 8001908:	0112      	lsls	r2, r2, #4
 800190a:	4311      	orrs	r1, r2
 800190c:	687a      	ldr	r2, [r7, #4]
 800190e:	6b52      	ldr	r2, [r2, #52]	@ 0x34
 8001910:	0212      	lsls	r2, r2, #8
 8001912:	4311      	orrs	r1, r2
 8001914:	687a      	ldr	r2, [r7, #4]
 8001916:	6bd2      	ldr	r2, [r2, #60]	@ 0x3c
 8001918:	0852      	lsrs	r2, r2, #1
 800191a:	3a01      	subs	r2, #1
 800191c:	0552      	lsls	r2, r2, #21
 800191e:	4311      	orrs	r1, r2
 8001920:	687a      	ldr	r2, [r7, #4]
 8001922:	6c12      	ldr	r2, [r2, #64]	@ 0x40
 8001924:	0852      	lsrs	r2, r2, #1
 8001926:	3a01      	subs	r2, #1
 8001928:	0652      	lsls	r2, r2, #25
 800192a:	4311      	orrs	r1, r2
 800192c:	687a      	ldr	r2, [r7, #4]
 800192e:	6b92      	ldr	r2, [r2, #56]	@ 0x38
 8001930:	0912      	lsrs	r2, r2, #4
 8001932:	0452      	lsls	r2, r2, #17
 8001934:	430a      	orrs	r2, r1
 8001936:	4930      	ldr	r1, [pc, #192]	@ (80019f8 <HAL_RCC_OscConfig+0x780>)
 8001938:	4313      	orrs	r3, r2
 800193a:	60cb      	str	r3, [r1, #12]
                                 RCC_OscInitStruct->PLL.PLLQ,
                                 RCC_OscInitStruct->PLL.PLLR);
#endif

            /* Enable the main PLL. */
            __HAL_RCC_PLL_ENABLE();
 800193c:	4b2e      	ldr	r3, [pc, #184]	@ (80019f8 <HAL_RCC_OscConfig+0x780>)
 800193e:	681b      	ldr	r3, [r3, #0]
 8001940:	4a2d      	ldr	r2, [pc, #180]	@ (80019f8 <HAL_RCC_OscConfig+0x780>)
 8001942:	f043 7380 	orr.w	r3, r3, #16777216	@ 0x1000000
 8001946:	6013      	str	r3, [r2, #0]

            /* Enable PLL System Clock output. */
            __HAL_RCC_PLLCLKOUT_ENABLE(RCC_PLL_SYSCLK);
 8001948:	4b2b      	ldr	r3, [pc, #172]	@ (80019f8 <HAL_RCC_OscConfig+0x780>)
 800194a:	68db      	ldr	r3, [r3, #12]
 800194c:	4a2a      	ldr	r2, [pc, #168]	@ (80019f8 <HAL_RCC_OscConfig+0x780>)
 800194e:	f043 7380 	orr.w	r3, r3, #16777216	@ 0x1000000
 8001952:	60d3      	str	r3, [r2, #12]

            /* Get Start Tick*/
            tickstart = HAL_GetTick();
 8001954:	f7ff f95e 	bl	8000c14 <HAL_GetTick>
 8001958:	6138      	str	r0, [r7, #16]

            /* Wait till PLL is ready */
            while(READ_BIT(RCC->CR, RCC_CR_PLLRDY) == 0U)
 800195a:	e008      	b.n	800196e <HAL_RCC_OscConfig+0x6f6>
            {
              if((HAL_GetTick() - tickstart) > PLL_TIMEOUT_VALUE)
 800195c:	f7ff f95a 	bl	8000c14 <HAL_GetTick>
 8001960:	4602      	mov	r2, r0
 8001962:	693b      	ldr	r3, [r7, #16]
 8001964:	1ad3      	subs	r3, r2, r3
 8001966:	2b02      	cmp	r3, #2
 8001968:	d901      	bls.n	800196e <HAL_RCC_OscConfig+0x6f6>
              {
                return HAL_TIMEOUT;
 800196a:	2303      	movs	r3, #3
 800196c:	e058      	b.n	8001a20 <HAL_RCC_OscConfig+0x7a8>
            while(READ_BIT(RCC->CR, RCC_CR_PLLRDY) == 0U)
 800196e:	4b22      	ldr	r3, [pc, #136]	@ (80019f8 <HAL_RCC_OscConfig+0x780>)
 8001970:	681b      	ldr	r3, [r3, #0]
 8001972:	f003 7300 	and.w	r3, r3, #33554432	@ 0x2000000
 8001976:	2b00      	cmp	r3, #0
 8001978:	d0f0      	beq.n	800195c <HAL_RCC_OscConfig+0x6e4>
        if(sysclk_source != RCC_CFGR_SWS_PLL)
 800197a:	e050      	b.n	8001a1e <HAL_RCC_OscConfig+0x7a6>
          }
        }
        else
        {
          /* PLL is already used as System core clock */
          return HAL_ERROR;
 800197c:	2301      	movs	r3, #1
 800197e:	e04f      	b.n	8001a20 <HAL_RCC_OscConfig+0x7a8>
      }
      else
      {
        /* PLL configuration is unchanged */
        /* Re-enable PLL if it was disabled (ie. low power mode) */
        if(READ_BIT(RCC->CR, RCC_CR_PLLRDY) == 0U)
 8001980:	4b1d      	ldr	r3, [pc, #116]	@ (80019f8 <HAL_RCC_OscConfig+0x780>)
 8001982:	681b      	ldr	r3, [r3, #0]
 8001984:	f003 7300 	and.w	r3, r3, #33554432	@ 0x2000000
 8001988:	2b00      	cmp	r3, #0
 800198a:	d148      	bne.n	8001a1e <HAL_RCC_OscConfig+0x7a6>
        {
          /* Enable the main PLL. */
          __HAL_RCC_PLL_ENABLE();
 800198c:	4b1a      	ldr	r3, [pc, #104]	@ (80019f8 <HAL_RCC_OscConfig+0x780>)
 800198e:	681b      	ldr	r3, [r3, #0]
 8001990:	4a19      	ldr	r2, [pc, #100]	@ (80019f8 <HAL_RCC_OscConfig+0x780>)
 8001992:	f043 7380 	orr.w	r3, r3, #16777216	@ 0x1000000
 8001996:	6013      	str	r3, [r2, #0]

          /* Enable PLL System Clock output. */
          __HAL_RCC_PLLCLKOUT_ENABLE(RCC_PLL_SYSCLK);
 8001998:	4b17      	ldr	r3, [pc, #92]	@ (80019f8 <HAL_RCC_OscConfig+0x780>)
 800199a:	68db      	ldr	r3, [r3, #12]
 800199c:	4a16      	ldr	r2, [pc, #88]	@ (80019f8 <HAL_RCC_OscConfig+0x780>)
 800199e:	f043 7380 	orr.w	r3, r3, #16777216	@ 0x1000000
 80019a2:	60d3      	str	r3, [r2, #12]

          /* Get Start Tick*/
          tickstart = HAL_GetTick();
 80019a4:	f7ff f936 	bl	8000c14 <HAL_GetTick>
 80019a8:	6138      	str	r0, [r7, #16]

          /* Wait till PLL is ready */
          while(READ_BIT(RCC->CR, RCC_CR_PLLRDY) == 0U)
 80019aa:	e008      	b.n	80019be <HAL_RCC_OscConfig+0x746>
          {
            if((HAL_GetTick() - tickstart) > PLL_TIMEOUT_VALUE)
 80019ac:	f7ff f932 	bl	8000c14 <HAL_GetTick>
 80019b0:	4602      	mov	r2, r0
 80019b2:	693b      	ldr	r3, [r7, #16]
 80019b4:	1ad3      	subs	r3, r2, r3
 80019b6:	2b02      	cmp	r3, #2
 80019b8:	d901      	bls.n	80019be <HAL_RCC_OscConfig+0x746>
            {
              return HAL_TIMEOUT;
 80019ba:	2303      	movs	r3, #3
 80019bc:	e030      	b.n	8001a20 <HAL_RCC_OscConfig+0x7a8>
          while(READ_BIT(RCC->CR, RCC_CR_PLLRDY) == 0U)
 80019be:	4b0e      	ldr	r3, [pc, #56]	@ (80019f8 <HAL_RCC_OscConfig+0x780>)
 80019c0:	681b      	ldr	r3, [r3, #0]
 80019c2:	f003 7300 	and.w	r3, r3, #33554432	@ 0x2000000
 80019c6:	2b00      	cmp	r3, #0
 80019c8:	d0f0      	beq.n	80019ac <HAL_RCC_OscConfig+0x734>
 80019ca:	e028      	b.n	8001a1e <HAL_RCC_OscConfig+0x7a6>
      }
    }
    else
    {
      /* Check that PLL is not used as system clock or not */
      if(sysclk_source != RCC_CFGR_SWS_PLL)
 80019cc:	69bb      	ldr	r3, [r7, #24]
 80019ce:	2b0c      	cmp	r3, #12
 80019d0:	d023      	beq.n	8001a1a <HAL_RCC_OscConfig+0x7a2>
      {
        /* Disable the main PLL. */
        __HAL_RCC_PLL_DISABLE();
 80019d2:	4b09      	ldr	r3, [pc, #36]	@ (80019f8 <HAL_RCC_OscConfig+0x780>)
 80019d4:	681b      	ldr	r3, [r3, #0]
 80019d6:	4a08      	ldr	r2, [pc, #32]	@ (80019f8 <HAL_RCC_OscConfig+0x780>)
 80019d8:	f023 7380 	bic.w	r3, r3, #16777216	@ 0x1000000
 80019dc:	6013      	str	r3, [r2, #0]

        /* Get Start Tick*/
        tickstart = HAL_GetTick();
 80019de:	f7ff f919 	bl	8000c14 <HAL_GetTick>
 80019e2:	6138      	str	r0, [r7, #16]

        /* Wait till PLL is disabled */
        while(READ_BIT(RCC->CR, RCC_CR_PLLRDY) != 0U)
 80019e4:	e00c      	b.n	8001a00 <HAL_RCC_OscConfig+0x788>
        {
          if((HAL_GetTick() - tickstart) > PLL_TIMEOUT_VALUE)
 80019e6:	f7ff f915 	bl	8000c14 <HAL_GetTick>
 80019ea:	4602      	mov	r2, r0
 80019ec:	693b      	ldr	r3, [r7, #16]
 80019ee:	1ad3      	subs	r3, r2, r3
 80019f0:	2b02      	cmp	r3, #2
 80019f2:	d905      	bls.n	8001a00 <HAL_RCC_OscConfig+0x788>
          {
            return HAL_TIMEOUT;
 80019f4:	2303      	movs	r3, #3
 80019f6:	e013      	b.n	8001a20 <HAL_RCC_OscConfig+0x7a8>
 80019f8:	40021000 	.word	0x40021000
 80019fc:	f99d808c 	.word	0xf99d808c
        while(READ_BIT(RCC->CR, RCC_CR_PLLRDY) != 0U)
 8001a00:	4b09      	ldr	r3, [pc, #36]	@ (8001a28 <HAL_RCC_OscConfig+0x7b0>)
 8001a02:	681b      	ldr	r3, [r3, #0]
 8001a04:	f003 7300 	and.w	r3, r3, #33554432	@ 0x2000000
 8001a08:	2b00      	cmp	r3, #0
 8001a0a:	d1ec      	bne.n	80019e6 <HAL_RCC_OscConfig+0x76e>
          }
        }
        /* Unselect main PLL clock source and disable main PLL outputs to save power */
#if defined(RCC_PLLSAI2_SUPPORT)
        RCC->PLLCFGR &= ~(RCC_PLLCFGR_PLLSRC | RCC_PLL_SYSCLK | RCC_PLL_48M1CLK | RCC_PLL_SAI3CLK);
 8001a0c:	4b06      	ldr	r3, [pc, #24]	@ (8001a28 <HAL_RCC_OscConfig+0x7b0>)
 8001a0e:	68da      	ldr	r2, [r3, #12]
 8001a10:	4905      	ldr	r1, [pc, #20]	@ (8001a28 <HAL_RCC_OscConfig+0x7b0>)
 8001a12:	4b06      	ldr	r3, [pc, #24]	@ (8001a2c <HAL_RCC_OscConfig+0x7b4>)
 8001a14:	4013      	ands	r3, r2
 8001a16:	60cb      	str	r3, [r1, #12]
 8001a18:	e001      	b.n	8001a1e <HAL_RCC_OscConfig+0x7a6>
#endif /* RCC_PLLSAI2_SUPPORT */
      }
      else
      {
        /* PLL is already used as System core clock */
        return HAL_ERROR;
 8001a1a:	2301      	movs	r3, #1
 8001a1c:	e000      	b.n	8001a20 <HAL_RCC_OscConfig+0x7a8>
      }
    }
  }
  return HAL_OK;
 8001a1e:	2300      	movs	r3, #0
}
 8001a20:	4618      	mov	r0, r3
 8001a22:	3720      	adds	r7, #32
 8001a24:	46bd      	mov	sp, r7
 8001a26:	bd80      	pop	{r7, pc}
 8001a28:	40021000 	.word	0x40021000
 8001a2c:	feeefffc 	.word	0xfeeefffc

08001a30 <HAL_RCC_ClockConfig>:
  *         HPRE[3:0] bits to ensure that HCLK not exceed the maximum allowed frequency
  *         (for more details refer to section above "Initialization/de-initialization functions")
  * @retval None
  */
HAL_StatusTypeDef HAL_RCC_ClockConfig(RCC_ClkInitTypeDef  *RCC_ClkInitStruct, uint32_t FLatency)
{
 8001a30:	b580      	push	{r7, lr}
 8001a32:	b084      	sub	sp, #16
 8001a34:	af00      	add	r7, sp, #0
 8001a36:	6078      	str	r0, [r7, #4]
 8001a38:	6039      	str	r1, [r7, #0]
  uint32_t hpre = RCC_SYSCLK_DIV1;
#endif
  HAL_StatusTypeDef status;

  /* Check Null pointer */
  if(RCC_ClkInitStruct == NULL)
 8001a3a:	687b      	ldr	r3, [r7, #4]
 8001a3c:	2b00      	cmp	r3, #0
 8001a3e:	d101      	bne.n	8001a44 <HAL_RCC_ClockConfig+0x14>
  {
    return HAL_ERROR;
 8001a40:	2301      	movs	r3, #1
 8001a42:	e0e7      	b.n	8001c14 <HAL_RCC_ClockConfig+0x1e4>
  /* To correctly read data from FLASH memory, the number of wait states (LATENCY)
    must be correctly programmed according to the frequency of the CPU clock
    (HCLK) and the supply voltage of the device. */

  /* Increasing the number of wait states because of higher CPU frequency */
  if(FLatency > __HAL_FLASH_GET_LATENCY())
 8001a44:	4b75      	ldr	r3, [pc, #468]	@ (8001c1c <HAL_RCC_ClockConfig+0x1ec>)
 8001a46:	681b      	ldr	r3, [r3, #0]
 8001a48:	f003 0307 	and.w	r3, r3, #7
 8001a4c:	683a      	ldr	r2, [r7, #0]
 8001a4e:	429a      	cmp	r2, r3
 8001a50:	d910      	bls.n	8001a74 <HAL_RCC_ClockConfig+0x44>
  {
    /* Program the new number of wait states to the LATENCY bits in the FLASH_ACR register */
    __HAL_FLASH_SET_LATENCY(FLatency);
 8001a52:	4b72      	ldr	r3, [pc, #456]	@ (8001c1c <HAL_RCC_ClockConfig+0x1ec>)
 8001a54:	681b      	ldr	r3, [r3, #0]
 8001a56:	f023 0207 	bic.w	r2, r3, #7
 8001a5a:	4970      	ldr	r1, [pc, #448]	@ (8001c1c <HAL_RCC_ClockConfig+0x1ec>)
 8001a5c:	683b      	ldr	r3, [r7, #0]
 8001a5e:	4313      	orrs	r3, r2
 8001a60:	600b      	str	r3, [r1, #0]

    /* Check that the new number of wait states is taken into account to access the Flash
    memory by reading the FLASH_ACR register */
    if(__HAL_FLASH_GET_LATENCY() != FLatency)
 8001a62:	4b6e      	ldr	r3, [pc, #440]	@ (8001c1c <HAL_RCC_ClockConfig+0x1ec>)
 8001a64:	681b      	ldr	r3, [r3, #0]
 8001a66:	f003 0307 	and.w	r3, r3, #7
 8001a6a:	683a      	ldr	r2, [r7, #0]
 8001a6c:	429a      	cmp	r2, r3
 8001a6e:	d001      	beq.n	8001a74 <HAL_RCC_ClockConfig+0x44>
    {
      return HAL_ERROR;
 8001a70:	2301      	movs	r3, #1
 8001a72:	e0cf      	b.n	8001c14 <HAL_RCC_ClockConfig+0x1e4>
    }
  }

  /*----------------- HCLK Configuration prior to SYSCLK----------------------*/
  /* Apply higher HCLK prescaler request here to ensure CPU clock is not of of spec when SYSCLK is increased */
  if(((RCC_ClkInitStruct->ClockType) & RCC_CLOCKTYPE_HCLK) == RCC_CLOCKTYPE_HCLK)
 8001a74:	687b      	ldr	r3, [r7, #4]
 8001a76:	681b      	ldr	r3, [r3, #0]
 8001a78:	f003 0302 	and.w	r3, r3, #2
 8001a7c:	2b00      	cmp	r3, #0
 8001a7e:	d010      	beq.n	8001aa2 <HAL_RCC_ClockConfig+0x72>
  {
    assert_param(IS_RCC_HCLK(RCC_ClkInitStruct->AHBCLKDivider));

    if(RCC_ClkInitStruct->AHBCLKDivider > READ_BIT(RCC->CFGR, RCC_CFGR_HPRE))
 8001a80:	687b      	ldr	r3, [r7, #4]
 8001a82:	689a      	ldr	r2, [r3, #8]
 8001a84:	4b66      	ldr	r3, [pc, #408]	@ (8001c20 <HAL_RCC_ClockConfig+0x1f0>)
 8001a86:	689b      	ldr	r3, [r3, #8]
 8001a88:	f003 03f0 	and.w	r3, r3, #240	@ 0xf0
 8001a8c:	429a      	cmp	r2, r3
 8001a8e:	d908      	bls.n	8001aa2 <HAL_RCC_ClockConfig+0x72>
    {
      MODIFY_REG(RCC->CFGR, RCC_CFGR_HPRE, RCC_ClkInitStruct->AHBCLKDivider);
 8001a90:	4b63      	ldr	r3, [pc, #396]	@ (8001c20 <HAL_RCC_ClockConfig+0x1f0>)
 8001a92:	689b      	ldr	r3, [r3, #8]
 8001a94:	f023 02f0 	bic.w	r2, r3, #240	@ 0xf0
 8001a98:	687b      	ldr	r3, [r7, #4]
 8001a9a:	689b      	ldr	r3, [r3, #8]
 8001a9c:	4960      	ldr	r1, [pc, #384]	@ (8001c20 <HAL_RCC_ClockConfig+0x1f0>)
 8001a9e:	4313      	orrs	r3, r2
 8001aa0:	608b      	str	r3, [r1, #8]
    }
  }

  /*------------------------- SYSCLK Configuration ---------------------------*/
  if(((RCC_ClkInitStruct->ClockType) & RCC_CLOCKTYPE_SYSCLK) == RCC_CLOCKTYPE_SYSCLK)
 8001aa2:	687b      	ldr	r3, [r7, #4]
 8001aa4:	681b      	ldr	r3, [r3, #0]
 8001aa6:	f003 0301 	and.w	r3, r3, #1
 8001aaa:	2b00      	cmp	r3, #0
 8001aac:	d04c      	beq.n	8001b48 <HAL_RCC_ClockConfig+0x118>
  {
    assert_param(IS_RCC_SYSCLKSOURCE(RCC_ClkInitStruct->SYSCLKSource));

    /* PLL is selected as System Clock Source */
    if(RCC_ClkInitStruct->SYSCLKSource == RCC_SYSCLKSOURCE_PLLCLK)
 8001aae:	687b      	ldr	r3, [r7, #4]
 8001ab0:	685b      	ldr	r3, [r3, #4]
 8001ab2:	2b03      	cmp	r3, #3
 8001ab4:	d107      	bne.n	8001ac6 <HAL_RCC_ClockConfig+0x96>
    {
      /* Check the PLL ready flag */
      if(READ_BIT(RCC->CR, RCC_CR_PLLRDY) == 0U)
 8001ab6:	4b5a      	ldr	r3, [pc, #360]	@ (8001c20 <HAL_RCC_ClockConfig+0x1f0>)
 8001ab8:	681b      	ldr	r3, [r3, #0]
 8001aba:	f003 7300 	and.w	r3, r3, #33554432	@ 0x2000000
 8001abe:	2b00      	cmp	r3, #0
 8001ac0:	d121      	bne.n	8001b06 <HAL_RCC_ClockConfig+0xd6>
      {
        return HAL_ERROR;
 8001ac2:	2301      	movs	r3, #1
 8001ac4:	e0a6      	b.n	8001c14 <HAL_RCC_ClockConfig+0x1e4>
#endif
    }
    else
    {
      /* HSE is selected as System Clock Source */
      if(RCC_ClkInitStruct->SYSCLKSource == RCC_SYSCLKSOURCE_HSE)
 8001ac6:	687b      	ldr	r3, [r7, #4]
 8001ac8:	685b      	ldr	r3, [r3, #4]
 8001aca:	2b02      	cmp	r3, #2
 8001acc:	d107      	bne.n	8001ade <HAL_RCC_ClockConfig+0xae>
      {
        /* Check the HSE ready flag */
        if(READ_BIT(RCC->CR, RCC_CR_HSERDY) == 0U)
 8001ace:	4b54      	ldr	r3, [pc, #336]	@ (8001c20 <HAL_RCC_ClockConfig+0x1f0>)
 8001ad0:	681b      	ldr	r3, [r3, #0]
 8001ad2:	f403 3300 	and.w	r3, r3, #131072	@ 0x20000
 8001ad6:	2b00      	cmp	r3, #0
 8001ad8:	d115      	bne.n	8001b06 <HAL_RCC_ClockConfig+0xd6>
        {
          return HAL_ERROR;
 8001ada:	2301      	movs	r3, #1
 8001adc:	e09a      	b.n	8001c14 <HAL_RCC_ClockConfig+0x1e4>
        }
      }
      /* MSI is selected as System Clock Source */
      else if(RCC_ClkInitStruct->SYSCLKSource == RCC_SYSCLKSOURCE_MSI)
 8001ade:	687b      	ldr	r3, [r7, #4]
 8001ae0:	685b      	ldr	r3, [r3, #4]
 8001ae2:	2b00      	cmp	r3, #0
 8001ae4:	d107      	bne.n	8001af6 <HAL_RCC_ClockConfig+0xc6>
      {
        /* Check the MSI ready flag */
        if(READ_BIT(RCC->CR, RCC_CR_MSIRDY) == 0U)
 8001ae6:	4b4e      	ldr	r3, [pc, #312]	@ (8001c20 <HAL_RCC_ClockConfig+0x1f0>)
 8001ae8:	681b      	ldr	r3, [r3, #0]
 8001aea:	f003 0302 	and.w	r3, r3, #2
 8001aee:	2b00      	cmp	r3, #0
 8001af0:	d109      	bne.n	8001b06 <HAL_RCC_ClockConfig+0xd6>
        {
          return HAL_ERROR;
 8001af2:	2301      	movs	r3, #1
 8001af4:	e08e      	b.n	8001c14 <HAL_RCC_ClockConfig+0x1e4>
      }
      /* HSI is selected as System Clock Source */
      else
      {
        /* Check the HSI ready flag */
        if(READ_BIT(RCC->CR, RCC_CR_HSIRDY) == 0U)
 8001af6:	4b4a      	ldr	r3, [pc, #296]	@ (8001c20 <HAL_RCC_ClockConfig+0x1f0>)
 8001af8:	681b      	ldr	r3, [r3, #0]
 8001afa:	f403 6380 	and.w	r3, r3, #1024	@ 0x400
 8001afe:	2b00      	cmp	r3, #0
 8001b00:	d101      	bne.n	8001b06 <HAL_RCC_ClockConfig+0xd6>
        {
          return HAL_ERROR;
 8001b02:	2301      	movs	r3, #1
 8001b04:	e086      	b.n	8001c14 <HAL_RCC_ClockConfig+0x1e4>
      }
#endif

    }

    MODIFY_REG(RCC->CFGR, RCC_CFGR_SW, RCC_ClkInitStruct->SYSCLKSource);
 8001b06:	4b46      	ldr	r3, [pc, #280]	@ (8001c20 <HAL_RCC_ClockConfig+0x1f0>)
 8001b08:	689b      	ldr	r3, [r3, #8]
 8001b0a:	f023 0203 	bic.w	r2, r3, #3
 8001b0e:	687b      	ldr	r3, [r7, #4]
 8001b10:	685b      	ldr	r3, [r3, #4]
 8001b12:	4943      	ldr	r1, [pc, #268]	@ (8001c20 <HAL_RCC_ClockConfig+0x1f0>)
 8001b14:	4313      	orrs	r3, r2
 8001b16:	608b      	str	r3, [r1, #8]

    /* Get Start Tick*/
    tickstart = HAL_GetTick();
 8001b18:	f7ff f87c 	bl	8000c14 <HAL_GetTick>
 8001b1c:	60f8      	str	r0, [r7, #12]

    while(__HAL_RCC_GET_SYSCLK_SOURCE() != (RCC_ClkInitStruct->SYSCLKSource << RCC_CFGR_SWS_Pos))
 8001b1e:	e00a      	b.n	8001b36 <HAL_RCC_ClockConfig+0x106>
    {
      if((HAL_GetTick() - tickstart) > CLOCKSWITCH_TIMEOUT_VALUE)
 8001b20:	f7ff f878 	bl	8000c14 <HAL_GetTick>
 8001b24:	4602      	mov	r2, r0
 8001b26:	68fb      	ldr	r3, [r7, #12]
 8001b28:	1ad3      	subs	r3, r2, r3
 8001b2a:	f241 3288 	movw	r2, #5000	@ 0x1388
 8001b2e:	4293      	cmp	r3, r2
 8001b30:	d901      	bls.n	8001b36 <HAL_RCC_ClockConfig+0x106>
      {
        return HAL_TIMEOUT;
 8001b32:	2303      	movs	r3, #3
 8001b34:	e06e      	b.n	8001c14 <HAL_RCC_ClockConfig+0x1e4>
    while(__HAL_RCC_GET_SYSCLK_SOURCE() != (RCC_ClkInitStruct->SYSCLKSource << RCC_CFGR_SWS_Pos))
 8001b36:	4b3a      	ldr	r3, [pc, #232]	@ (8001c20 <HAL_RCC_ClockConfig+0x1f0>)
 8001b38:	689b      	ldr	r3, [r3, #8]
 8001b3a:	f003 020c 	and.w	r2, r3, #12
 8001b3e:	687b      	ldr	r3, [r7, #4]
 8001b40:	685b      	ldr	r3, [r3, #4]
 8001b42:	009b      	lsls	r3, r3, #2
 8001b44:	429a      	cmp	r2, r3
 8001b46:	d1eb      	bne.n	8001b20 <HAL_RCC_ClockConfig+0xf0>
  }
#endif

  /*----------------- HCLK Configuration after SYSCLK-------------------------*/
  /* Apply lower HCLK prescaler request here to ensure CPU clock is not of of spec when SYSCLK is set */
  if(((RCC_ClkInitStruct->ClockType) & RCC_CLOCKTYPE_HCLK) == RCC_CLOCKTYPE_HCLK)
 8001b48:	687b      	ldr	r3, [r7, #4]
 8001b4a:	681b      	ldr	r3, [r3, #0]
 8001b4c:	f003 0302 	and.w	r3, r3, #2
 8001b50:	2b00      	cmp	r3, #0
 8001b52:	d010      	beq.n	8001b76 <HAL_RCC_ClockConfig+0x146>
  {
    if(RCC_ClkInitStruct->AHBCLKDivider < READ_BIT(RCC->CFGR, RCC_CFGR_HPRE))
 8001b54:	687b      	ldr	r3, [r7, #4]
 8001b56:	689a      	ldr	r2, [r3, #8]
 8001b58:	4b31      	ldr	r3, [pc, #196]	@ (8001c20 <HAL_RCC_ClockConfig+0x1f0>)
 8001b5a:	689b      	ldr	r3, [r3, #8]
 8001b5c:	f003 03f0 	and.w	r3, r3, #240	@ 0xf0
 8001b60:	429a      	cmp	r2, r3
 8001b62:	d208      	bcs.n	8001b76 <HAL_RCC_ClockConfig+0x146>
    {
      MODIFY_REG(RCC->CFGR, RCC_CFGR_HPRE, RCC_ClkInitStruct->AHBCLKDivider);
 8001b64:	4b2e      	ldr	r3, [pc, #184]	@ (8001c20 <HAL_RCC_ClockConfig+0x1f0>)
 8001b66:	689b      	ldr	r3, [r3, #8]
 8001b68:	f023 02f0 	bic.w	r2, r3, #240	@ 0xf0
 8001b6c:	687b      	ldr	r3, [r7, #4]
 8001b6e:	689b      	ldr	r3, [r3, #8]
 8001b70:	492b      	ldr	r1, [pc, #172]	@ (8001c20 <HAL_RCC_ClockConfig+0x1f0>)
 8001b72:	4313      	orrs	r3, r2
 8001b74:	608b      	str	r3, [r1, #8]
    }
  }

  /* Allow decreasing of the number of wait states (because of lower CPU frequency expected) */
  if(FLatency < __HAL_FLASH_GET_LATENCY())
 8001b76:	4b29      	ldr	r3, [pc, #164]	@ (8001c1c <HAL_RCC_ClockConfig+0x1ec>)
 8001b78:	681b      	ldr	r3, [r3, #0]
 8001b7a:	f003 0307 	and.w	r3, r3, #7
 8001b7e:	683a      	ldr	r2, [r7, #0]
 8001b80:	429a      	cmp	r2, r3
 8001b82:	d210      	bcs.n	8001ba6 <HAL_RCC_ClockConfig+0x176>
  {
    /* Program the new number of wait states to the LATENCY bits in the FLASH_ACR register */
    __HAL_FLASH_SET_LATENCY(FLatency);
 8001b84:	4b25      	ldr	r3, [pc, #148]	@ (8001c1c <HAL_RCC_ClockConfig+0x1ec>)
 8001b86:	681b      	ldr	r3, [r3, #0]
 8001b88:	f023 0207 	bic.w	r2, r3, #7
 8001b8c:	4923      	ldr	r1, [pc, #140]	@ (8001c1c <HAL_RCC_ClockConfig+0x1ec>)
 8001b8e:	683b      	ldr	r3, [r7, #0]
 8001b90:	4313      	orrs	r3, r2
 8001b92:	600b      	str	r3, [r1, #0]

    /* Check that the new number of wait states is taken into account to access the Flash
    memory by reading the FLASH_ACR register */
    if(__HAL_FLASH_GET_LATENCY() != FLatency)
 8001b94:	4b21      	ldr	r3, [pc, #132]	@ (8001c1c <HAL_RCC_ClockConfig+0x1ec>)
 8001b96:	681b      	ldr	r3, [r3, #0]
 8001b98:	f003 0307 	and.w	r3, r3, #7
 8001b9c:	683a      	ldr	r2, [r7, #0]
 8001b9e:	429a      	cmp	r2, r3
 8001ba0:	d001      	beq.n	8001ba6 <HAL_RCC_ClockConfig+0x176>
    {
      return HAL_ERROR;
 8001ba2:	2301      	movs	r3, #1
 8001ba4:	e036      	b.n	8001c14 <HAL_RCC_ClockConfig+0x1e4>
    }
  }

  /*-------------------------- PCLK1 Configuration ---------------------------*/
  if(((RCC_ClkInitStruct->ClockType) & RCC_CLOCKTYPE_PCLK1) == RCC_CLOCKTYPE_PCLK1)
 8001ba6:	687b      	ldr	r3, [r7, #4]
 8001ba8:	681b      	ldr	r3, [r3, #0]
 8001baa:	f003 0304 	and.w	r3, r3, #4
 8001bae:	2b00      	cmp	r3, #0
 8001bb0:	d008      	beq.n	8001bc4 <HAL_RCC_ClockConfig+0x194>
  {
    assert_param(IS_RCC_PCLK(RCC_ClkInitStruct->APB1CLKDivider));
    MODIFY_REG(RCC->CFGR, RCC_CFGR_PPRE1, RCC_ClkInitStruct->APB1CLKDivider);
 8001bb2:	4b1b      	ldr	r3, [pc, #108]	@ (8001c20 <HAL_RCC_ClockConfig+0x1f0>)
 8001bb4:	689b      	ldr	r3, [r3, #8]
 8001bb6:	f423 62e0 	bic.w	r2, r3, #1792	@ 0x700
 8001bba:	687b      	ldr	r3, [r7, #4]
 8001bbc:	68db      	ldr	r3, [r3, #12]
 8001bbe:	4918      	ldr	r1, [pc, #96]	@ (8001c20 <HAL_RCC_ClockConfig+0x1f0>)
 8001bc0:	4313      	orrs	r3, r2
 8001bc2:	608b      	str	r3, [r1, #8]
  }

  /*-------------------------- PCLK2 Configuration ---------------------------*/
  if(((RCC_ClkInitStruct->ClockType) & RCC_CLOCKTYPE_PCLK2) == RCC_CLOCKTYPE_PCLK2)
 8001bc4:	687b      	ldr	r3, [r7, #4]
 8001bc6:	681b      	ldr	r3, [r3, #0]
 8001bc8:	f003 0308 	and.w	r3, r3, #8
 8001bcc:	2b00      	cmp	r3, #0
 8001bce:	d009      	beq.n	8001be4 <HAL_RCC_ClockConfig+0x1b4>
  {
    assert_param(IS_RCC_PCLK(RCC_ClkInitStruct->APB2CLKDivider));
    MODIFY_REG(RCC->CFGR, RCC_CFGR_PPRE2, ((RCC_ClkInitStruct->APB2CLKDivider) << 3U));
 8001bd0:	4b13      	ldr	r3, [pc, #76]	@ (8001c20 <HAL_RCC_ClockConfig+0x1f0>)
 8001bd2:	689b      	ldr	r3, [r3, #8]
 8001bd4:	f423 5260 	bic.w	r2, r3, #14336	@ 0x3800
 8001bd8:	687b      	ldr	r3, [r7, #4]
 8001bda:	691b      	ldr	r3, [r3, #16]
 8001bdc:	00db      	lsls	r3, r3, #3
 8001bde:	4910      	ldr	r1, [pc, #64]	@ (8001c20 <HAL_RCC_ClockConfig+0x1f0>)
 8001be0:	4313      	orrs	r3, r2
 8001be2:	608b      	str	r3, [r1, #8]
  }

  /* Update the SystemCoreClock global variable */
  SystemCoreClock = HAL_RCC_GetSysClockFreq() >> (AHBPrescTable[READ_BIT(RCC->CFGR, RCC_CFGR_HPRE) >> RCC_CFGR_HPRE_Pos] & 0x1FU);
 8001be4:	f000 f824 	bl	8001c30 <HAL_RCC_GetSysClockFreq>
 8001be8:	4602      	mov	r2, r0
 8001bea:	4b0d      	ldr	r3, [pc, #52]	@ (8001c20 <HAL_RCC_ClockConfig+0x1f0>)
 8001bec:	689b      	ldr	r3, [r3, #8]
 8001bee:	091b      	lsrs	r3, r3, #4
 8001bf0:	f003 030f 	and.w	r3, r3, #15
 8001bf4:	490b      	ldr	r1, [pc, #44]	@ (8001c24 <HAL_RCC_ClockConfig+0x1f4>)
 8001bf6:	5ccb      	ldrb	r3, [r1, r3]
 8001bf8:	f003 031f 	and.w	r3, r3, #31
 8001bfc:	fa22 f303 	lsr.w	r3, r2, r3
 8001c00:	4a09      	ldr	r2, [pc, #36]	@ (8001c28 <HAL_RCC_ClockConfig+0x1f8>)
 8001c02:	6013      	str	r3, [r2, #0]

  /* Configure the source of time base considering new system clocks settings*/
  status = HAL_InitTick(uwTickPrio);
 8001c04:	4b09      	ldr	r3, [pc, #36]	@ (8001c2c <HAL_RCC_ClockConfig+0x1fc>)
 8001c06:	681b      	ldr	r3, [r3, #0]
 8001c08:	4618      	mov	r0, r3
 8001c0a:	f7fe ffb3 	bl	8000b74 <HAL_InitTick>
 8001c0e:	4603      	mov	r3, r0
 8001c10:	72fb      	strb	r3, [r7, #11]

  return status;
 8001c12:	7afb      	ldrb	r3, [r7, #11]
}
 8001c14:	4618      	mov	r0, r3
 8001c16:	3710      	adds	r7, #16
 8001c18:	46bd      	mov	sp, r7
 8001c1a:	bd80      	pop	{r7, pc}
 8001c1c:	40022000 	.word	0x40022000
 8001c20:	40021000 	.word	0x40021000
 8001c24:	08005218 	.word	0x08005218
 8001c28:	20000000 	.word	0x20000000
 8001c2c:	20000004 	.word	0x20000004

08001c30 <HAL_RCC_GetSysClockFreq>:
  *
  *
  * @retval SYSCLK frequency
  */
uint32_t HAL_RCC_GetSysClockFreq(void)
{
 8001c30:	b480      	push	{r7}
 8001c32:	b089      	sub	sp, #36	@ 0x24
 8001c34:	af00      	add	r7, sp, #0
  uint32_t msirange = 0U, sysclockfreq = 0U;
 8001c36:	2300      	movs	r3, #0
 8001c38:	61fb      	str	r3, [r7, #28]
 8001c3a:	2300      	movs	r3, #0
 8001c3c:	61bb      	str	r3, [r7, #24]
  uint32_t pllvco, pllsource, pllr, pllm;    /* no init needed */
  uint32_t sysclk_source, pll_oscsource;

  sysclk_source = __HAL_RCC_GET_SYSCLK_SOURCE();
 8001c3e:	4b3e      	ldr	r3, [pc, #248]	@ (8001d38 <HAL_RCC_GetSysClockFreq+0x108>)
 8001c40:	689b      	ldr	r3, [r3, #8]
 8001c42:	f003 030c 	and.w	r3, r3, #12
 8001c46:	613b      	str	r3, [r7, #16]
  pll_oscsource = __HAL_RCC_GET_PLL_OSCSOURCE();
 8001c48:	4b3b      	ldr	r3, [pc, #236]	@ (8001d38 <HAL_RCC_GetSysClockFreq+0x108>)
 8001c4a:	68db      	ldr	r3, [r3, #12]
 8001c4c:	f003 0303 	and.w	r3, r3, #3
 8001c50:	60fb      	str	r3, [r7, #12]

  if((sysclk_source == RCC_CFGR_SWS_MSI) ||
 8001c52:	693b      	ldr	r3, [r7, #16]
 8001c54:	2b00      	cmp	r3, #0
 8001c56:	d005      	beq.n	8001c64 <HAL_RCC_GetSysClockFreq+0x34>
 8001c58:	693b      	ldr	r3, [r7, #16]
 8001c5a:	2b0c      	cmp	r3, #12
 8001c5c:	d121      	bne.n	8001ca2 <HAL_RCC_GetSysClockFreq+0x72>
     ((sysclk_source == RCC_CFGR_SWS_PLL) && (pll_oscsource == RCC_PLLSOURCE_MSI)))
 8001c5e:	68fb      	ldr	r3, [r7, #12]
 8001c60:	2b01      	cmp	r3, #1
 8001c62:	d11e      	bne.n	8001ca2 <HAL_RCC_GetSysClockFreq+0x72>
  {
    /* MSI or PLL with MSI source used as system clock source */

    /* Get SYSCLK source */
    if(READ_BIT(RCC->CR, RCC_CR_MSIRGSEL) == 0U)
 8001c64:	4b34      	ldr	r3, [pc, #208]	@ (8001d38 <HAL_RCC_GetSysClockFreq+0x108>)
 8001c66:	681b      	ldr	r3, [r3, #0]
 8001c68:	f003 0308 	and.w	r3, r3, #8
 8001c6c:	2b00      	cmp	r3, #0
 8001c6e:	d107      	bne.n	8001c80 <HAL_RCC_GetSysClockFreq+0x50>
    { /* MSISRANGE from RCC_CSR applies */
      msirange = READ_BIT(RCC->CSR, RCC_CSR_MSISRANGE) >> RCC_CSR_MSISRANGE_Pos;
 8001c70:	4b31      	ldr	r3, [pc, #196]	@ (8001d38 <HAL_RCC_GetSysClockFreq+0x108>)
 8001c72:	f8d3 3094 	ldr.w	r3, [r3, #148]	@ 0x94
 8001c76:	0a1b      	lsrs	r3, r3, #8
 8001c78:	f003 030f 	and.w	r3, r3, #15
 8001c7c:	61fb      	str	r3, [r7, #28]
 8001c7e:	e005      	b.n	8001c8c <HAL_RCC_GetSysClockFreq+0x5c>
    }
    else
    { /* MSIRANGE from RCC_CR applies */
      msirange = READ_BIT(RCC->CR, RCC_CR_MSIRANGE) >> RCC_CR_MSIRANGE_Pos;
 8001c80:	4b2d      	ldr	r3, [pc, #180]	@ (8001d38 <HAL_RCC_GetSysClockFreq+0x108>)
 8001c82:	681b      	ldr	r3, [r3, #0]
 8001c84:	091b      	lsrs	r3, r3, #4
 8001c86:	f003 030f 	and.w	r3, r3, #15
 8001c8a:	61fb      	str	r3, [r7, #28]
    }
    /*MSI frequency range in HZ*/
    msirange = MSIRangeTable[msirange];
 8001c8c:	4a2b      	ldr	r2, [pc, #172]	@ (8001d3c <HAL_RCC_GetSysClockFreq+0x10c>)
 8001c8e:	69fb      	ldr	r3, [r7, #28]
 8001c90:	f852 3023 	ldr.w	r3, [r2, r3, lsl #2]
 8001c94:	61fb      	str	r3, [r7, #28]

    if(sysclk_source == RCC_CFGR_SWS_MSI)
 8001c96:	693b      	ldr	r3, [r7, #16]
 8001c98:	2b00      	cmp	r3, #0
 8001c9a:	d10d      	bne.n	8001cb8 <HAL_RCC_GetSysClockFreq+0x88>
    {
      /* MSI used as system clock source */
      sysclockfreq = msirange;
 8001c9c:	69fb      	ldr	r3, [r7, #28]
 8001c9e:	61bb      	str	r3, [r7, #24]
    if(sysclk_source == RCC_CFGR_SWS_MSI)
 8001ca0:	e00a      	b.n	8001cb8 <HAL_RCC_GetSysClockFreq+0x88>
    }
  }
  else if(sysclk_source == RCC_CFGR_SWS_HSI)
 8001ca2:	693b      	ldr	r3, [r7, #16]
 8001ca4:	2b04      	cmp	r3, #4
 8001ca6:	d102      	bne.n	8001cae <HAL_RCC_GetSysClockFreq+0x7e>
  {
    /* HSI used as system clock source */
    sysclockfreq = HSI_VALUE;
 8001ca8:	4b25      	ldr	r3, [pc, #148]	@ (8001d40 <HAL_RCC_GetSysClockFreq+0x110>)
 8001caa:	61bb      	str	r3, [r7, #24]
 8001cac:	e004      	b.n	8001cb8 <HAL_RCC_GetSysClockFreq+0x88>
  }
  else if(sysclk_source == RCC_CFGR_SWS_HSE)
 8001cae:	693b      	ldr	r3, [r7, #16]
 8001cb0:	2b08      	cmp	r3, #8
 8001cb2:	d101      	bne.n	8001cb8 <HAL_RCC_GetSysClockFreq+0x88>
  {
    /* HSE used as system clock source */
    sysclockfreq = HSE_VALUE;
 8001cb4:	4b23      	ldr	r3, [pc, #140]	@ (8001d44 <HAL_RCC_GetSysClockFreq+0x114>)
 8001cb6:	61bb      	str	r3, [r7, #24]
  else
  {
    /* unexpected case: sysclockfreq at 0 */
  }

  if(sysclk_source == RCC_CFGR_SWS_PLL)
 8001cb8:	693b      	ldr	r3, [r7, #16]
 8001cba:	2b0c      	cmp	r3, #12
 8001cbc:	d134      	bne.n	8001d28 <HAL_RCC_GetSysClockFreq+0xf8>
    /* PLL used as system clock  source */

    /* PLL_VCO = (HSE_VALUE or HSI_VALUE or MSI_VALUE) * PLLN / PLLM
    SYSCLK = PLL_VCO / PLLR
    */
    pllsource = READ_BIT(RCC->PLLCFGR, RCC_PLLCFGR_PLLSRC);
 8001cbe:	4b1e      	ldr	r3, [pc, #120]	@ (8001d38 <HAL_RCC_GetSysClockFreq+0x108>)
 8001cc0:	68db      	ldr	r3, [r3, #12]
 8001cc2:	f003 0303 	and.w	r3, r3, #3
 8001cc6:	60bb      	str	r3, [r7, #8]

    switch (pllsource)
 8001cc8:	68bb      	ldr	r3, [r7, #8]
 8001cca:	2b02      	cmp	r3, #2
 8001ccc:	d003      	beq.n	8001cd6 <HAL_RCC_GetSysClockFreq+0xa6>
 8001cce:	68bb      	ldr	r3, [r7, #8]
 8001cd0:	2b03      	cmp	r3, #3
 8001cd2:	d003      	beq.n	8001cdc <HAL_RCC_GetSysClockFreq+0xac>
 8001cd4:	e005      	b.n	8001ce2 <HAL_RCC_GetSysClockFreq+0xb2>
    {
    case RCC_PLLSOURCE_HSI:  /* HSI used as PLL clock source */
      pllvco = HSI_VALUE;
 8001cd6:	4b1a      	ldr	r3, [pc, #104]	@ (8001d40 <HAL_RCC_GetSysClockFreq+0x110>)
 8001cd8:	617b      	str	r3, [r7, #20]
      break;
 8001cda:	e005      	b.n	8001ce8 <HAL_RCC_GetSysClockFreq+0xb8>

    case RCC_PLLSOURCE_HSE:  /* HSE used as PLL clock source */
      pllvco = HSE_VALUE;
 8001cdc:	4b19      	ldr	r3, [pc, #100]	@ (8001d44 <HAL_RCC_GetSysClockFreq+0x114>)
 8001cde:	617b      	str	r3, [r7, #20]
      break;
 8001ce0:	e002      	b.n	8001ce8 <HAL_RCC_GetSysClockFreq+0xb8>

    case RCC_PLLSOURCE_MSI:  /* MSI used as PLL clock source */
    default:
      pllvco = msirange;
 8001ce2:	69fb      	ldr	r3, [r7, #28]
 8001ce4:	617b      	str	r3, [r7, #20]
      break;
 8001ce6:	bf00      	nop
    }
    pllm = (READ_BIT(RCC->PLLCFGR, RCC_PLLCFGR_PLLM) >> RCC_PLLCFGR_PLLM_Pos) + 1U ;
 8001ce8:	4b13      	ldr	r3, [pc, #76]	@ (8001d38 <HAL_RCC_GetSysClockFreq+0x108>)
 8001cea:	68db      	ldr	r3, [r3, #12]
 8001cec:	091b      	lsrs	r3, r3, #4
 8001cee:	f003 0307 	and.w	r3, r3, #7
 8001cf2:	3301      	adds	r3, #1
 8001cf4:	607b      	str	r3, [r7, #4]
    pllvco = (pllvco * (READ_BIT(RCC->PLLCFGR, RCC_PLLCFGR_PLLN) >> RCC_PLLCFGR_PLLN_Pos)) / pllm;
 8001cf6:	4b10      	ldr	r3, [pc, #64]	@ (8001d38 <HAL_RCC_GetSysClockFreq+0x108>)
 8001cf8:	68db      	ldr	r3, [r3, #12]
 8001cfa:	0a1b      	lsrs	r3, r3, #8
 8001cfc:	f003 037f 	and.w	r3, r3, #127	@ 0x7f
 8001d00:	697a      	ldr	r2, [r7, #20]
 8001d02:	fb03 f202 	mul.w	r2, r3, r2
 8001d06:	687b      	ldr	r3, [r7, #4]
 8001d08:	fbb2 f3f3 	udiv	r3, r2, r3
 8001d0c:	617b      	str	r3, [r7, #20]
    pllr = ((READ_BIT(RCC->PLLCFGR, RCC_PLLCFGR_PLLR) >> RCC_PLLCFGR_PLLR_Pos) + 1U ) * 2U;
 8001d0e:	4b0a      	ldr	r3, [pc, #40]	@ (8001d38 <HAL_RCC_GetSysClockFreq+0x108>)
 8001d10:	68db      	ldr	r3, [r3, #12]
 8001d12:	0e5b      	lsrs	r3, r3, #25
 8001d14:	f003 0303 	and.w	r3, r3, #3
 8001d18:	3301      	adds	r3, #1
 8001d1a:	005b      	lsls	r3, r3, #1
 8001d1c:	603b      	str	r3, [r7, #0]
    sysclockfreq = pllvco / pllr;
 8001d1e:	697a      	ldr	r2, [r7, #20]
 8001d20:	683b      	ldr	r3, [r7, #0]
 8001d22:	fbb2 f3f3 	udiv	r3, r2, r3
 8001d26:	61bb      	str	r3, [r7, #24]
  }

  return sysclockfreq;
 8001d28:	69bb      	ldr	r3, [r7, #24]
}
 8001d2a:	4618      	mov	r0, r3
 8001d2c:	3724      	adds	r7, #36	@ 0x24
 8001d2e:	46bd      	mov	sp, r7
 8001d30:	f85d 7b04 	ldr.w	r7, [sp], #4
 8001d34:	4770      	bx	lr
 8001d36:	bf00      	nop
 8001d38:	40021000 	.word	0x40021000
 8001d3c:	08005230 	.word	0x08005230
 8001d40:	00f42400 	.word	0x00f42400
 8001d44:	007a1200 	.word	0x007a1200

08001d48 <HAL_RCC_GetHCLKFreq>:
  *
  * @note   The SystemCoreClock CMSIS variable is used to store System Clock Frequency.
  * @retval HCLK frequency in Hz
  */
uint32_t HAL_RCC_GetHCLKFreq(void)
{
 8001d48:	b480      	push	{r7}
 8001d4a:	af00      	add	r7, sp, #0
  return SystemCoreClock;
 8001d4c:	4b03      	ldr	r3, [pc, #12]	@ (8001d5c <HAL_RCC_GetHCLKFreq+0x14>)
 8001d4e:	681b      	ldr	r3, [r3, #0]
}
 8001d50:	4618      	mov	r0, r3
 8001d52:	46bd      	mov	sp, r7
 8001d54:	f85d 7b04 	ldr.w	r7, [sp], #4
 8001d58:	4770      	bx	lr
 8001d5a:	bf00      	nop
 8001d5c:	20000000 	.word	0x20000000

08001d60 <HAL_RCC_GetPCLK1Freq>:
  * @note   Each time PCLK1 changes, this function must be called to update the
  *         right PCLK1 value. Otherwise, any configuration based on this function will be incorrect.
  * @retval PCLK1 frequency in Hz
  */
uint32_t HAL_RCC_GetPCLK1Freq(void)
{
 8001d60:	b580      	push	{r7, lr}
 8001d62:	af00      	add	r7, sp, #0
  /* Get HCLK source and Compute PCLK1 frequency ---------------------------*/
  return (HAL_RCC_GetHCLKFreq() >> (APBPrescTable[READ_BIT(RCC->CFGR, RCC_CFGR_PPRE1) >> RCC_CFGR_PPRE1_Pos] & 0x1FU));
 8001d64:	f7ff fff0 	bl	8001d48 <HAL_RCC_GetHCLKFreq>
 8001d68:	4602      	mov	r2, r0
 8001d6a:	4b06      	ldr	r3, [pc, #24]	@ (8001d84 <HAL_RCC_GetPCLK1Freq+0x24>)
 8001d6c:	689b      	ldr	r3, [r3, #8]
 8001d6e:	0a1b      	lsrs	r3, r3, #8
 8001d70:	f003 0307 	and.w	r3, r3, #7
 8001d74:	4904      	ldr	r1, [pc, #16]	@ (8001d88 <HAL_RCC_GetPCLK1Freq+0x28>)
 8001d76:	5ccb      	ldrb	r3, [r1, r3]
 8001d78:	f003 031f 	and.w	r3, r3, #31
 8001d7c:	fa22 f303 	lsr.w	r3, r2, r3
}
 8001d80:	4618      	mov	r0, r3
 8001d82:	bd80      	pop	{r7, pc}
 8001d84:	40021000 	.word	0x40021000
 8001d88:	08005228 	.word	0x08005228

08001d8c <HAL_RCC_GetPCLK2Freq>:
  * @note   Each time PCLK2 changes, this function must be called to update the
  *         right PCLK2 value. Otherwise, any configuration based on this function will be incorrect.
  * @retval PCLK2 frequency in Hz
  */
uint32_t HAL_RCC_GetPCLK2Freq(void)
{
 8001d8c:	b580      	push	{r7, lr}
 8001d8e:	af00      	add	r7, sp, #0
  /* Get HCLK source and Compute PCLK2 frequency ---------------------------*/
  return (HAL_RCC_GetHCLKFreq()>> (APBPrescTable[READ_BIT(RCC->CFGR, RCC_CFGR_PPRE2) >> RCC_CFGR_PPRE2_Pos] & 0x1FU));
 8001d90:	f7ff ffda 	bl	8001d48 <HAL_RCC_GetHCLKFreq>
 8001d94:	4602      	mov	r2, r0
 8001d96:	4b06      	ldr	r3, [pc, #24]	@ (8001db0 <HAL_RCC_GetPCLK2Freq+0x24>)
 8001d98:	689b      	ldr	r3, [r3, #8]
 8001d9a:	0adb      	lsrs	r3, r3, #11
 8001d9c:	f003 0307 	and.w	r3, r3, #7
 8001da0:	4904      	ldr	r1, [pc, #16]	@ (8001db4 <HAL_RCC_GetPCLK2Freq+0x28>)
 8001da2:	5ccb      	ldrb	r3, [r1, r3]
 8001da4:	f003 031f 	and.w	r3, r3, #31
 8001da8:	fa22 f303 	lsr.w	r3, r2, r3
}
 8001dac:	4618      	mov	r0, r3
 8001dae:	bd80      	pop	{r7, pc}
 8001db0:	40021000 	.word	0x40021000
 8001db4:	08005228 	.word	0x08005228

08001db8 <RCC_SetFlashLatencyFromMSIRange>:
            voltage range.
  * @param  msirange  MSI range value from RCC_MSIRANGE_0 to RCC_MSIRANGE_11
  * @retval HAL status
  */
static HAL_StatusTypeDef RCC_SetFlashLatencyFromMSIRange(uint32_t msirange)
{
 8001db8:	b580      	push	{r7, lr}
 8001dba:	b086      	sub	sp, #24
 8001dbc:	af00      	add	r7, sp, #0
 8001dbe:	6078      	str	r0, [r7, #4]
  uint32_t vos;
  uint32_t latency = FLASH_LATENCY_0;  /* default value 0WS */
 8001dc0:	2300      	movs	r3, #0
 8001dc2:	613b      	str	r3, [r7, #16]

  if(__HAL_RCC_PWR_IS_CLK_ENABLED())
 8001dc4:	4b2a      	ldr	r3, [pc, #168]	@ (8001e70 <RCC_SetFlashLatencyFromMSIRange+0xb8>)
 8001dc6:	6d9b      	ldr	r3, [r3, #88]	@ 0x58
 8001dc8:	f003 5380 	and.w	r3, r3, #268435456	@ 0x10000000
 8001dcc:	2b00      	cmp	r3, #0
 8001dce:	d003      	beq.n	8001dd8 <RCC_SetFlashLatencyFromMSIRange+0x20>
  {
    vos = HAL_PWREx_GetVoltageRange();
 8001dd0:	f7ff f9ee 	bl	80011b0 <HAL_PWREx_GetVoltageRange>
 8001dd4:	6178      	str	r0, [r7, #20]
 8001dd6:	e014      	b.n	8001e02 <RCC_SetFlashLatencyFromMSIRange+0x4a>
  }
  else
  {
    __HAL_RCC_PWR_CLK_ENABLE();
 8001dd8:	4b25      	ldr	r3, [pc, #148]	@ (8001e70 <RCC_SetFlashLatencyFromMSIRange+0xb8>)
 8001dda:	6d9b      	ldr	r3, [r3, #88]	@ 0x58
 8001ddc:	4a24      	ldr	r2, [pc, #144]	@ (8001e70 <RCC_SetFlashLatencyFromMSIRange+0xb8>)
 8001dde:	f043 5380 	orr.w	r3, r3, #268435456	@ 0x10000000
 8001de2:	6593      	str	r3, [r2, #88]	@ 0x58
 8001de4:	4b22      	ldr	r3, [pc, #136]	@ (8001e70 <RCC_SetFlashLatencyFromMSIRange+0xb8>)
 8001de6:	6d9b      	ldr	r3, [r3, #88]	@ 0x58
 8001de8:	f003 5380 	and.w	r3, r3, #268435456	@ 0x10000000
 8001dec:	60fb      	str	r3, [r7, #12]
 8001dee:	68fb      	ldr	r3, [r7, #12]
    vos = HAL_PWREx_GetVoltageRange();
 8001df0:	f7ff f9de 	bl	80011b0 <HAL_PWREx_GetVoltageRange>
 8001df4:	6178      	str	r0, [r7, #20]
    __HAL_RCC_PWR_CLK_DISABLE();
 8001df6:	4b1e      	ldr	r3, [pc, #120]	@ (8001e70 <RCC_SetFlashLatencyFromMSIRange+0xb8>)
 8001df8:	6d9b      	ldr	r3, [r3, #88]	@ 0x58
 8001dfa:	4a1d      	ldr	r2, [pc, #116]	@ (8001e70 <RCC_SetFlashLatencyFromMSIRange+0xb8>)
 8001dfc:	f023 5380 	bic.w	r3, r3, #268435456	@ 0x10000000
 8001e00:	6593      	str	r3, [r2, #88]	@ 0x58
  }

  if(vos == PWR_REGULATOR_VOLTAGE_SCALE1)
 8001e02:	697b      	ldr	r3, [r7, #20]
 8001e04:	f5b3 7f00 	cmp.w	r3, #512	@ 0x200
 8001e08:	d10b      	bne.n	8001e22 <RCC_SetFlashLatencyFromMSIRange+0x6a>
  {
    if(msirange > RCC_MSIRANGE_8)
 8001e0a:	687b      	ldr	r3, [r7, #4]
 8001e0c:	2b80      	cmp	r3, #128	@ 0x80
 8001e0e:	d919      	bls.n	8001e44 <RCC_SetFlashLatencyFromMSIRange+0x8c>
    {
      /* MSI > 16Mhz */
      if(msirange > RCC_MSIRANGE_10)
 8001e10:	687b      	ldr	r3, [r7, #4]
 8001e12:	2ba0      	cmp	r3, #160	@ 0xa0
 8001e14:	d902      	bls.n	8001e1c <RCC_SetFlashLatencyFromMSIRange+0x64>
      {
        /* MSI 48Mhz */
        latency = FLASH_LATENCY_2; /* 2WS */
 8001e16:	2302      	movs	r3, #2
 8001e18:	613b      	str	r3, [r7, #16]
 8001e1a:	e013      	b.n	8001e44 <RCC_SetFlashLatencyFromMSIRange+0x8c>
      }
      else
      {
        /* MSI 24Mhz or 32Mhz */
        latency = FLASH_LATENCY_1; /* 1WS */
 8001e1c:	2301      	movs	r3, #1
 8001e1e:	613b      	str	r3, [r7, #16]
 8001e20:	e010      	b.n	8001e44 <RCC_SetFlashLatencyFromMSIRange+0x8c>
        latency = FLASH_LATENCY_1; /* 1WS */
      }
      /* else MSI < 8Mhz default FLASH_LATENCY_0 0WS */
    }
#else
    if(msirange > RCC_MSIRANGE_8)
 8001e22:	687b      	ldr	r3, [r7, #4]
 8001e24:	2b80      	cmp	r3, #128	@ 0x80
 8001e26:	d902      	bls.n	8001e2e <RCC_SetFlashLatencyFromMSIRange+0x76>
    {
      /* MSI > 16Mhz */
      latency = FLASH_LATENCY_3; /* 3WS */
 8001e28:	2303      	movs	r3, #3
 8001e2a:	613b      	str	r3, [r7, #16]
 8001e2c:	e00a      	b.n	8001e44 <RCC_SetFlashLatencyFromMSIRange+0x8c>
    }
    else
    {
      if(msirange == RCC_MSIRANGE_8)
 8001e2e:	687b      	ldr	r3, [r7, #4]
 8001e30:	2b80      	cmp	r3, #128	@ 0x80
 8001e32:	d102      	bne.n	8001e3a <RCC_SetFlashLatencyFromMSIRange+0x82>
      {
        /* MSI 16Mhz */
        latency = FLASH_LATENCY_2; /* 2WS */
 8001e34:	2302      	movs	r3, #2
 8001e36:	613b      	str	r3, [r7, #16]
 8001e38:	e004      	b.n	8001e44 <RCC_SetFlashLatencyFromMSIRange+0x8c>
      }
      else if(msirange == RCC_MSIRANGE_7)
 8001e3a:	687b      	ldr	r3, [r7, #4]
 8001e3c:	2b70      	cmp	r3, #112	@ 0x70
 8001e3e:	d101      	bne.n	8001e44 <RCC_SetFlashLatencyFromMSIRange+0x8c>
      {
        /* MSI 8Mhz */
        latency = FLASH_LATENCY_1; /* 1WS */
 8001e40:	2301      	movs	r3, #1
 8001e42:	613b      	str	r3, [r7, #16]
      }
    }
#endif
  }

  __HAL_FLASH_SET_LATENCY(latency);
 8001e44:	4b0b      	ldr	r3, [pc, #44]	@ (8001e74 <RCC_SetFlashLatencyFromMSIRange+0xbc>)
 8001e46:	681b      	ldr	r3, [r3, #0]
 8001e48:	f023 0207 	bic.w	r2, r3, #7
 8001e4c:	4909      	ldr	r1, [pc, #36]	@ (8001e74 <RCC_SetFlashLatencyFromMSIRange+0xbc>)
 8001e4e:	693b      	ldr	r3, [r7, #16]
 8001e50:	4313      	orrs	r3, r2
 8001e52:	600b      	str	r3, [r1, #0]

  /* Check that the new number of wait states is taken into account to access the Flash
     memory by reading the FLASH_ACR register */
  if(__HAL_FLASH_GET_LATENCY() != latency)
 8001e54:	4b07      	ldr	r3, [pc, #28]	@ (8001e74 <RCC_SetFlashLatencyFromMSIRange+0xbc>)
 8001e56:	681b      	ldr	r3, [r3, #0]
 8001e58:	f003 0307 	and.w	r3, r3, #7
 8001e5c:	693a      	ldr	r2, [r7, #16]
 8001e5e:	429a      	cmp	r2, r3
 8001e60:	d001      	beq.n	8001e66 <RCC_SetFlashLatencyFromMSIRange+0xae>
  {
    return HAL_ERROR;
 8001e62:	2301      	movs	r3, #1
 8001e64:	e000      	b.n	8001e68 <RCC_SetFlashLatencyFromMSIRange+0xb0>
  }

  return HAL_OK;
 8001e66:	2300      	movs	r3, #0
}
 8001e68:	4618      	mov	r0, r3
 8001e6a:	3718      	adds	r7, #24
 8001e6c:	46bd      	mov	sp, r7
 8001e6e:	bd80      	pop	{r7, pc}
 8001e70:	40021000 	.word	0x40021000
 8001e74:	40022000 	.word	0x40022000

08001e78 <HAL_RCCEx_PeriphCLKConfig>:
  *         the RTC clock source: in this case the access to Backup domain is enabled.
  *
  * @retval HAL status
  */
HAL_StatusTypeDef HAL_RCCEx_PeriphCLKConfig(RCC_PeriphCLKInitTypeDef  *PeriphClkInit)
{
 8001e78:	b580      	push	{r7, lr}
 8001e7a:	b086      	sub	sp, #24
 8001e7c:	af00      	add	r7, sp, #0
 8001e7e:	6078      	str	r0, [r7, #4]
  uint32_t tmpregister, tickstart;     /* no init needed */
  HAL_StatusTypeDef ret = HAL_OK;      /* Intermediate status */
 8001e80:	2300      	movs	r3, #0
 8001e82:	74fb      	strb	r3, [r7, #19]
  HAL_StatusTypeDef status = HAL_OK;   /* Final status */
 8001e84:	2300      	movs	r3, #0
 8001e86:	74bb      	strb	r3, [r7, #18]
  assert_param(IS_RCC_PERIPHCLOCK(PeriphClkInit->PeriphClockSelection));

#if defined(SAI1)

  /*-------------------------- SAI1 clock source configuration ---------------------*/
  if((((PeriphClkInit->PeriphClockSelection) & RCC_PERIPHCLK_SAI1) == RCC_PERIPHCLK_SAI1))
 8001e88:	687b      	ldr	r3, [r7, #4]
 8001e8a:	681b      	ldr	r3, [r3, #0]
 8001e8c:	f403 6300 	and.w	r3, r3, #2048	@ 0x800
 8001e90:	2b00      	cmp	r3, #0
 8001e92:	d041      	beq.n	8001f18 <HAL_RCCEx_PeriphCLKConfig+0xa0>
  {
    /* Check the parameters */
    assert_param(IS_RCC_SAI1CLK(PeriphClkInit->Sai1ClockSelection));

    switch(PeriphClkInit->Sai1ClockSelection)
 8001e94:	687b      	ldr	r3, [r7, #4]
 8001e96:	6e5b      	ldr	r3, [r3, #100]	@ 0x64
 8001e98:	f5b3 0f40 	cmp.w	r3, #12582912	@ 0xc00000
 8001e9c:	d02a      	beq.n	8001ef4 <HAL_RCCEx_PeriphCLKConfig+0x7c>
 8001e9e:	f5b3 0f40 	cmp.w	r3, #12582912	@ 0xc00000
 8001ea2:	d824      	bhi.n	8001eee <HAL_RCCEx_PeriphCLKConfig+0x76>
 8001ea4:	f5b3 0f00 	cmp.w	r3, #8388608	@ 0x800000
 8001ea8:	d008      	beq.n	8001ebc <HAL_RCCEx_PeriphCLKConfig+0x44>
 8001eaa:	f5b3 0f00 	cmp.w	r3, #8388608	@ 0x800000
 8001eae:	d81e      	bhi.n	8001eee <HAL_RCCEx_PeriphCLKConfig+0x76>
 8001eb0:	2b00      	cmp	r3, #0
 8001eb2:	d00a      	beq.n	8001eca <HAL_RCCEx_PeriphCLKConfig+0x52>
 8001eb4:	f5b3 0f80 	cmp.w	r3, #4194304	@ 0x400000
 8001eb8:	d010      	beq.n	8001edc <HAL_RCCEx_PeriphCLKConfig+0x64>
 8001eba:	e018      	b.n	8001eee <HAL_RCCEx_PeriphCLKConfig+0x76>
    {
    case RCC_SAI1CLKSOURCE_PLL:      /* PLL is used as clock source for SAI1*/
      /* Enable SAI Clock output generated from System PLL . */
#if defined(RCC_PLLSAI2_SUPPORT)
      __HAL_RCC_PLLCLKOUT_ENABLE(RCC_PLL_SAI3CLK);
 8001ebc:	4b86      	ldr	r3, [pc, #536]	@ (80020d8 <HAL_RCCEx_PeriphCLKConfig+0x260>)
 8001ebe:	68db      	ldr	r3, [r3, #12]
 8001ec0:	4a85      	ldr	r2, [pc, #532]	@ (80020d8 <HAL_RCCEx_PeriphCLKConfig+0x260>)
 8001ec2:	f443 3380 	orr.w	r3, r3, #65536	@ 0x10000
 8001ec6:	60d3      	str	r3, [r2, #12]
#else
      __HAL_RCC_PLLCLKOUT_ENABLE(RCC_PLL_SAI2CLK);
#endif /* RCC_PLLSAI2_SUPPORT */
      /* SAI1 clock source config set later after clock selection check */
      break;
 8001ec8:	e015      	b.n	8001ef6 <HAL_RCCEx_PeriphCLKConfig+0x7e>

    case RCC_SAI1CLKSOURCE_PLLSAI1:  /* PLLSAI1 is used as clock source for SAI1*/
      /* PLLSAI1 input clock, parameters M, N & P configuration and clock output (PLLSAI1ClockOut) */
      ret = RCCEx_PLLSAI1_Config(&(PeriphClkInit->PLLSAI1), DIVIDER_P_UPDATE);
 8001eca:	687b      	ldr	r3, [r7, #4]
 8001ecc:	3304      	adds	r3, #4
 8001ece:	2100      	movs	r1, #0
 8001ed0:	4618      	mov	r0, r3
 8001ed2:	f000 fabb 	bl	800244c <RCCEx_PLLSAI1_Config>
 8001ed6:	4603      	mov	r3, r0
 8001ed8:	74fb      	strb	r3, [r7, #19]
      /* SAI1 clock source config set later after clock selection check */
      break;
 8001eda:	e00c      	b.n	8001ef6 <HAL_RCCEx_PeriphCLKConfig+0x7e>

#if defined(RCC_PLLSAI2_SUPPORT)

    case RCC_SAI1CLKSOURCE_PLLSAI2:  /* PLLSAI2 is used as clock source for SAI1*/
      /* PLLSAI2 input clock, parameters M, N & P configuration clock output (PLLSAI2ClockOut) */
      ret = RCCEx_PLLSAI2_Config(&(PeriphClkInit->PLLSAI2), DIVIDER_P_UPDATE);
 8001edc:	687b      	ldr	r3, [r7, #4]
 8001ede:	3320      	adds	r3, #32
 8001ee0:	2100      	movs	r1, #0
 8001ee2:	4618      	mov	r0, r3
 8001ee4:	f000 fba6 	bl	8002634 <RCCEx_PLLSAI2_Config>
 8001ee8:	4603      	mov	r3, r0
 8001eea:	74fb      	strb	r3, [r7, #19]
      /* SAI1 clock source config set later after clock selection check */
      break;
 8001eec:	e003      	b.n	8001ef6 <HAL_RCCEx_PeriphCLKConfig+0x7e>
#endif /* STM32L4P5xx || STM32L4Q5xx || STM32L4R5xx || STM32L4R7xx || STM32L4R9xx || STM32L4S5xx || STM32L4S7xx || STM32L4S9xx */
      /* SAI1 clock source config set later after clock selection check */
      break;

    default:
      ret = HAL_ERROR;
 8001eee:	2301      	movs	r3, #1
 8001ef0:	74fb      	strb	r3, [r7, #19]
      break;
 8001ef2:	e000      	b.n	8001ef6 <HAL_RCCEx_PeriphCLKConfig+0x7e>
      break;
 8001ef4:	bf00      	nop
    }

    if(ret == HAL_OK)
 8001ef6:	7cfb      	ldrb	r3, [r7, #19]
 8001ef8:	2b00      	cmp	r3, #0
 8001efa:	d10b      	bne.n	8001f14 <HAL_RCCEx_PeriphCLKConfig+0x9c>
    {
      /* Set the source of SAI1 clock*/
      __HAL_RCC_SAI1_CONFIG(PeriphClkInit->Sai1ClockSelection);
 8001efc:	4b76      	ldr	r3, [pc, #472]	@ (80020d8 <HAL_RCCEx_PeriphCLKConfig+0x260>)
 8001efe:	f8d3 3088 	ldr.w	r3, [r3, #136]	@ 0x88
 8001f02:	f423 0240 	bic.w	r2, r3, #12582912	@ 0xc00000
 8001f06:	687b      	ldr	r3, [r7, #4]
 8001f08:	6e5b      	ldr	r3, [r3, #100]	@ 0x64
 8001f0a:	4973      	ldr	r1, [pc, #460]	@ (80020d8 <HAL_RCCEx_PeriphCLKConfig+0x260>)
 8001f0c:	4313      	orrs	r3, r2
 8001f0e:	f8c1 3088 	str.w	r3, [r1, #136]	@ 0x88
 8001f12:	e001      	b.n	8001f18 <HAL_RCCEx_PeriphCLKConfig+0xa0>
    }
    else
    {
      /* set overall return value */
      status = ret;
 8001f14:	7cfb      	ldrb	r3, [r7, #19]
 8001f16:	74bb      	strb	r3, [r7, #18]
#endif /* SAI1 */

#if defined(SAI2)

  /*-------------------------- SAI2 clock source configuration ---------------------*/
  if((((PeriphClkInit->PeriphClockSelection) & RCC_PERIPHCLK_SAI2) == RCC_PERIPHCLK_SAI2))
 8001f18:	687b      	ldr	r3, [r7, #4]
 8001f1a:	681b      	ldr	r3, [r3, #0]
 8001f1c:	f403 5380 	and.w	r3, r3, #4096	@ 0x1000
 8001f20:	2b00      	cmp	r3, #0
 8001f22:	d041      	beq.n	8001fa8 <HAL_RCCEx_PeriphCLKConfig+0x130>
  {
    /* Check the parameters */
    assert_param(IS_RCC_SAI2CLK(PeriphClkInit->Sai2ClockSelection));

    switch(PeriphClkInit->Sai2ClockSelection)
 8001f24:	687b      	ldr	r3, [r7, #4]
 8001f26:	6e9b      	ldr	r3, [r3, #104]	@ 0x68
 8001f28:	f1b3 7f40 	cmp.w	r3, #50331648	@ 0x3000000
 8001f2c:	d02a      	beq.n	8001f84 <HAL_RCCEx_PeriphCLKConfig+0x10c>
 8001f2e:	f1b3 7f40 	cmp.w	r3, #50331648	@ 0x3000000
 8001f32:	d824      	bhi.n	8001f7e <HAL_RCCEx_PeriphCLKConfig+0x106>
 8001f34:	f1b3 7f00 	cmp.w	r3, #33554432	@ 0x2000000
 8001f38:	d008      	beq.n	8001f4c <HAL_RCCEx_PeriphCLKConfig+0xd4>
 8001f3a:	f1b3 7f00 	cmp.w	r3, #33554432	@ 0x2000000
 8001f3e:	d81e      	bhi.n	8001f7e <HAL_RCCEx_PeriphCLKConfig+0x106>
 8001f40:	2b00      	cmp	r3, #0
 8001f42:	d00a      	beq.n	8001f5a <HAL_RCCEx_PeriphCLKConfig+0xe2>
 8001f44:	f1b3 7f80 	cmp.w	r3, #16777216	@ 0x1000000
 8001f48:	d010      	beq.n	8001f6c <HAL_RCCEx_PeriphCLKConfig+0xf4>
 8001f4a:	e018      	b.n	8001f7e <HAL_RCCEx_PeriphCLKConfig+0x106>
    {
    case RCC_SAI2CLKSOURCE_PLL:      /* PLL is used as clock source for SAI2*/
      /* Enable SAI Clock output generated from System PLL . */
      __HAL_RCC_PLLCLKOUT_ENABLE(RCC_PLL_SAI3CLK);
 8001f4c:	4b62      	ldr	r3, [pc, #392]	@ (80020d8 <HAL_RCCEx_PeriphCLKConfig+0x260>)
 8001f4e:	68db      	ldr	r3, [r3, #12]
 8001f50:	4a61      	ldr	r2, [pc, #388]	@ (80020d8 <HAL_RCCEx_PeriphCLKConfig+0x260>)
 8001f52:	f443 3380 	orr.w	r3, r3, #65536	@ 0x10000
 8001f56:	60d3      	str	r3, [r2, #12]
      /* SAI2 clock source config set later after clock selection check */
      break;
 8001f58:	e015      	b.n	8001f86 <HAL_RCCEx_PeriphCLKConfig+0x10e>

    case RCC_SAI2CLKSOURCE_PLLSAI1: /* PLLSAI1 is used as clock source for SAI2*/
      /* PLLSAI1 input clock, parameters M, N & P configuration and clock output (PLLSAI1ClockOut) */
      ret = RCCEx_PLLSAI1_Config(&(PeriphClkInit->PLLSAI1), DIVIDER_P_UPDATE);
 8001f5a:	687b      	ldr	r3, [r7, #4]
 8001f5c:	3304      	adds	r3, #4
 8001f5e:	2100      	movs	r1, #0
 8001f60:	4618      	mov	r0, r3
 8001f62:	f000 fa73 	bl	800244c <RCCEx_PLLSAI1_Config>
 8001f66:	4603      	mov	r3, r0
 8001f68:	74fb      	strb	r3, [r7, #19]
      /* SAI2 clock source config set later after clock selection check */
      break;
 8001f6a:	e00c      	b.n	8001f86 <HAL_RCCEx_PeriphCLKConfig+0x10e>

    case RCC_SAI2CLKSOURCE_PLLSAI2:  /* PLLSAI2 is used as clock source for SAI2*/
      /* PLLSAI2 input clock, parameters M, N & P configuration and clock output (PLLSAI2ClockOut) */
      ret = RCCEx_PLLSAI2_Config(&(PeriphClkInit->PLLSAI2), DIVIDER_P_UPDATE);
 8001f6c:	687b      	ldr	r3, [r7, #4]
 8001f6e:	3320      	adds	r3, #32
 8001f70:	2100      	movs	r1, #0
 8001f72:	4618      	mov	r0, r3
 8001f74:	f000 fb5e 	bl	8002634 <RCCEx_PLLSAI2_Config>
 8001f78:	4603      	mov	r3, r0
 8001f7a:	74fb      	strb	r3, [r7, #19]
      /* SAI2 clock source config set later after clock selection check */
      break;
 8001f7c:	e003      	b.n	8001f86 <HAL_RCCEx_PeriphCLKConfig+0x10e>
#endif /* STM32L4P5xx || STM32L4Q5xx || STM32L4R5xx || STM32L4R7xx || STM32L4R9xx || STM32L4S5xx || STM32L4S7xx || STM32L4S9xx */
      /* SAI2 clock source config set later after clock selection check */
      break;

    default:
      ret = HAL_ERROR;
 8001f7e:	2301      	movs	r3, #1
 8001f80:	74fb      	strb	r3, [r7, #19]
      break;
 8001f82:	e000      	b.n	8001f86 <HAL_RCCEx_PeriphCLKConfig+0x10e>
      break;
 8001f84:	bf00      	nop
    }

    if(ret == HAL_OK)
 8001f86:	7cfb      	ldrb	r3, [r7, #19]
 8001f88:	2b00      	cmp	r3, #0
 8001f8a:	d10b      	bne.n	8001fa4 <HAL_RCCEx_PeriphCLKConfig+0x12c>
    {
      /* Set the source of SAI2 clock*/
      __HAL_RCC_SAI2_CONFIG(PeriphClkInit->Sai2ClockSelection);
 8001f8c:	4b52      	ldr	r3, [pc, #328]	@ (80020d8 <HAL_RCCEx_PeriphCLKConfig+0x260>)
 8001f8e:	f8d3 3088 	ldr.w	r3, [r3, #136]	@ 0x88
 8001f92:	f023 7240 	bic.w	r2, r3, #50331648	@ 0x3000000
 8001f96:	687b      	ldr	r3, [r7, #4]
 8001f98:	6e9b      	ldr	r3, [r3, #104]	@ 0x68
 8001f9a:	494f      	ldr	r1, [pc, #316]	@ (80020d8 <HAL_RCCEx_PeriphCLKConfig+0x260>)
 8001f9c:	4313      	orrs	r3, r2
 8001f9e:	f8c1 3088 	str.w	r3, [r1, #136]	@ 0x88
 8001fa2:	e001      	b.n	8001fa8 <HAL_RCCEx_PeriphCLKConfig+0x130>
    }
    else
    {
      /* set overall return value */
      status = ret;
 8001fa4:	7cfb      	ldrb	r3, [r7, #19]
 8001fa6:	74bb      	strb	r3, [r7, #18]
    }
  }
#endif /* SAI2 */

  /*-------------------------- RTC clock source configuration ----------------------*/
  if((PeriphClkInit->PeriphClockSelection & RCC_PERIPHCLK_RTC) == RCC_PERIPHCLK_RTC)
 8001fa8:	687b      	ldr	r3, [r7, #4]
 8001faa:	681b      	ldr	r3, [r3, #0]
 8001fac:	f403 3300 	and.w	r3, r3, #131072	@ 0x20000
 8001fb0:	2b00      	cmp	r3, #0
 8001fb2:	f000 80a0 	beq.w	80020f6 <HAL_RCCEx_PeriphCLKConfig+0x27e>
  {
    FlagStatus       pwrclkchanged = RESET;
 8001fb6:	2300      	movs	r3, #0
 8001fb8:	747b      	strb	r3, [r7, #17]

    /* Check for RTC Parameters used to output RTCCLK */
    assert_param(IS_RCC_RTCCLKSOURCE(PeriphClkInit->RTCClockSelection));

    /* Enable Power Clock */
    if(__HAL_RCC_PWR_IS_CLK_DISABLED() != 0U)
 8001fba:	4b47      	ldr	r3, [pc, #284]	@ (80020d8 <HAL_RCCEx_PeriphCLKConfig+0x260>)
 8001fbc:	6d9b      	ldr	r3, [r3, #88]	@ 0x58
 8001fbe:	f003 5380 	and.w	r3, r3, #268435456	@ 0x10000000
 8001fc2:	2b00      	cmp	r3, #0
 8001fc4:	d101      	bne.n	8001fca <HAL_RCCEx_PeriphCLKConfig+0x152>
 8001fc6:	2301      	movs	r3, #1
 8001fc8:	e000      	b.n	8001fcc <HAL_RCCEx_PeriphCLKConfig+0x154>
 8001fca:	2300      	movs	r3, #0
 8001fcc:	2b00      	cmp	r3, #0
 8001fce:	d00d      	beq.n	8001fec <HAL_RCCEx_PeriphCLKConfig+0x174>
    {
      __HAL_RCC_PWR_CLK_ENABLE();
 8001fd0:	4b41      	ldr	r3, [pc, #260]	@ (80020d8 <HAL_RCCEx_PeriphCLKConfig+0x260>)
 8001fd2:	6d9b      	ldr	r3, [r3, #88]	@ 0x58
 8001fd4:	4a40      	ldr	r2, [pc, #256]	@ (80020d8 <HAL_RCCEx_PeriphCLKConfig+0x260>)
 8001fd6:	f043 5380 	orr.w	r3, r3, #268435456	@ 0x10000000
 8001fda:	6593      	str	r3, [r2, #88]	@ 0x58
 8001fdc:	4b3e      	ldr	r3, [pc, #248]	@ (80020d8 <HAL_RCCEx_PeriphCLKConfig+0x260>)
 8001fde:	6d9b      	ldr	r3, [r3, #88]	@ 0x58
 8001fe0:	f003 5380 	and.w	r3, r3, #268435456	@ 0x10000000
 8001fe4:	60bb      	str	r3, [r7, #8]
 8001fe6:	68bb      	ldr	r3, [r7, #8]
      pwrclkchanged = SET;
 8001fe8:	2301      	movs	r3, #1
 8001fea:	747b      	strb	r3, [r7, #17]
    }

    /* Enable write access to Backup domain */
    SET_BIT(PWR->CR1, PWR_CR1_DBP);
 8001fec:	4b3b      	ldr	r3, [pc, #236]	@ (80020dc <HAL_RCCEx_PeriphCLKConfig+0x264>)
 8001fee:	681b      	ldr	r3, [r3, #0]
 8001ff0:	4a3a      	ldr	r2, [pc, #232]	@ (80020dc <HAL_RCCEx_PeriphCLKConfig+0x264>)
 8001ff2:	f443 7380 	orr.w	r3, r3, #256	@ 0x100
 8001ff6:	6013      	str	r3, [r2, #0]

    /* Wait for Backup domain Write protection disable */
    tickstart = HAL_GetTick();
 8001ff8:	f7fe fe0c 	bl	8000c14 <HAL_GetTick>
 8001ffc:	60f8      	str	r0, [r7, #12]

    while(READ_BIT(PWR->CR1, PWR_CR1_DBP) == 0U)
 8001ffe:	e009      	b.n	8002014 <HAL_RCCEx_PeriphCLKConfig+0x19c>
    {
      if((HAL_GetTick() - tickstart) > RCC_DBP_TIMEOUT_VALUE)
 8002000:	f7fe fe08 	bl	8000c14 <HAL_GetTick>
 8002004:	4602      	mov	r2, r0
 8002006:	68fb      	ldr	r3, [r7, #12]
 8002008:	1ad3      	subs	r3, r2, r3
 800200a:	2b02      	cmp	r3, #2
 800200c:	d902      	bls.n	8002014 <HAL_RCCEx_PeriphCLKConfig+0x19c>
      {
        ret = HAL_TIMEOUT;
 800200e:	2303      	movs	r3, #3
 8002010:	74fb      	strb	r3, [r7, #19]
        break;
 8002012:	e005      	b.n	8002020 <HAL_RCCEx_PeriphCLKConfig+0x1a8>
    while(READ_BIT(PWR->CR1, PWR_CR1_DBP) == 0U)
 8002014:	4b31      	ldr	r3, [pc, #196]	@ (80020dc <HAL_RCCEx_PeriphCLKConfig+0x264>)
 8002016:	681b      	ldr	r3, [r3, #0]
 8002018:	f403 7380 	and.w	r3, r3, #256	@ 0x100
 800201c:	2b00      	cmp	r3, #0
 800201e:	d0ef      	beq.n	8002000 <HAL_RCCEx_PeriphCLKConfig+0x188>
      }
    }

    if(ret == HAL_OK)
 8002020:	7cfb      	ldrb	r3, [r7, #19]
 8002022:	2b00      	cmp	r3, #0
 8002024:	d15c      	bne.n	80020e0 <HAL_RCCEx_PeriphCLKConfig+0x268>
    {
      /* Reset the Backup domain only if the RTC Clock source selection is modified from default */
      tmpregister = READ_BIT(RCC->BDCR, RCC_BDCR_RTCSEL);
 8002026:	4b2c      	ldr	r3, [pc, #176]	@ (80020d8 <HAL_RCCEx_PeriphCLKConfig+0x260>)
 8002028:	f8d3 3090 	ldr.w	r3, [r3, #144]	@ 0x90
 800202c:	f403 7340 	and.w	r3, r3, #768	@ 0x300
 8002030:	617b      	str	r3, [r7, #20]

      if((tmpregister != RCC_RTCCLKSOURCE_NONE) && (tmpregister != PeriphClkInit->RTCClockSelection))
 8002032:	697b      	ldr	r3, [r7, #20]
 8002034:	2b00      	cmp	r3, #0
 8002036:	d01f      	beq.n	8002078 <HAL_RCCEx_PeriphCLKConfig+0x200>
 8002038:	687b      	ldr	r3, [r7, #4]
 800203a:	f8d3 3084 	ldr.w	r3, [r3, #132]	@ 0x84
 800203e:	697a      	ldr	r2, [r7, #20]
 8002040:	429a      	cmp	r2, r3
 8002042:	d019      	beq.n	8002078 <HAL_RCCEx_PeriphCLKConfig+0x200>
      {
        /* Store the content of BDCR register before the reset of Backup Domain */
        tmpregister = READ_BIT(RCC->BDCR, ~(RCC_BDCR_RTCSEL));
 8002044:	4b24      	ldr	r3, [pc, #144]	@ (80020d8 <HAL_RCCEx_PeriphCLKConfig+0x260>)
 8002046:	f8d3 3090 	ldr.w	r3, [r3, #144]	@ 0x90
 800204a:	f423 7340 	bic.w	r3, r3, #768	@ 0x300
 800204e:	617b      	str	r3, [r7, #20]
        /* RTC Clock selection can be changed only if the Backup Domain is reset */
        __HAL_RCC_BACKUPRESET_FORCE();
 8002050:	4b21      	ldr	r3, [pc, #132]	@ (80020d8 <HAL_RCCEx_PeriphCLKConfig+0x260>)
 8002052:	f8d3 3090 	ldr.w	r3, [r3, #144]	@ 0x90
 8002056:	4a20      	ldr	r2, [pc, #128]	@ (80020d8 <HAL_RCCEx_PeriphCLKConfig+0x260>)
 8002058:	f443 3380 	orr.w	r3, r3, #65536	@ 0x10000
 800205c:	f8c2 3090 	str.w	r3, [r2, #144]	@ 0x90
        __HAL_RCC_BACKUPRESET_RELEASE();
 8002060:	4b1d      	ldr	r3, [pc, #116]	@ (80020d8 <HAL_RCCEx_PeriphCLKConfig+0x260>)
 8002062:	f8d3 3090 	ldr.w	r3, [r3, #144]	@ 0x90
 8002066:	4a1c      	ldr	r2, [pc, #112]	@ (80020d8 <HAL_RCCEx_PeriphCLKConfig+0x260>)
 8002068:	f423 3380 	bic.w	r3, r3, #65536	@ 0x10000
 800206c:	f8c2 3090 	str.w	r3, [r2, #144]	@ 0x90
        /* Restore the Content of BDCR register */
        RCC->BDCR = tmpregister;
 8002070:	4a19      	ldr	r2, [pc, #100]	@ (80020d8 <HAL_RCCEx_PeriphCLKConfig+0x260>)
 8002072:	697b      	ldr	r3, [r7, #20]
 8002074:	f8c2 3090 	str.w	r3, [r2, #144]	@ 0x90
      }

      /* Wait for LSE reactivation if LSE was enable prior to Backup Domain reset */
      if (HAL_IS_BIT_SET(tmpregister, RCC_BDCR_LSEON))
 8002078:	697b      	ldr	r3, [r7, #20]
 800207a:	f003 0301 	and.w	r3, r3, #1
 800207e:	2b00      	cmp	r3, #0
 8002080:	d016      	beq.n	80020b0 <HAL_RCCEx_PeriphCLKConfig+0x238>
      {
        /* Get Start Tick*/
        tickstart = HAL_GetTick();
 8002082:	f7fe fdc7 	bl	8000c14 <HAL_GetTick>
 8002086:	60f8      	str	r0, [r7, #12]

        /* Wait till LSE is ready */
        while(READ_BIT(RCC->BDCR, RCC_BDCR_LSERDY) == 0U)
 8002088:	e00b      	b.n	80020a2 <HAL_RCCEx_PeriphCLKConfig+0x22a>
        {
          if((HAL_GetTick() - tickstart) > RCC_LSE_TIMEOUT_VALUE)
 800208a:	f7fe fdc3 	bl	8000c14 <HAL_GetTick>
 800208e:	4602      	mov	r2, r0
 8002090:	68fb      	ldr	r3, [r7, #12]
 8002092:	1ad3      	subs	r3, r2, r3
 8002094:	f241 3288 	movw	r2, #5000	@ 0x1388
 8002098:	4293      	cmp	r3, r2
 800209a:	d902      	bls.n	80020a2 <HAL_RCCEx_PeriphCLKConfig+0x22a>
          {
            ret = HAL_TIMEOUT;
 800209c:	2303      	movs	r3, #3
 800209e:	74fb      	strb	r3, [r7, #19]
            break;
 80020a0:	e006      	b.n	80020b0 <HAL_RCCEx_PeriphCLKConfig+0x238>
        while(READ_BIT(RCC->BDCR, RCC_BDCR_LSERDY) == 0U)
 80020a2:	4b0d      	ldr	r3, [pc, #52]	@ (80020d8 <HAL_RCCEx_PeriphCLKConfig+0x260>)
 80020a4:	f8d3 3090 	ldr.w	r3, [r3, #144]	@ 0x90
 80020a8:	f003 0302 	and.w	r3, r3, #2
 80020ac:	2b00      	cmp	r3, #0
 80020ae:	d0ec      	beq.n	800208a <HAL_RCCEx_PeriphCLKConfig+0x212>
          }
        }
      }

      if(ret == HAL_OK)
 80020b0:	7cfb      	ldrb	r3, [r7, #19]
 80020b2:	2b00      	cmp	r3, #0
 80020b4:	d10c      	bne.n	80020d0 <HAL_RCCEx_PeriphCLKConfig+0x258>
      {
        /* Apply new RTC clock source selection */
        __HAL_RCC_RTC_CONFIG(PeriphClkInit->RTCClockSelection);
 80020b6:	4b08      	ldr	r3, [pc, #32]	@ (80020d8 <HAL_RCCEx_PeriphCLKConfig+0x260>)
 80020b8:	f8d3 3090 	ldr.w	r3, [r3, #144]	@ 0x90
 80020bc:	f423 7240 	bic.w	r2, r3, #768	@ 0x300
 80020c0:	687b      	ldr	r3, [r7, #4]
 80020c2:	f8d3 3084 	ldr.w	r3, [r3, #132]	@ 0x84
 80020c6:	4904      	ldr	r1, [pc, #16]	@ (80020d8 <HAL_RCCEx_PeriphCLKConfig+0x260>)
 80020c8:	4313      	orrs	r3, r2
 80020ca:	f8c1 3090 	str.w	r3, [r1, #144]	@ 0x90
 80020ce:	e009      	b.n	80020e4 <HAL_RCCEx_PeriphCLKConfig+0x26c>
      }
      else
      {
        /* set overall return value */
        status = ret;
 80020d0:	7cfb      	ldrb	r3, [r7, #19]
 80020d2:	74bb      	strb	r3, [r7, #18]
 80020d4:	e006      	b.n	80020e4 <HAL_RCCEx_PeriphCLKConfig+0x26c>
 80020d6:	bf00      	nop
 80020d8:	40021000 	.word	0x40021000
 80020dc:	40007000 	.word	0x40007000
      }
    }
    else
    {
      /* set overall return value */
      status = ret;
 80020e0:	7cfb      	ldrb	r3, [r7, #19]
 80020e2:	74bb      	strb	r3, [r7, #18]
    }

    /* Restore clock configuration if changed */
    if(pwrclkchanged == SET)
 80020e4:	7c7b      	ldrb	r3, [r7, #17]
 80020e6:	2b01      	cmp	r3, #1
 80020e8:	d105      	bne.n	80020f6 <HAL_RCCEx_PeriphCLKConfig+0x27e>
    {
      __HAL_RCC_PWR_CLK_DISABLE();
 80020ea:	4b9e      	ldr	r3, [pc, #632]	@ (8002364 <HAL_RCCEx_PeriphCLKConfig+0x4ec>)
 80020ec:	6d9b      	ldr	r3, [r3, #88]	@ 0x58
 80020ee:	4a9d      	ldr	r2, [pc, #628]	@ (8002364 <HAL_RCCEx_PeriphCLKConfig+0x4ec>)
 80020f0:	f023 5380 	bic.w	r3, r3, #268435456	@ 0x10000000
 80020f4:	6593      	str	r3, [r2, #88]	@ 0x58
    }
  }

  /*-------------------------- USART1 clock source configuration -------------------*/
  if(((PeriphClkInit->PeriphClockSelection) & RCC_PERIPHCLK_USART1) == RCC_PERIPHCLK_USART1)
 80020f6:	687b      	ldr	r3, [r7, #4]
 80020f8:	681b      	ldr	r3, [r3, #0]
 80020fa:	f003 0301 	and.w	r3, r3, #1
 80020fe:	2b00      	cmp	r3, #0
 8002100:	d00a      	beq.n	8002118 <HAL_RCCEx_PeriphCLKConfig+0x2a0>
  {
    /* Check the parameters */
    assert_param(IS_RCC_USART1CLKSOURCE(PeriphClkInit->Usart1ClockSelection));

    /* Configure the USART1 clock source */
    __HAL_RCC_USART1_CONFIG(PeriphClkInit->Usart1ClockSelection);
 8002102:	4b98      	ldr	r3, [pc, #608]	@ (8002364 <HAL_RCCEx_PeriphCLKConfig+0x4ec>)
 8002104:	f8d3 3088 	ldr.w	r3, [r3, #136]	@ 0x88
 8002108:	f023 0203 	bic.w	r2, r3, #3
 800210c:	687b      	ldr	r3, [r7, #4]
 800210e:	6b9b      	ldr	r3, [r3, #56]	@ 0x38
 8002110:	4994      	ldr	r1, [pc, #592]	@ (8002364 <HAL_RCCEx_PeriphCLKConfig+0x4ec>)
 8002112:	4313      	orrs	r3, r2
 8002114:	f8c1 3088 	str.w	r3, [r1, #136]	@ 0x88
  }

  /*-------------------------- USART2 clock source configuration -------------------*/
  if(((PeriphClkInit->PeriphClockSelection) & RCC_PERIPHCLK_USART2) == RCC_PERIPHCLK_USART2)
 8002118:	687b      	ldr	r3, [r7, #4]
 800211a:	681b      	ldr	r3, [r3, #0]
 800211c:	f003 0302 	and.w	r3, r3, #2
 8002120:	2b00      	cmp	r3, #0
 8002122:	d00a      	beq.n	800213a <HAL_RCCEx_PeriphCLKConfig+0x2c2>
  {
    /* Check the parameters */
    assert_param(IS_RCC_USART2CLKSOURCE(PeriphClkInit->Usart2ClockSelection));

    /* Configure the USART2 clock source */
    __HAL_RCC_USART2_CONFIG(PeriphClkInit->Usart2ClockSelection);
 8002124:	4b8f      	ldr	r3, [pc, #572]	@ (8002364 <HAL_RCCEx_PeriphCLKConfig+0x4ec>)
 8002126:	f8d3 3088 	ldr.w	r3, [r3, #136]	@ 0x88
 800212a:	f023 020c 	bic.w	r2, r3, #12
 800212e:	687b      	ldr	r3, [r7, #4]
 8002130:	6bdb      	ldr	r3, [r3, #60]	@ 0x3c
 8002132:	498c      	ldr	r1, [pc, #560]	@ (8002364 <HAL_RCCEx_PeriphCLKConfig+0x4ec>)
 8002134:	4313      	orrs	r3, r2
 8002136:	f8c1 3088 	str.w	r3, [r1, #136]	@ 0x88
  }

#if defined(USART3)

  /*-------------------------- USART3 clock source configuration -------------------*/
  if(((PeriphClkInit->PeriphClockSelection) & RCC_PERIPHCLK_USART3) == RCC_PERIPHCLK_USART3)
 800213a:	687b      	ldr	r3, [r7, #4]
 800213c:	681b      	ldr	r3, [r3, #0]
 800213e:	f003 0304 	and.w	r3, r3, #4
 8002142:	2b00      	cmp	r3, #0
 8002144:	d00a      	beq.n	800215c <HAL_RCCEx_PeriphCLKConfig+0x2e4>
  {
    /* Check the parameters */
    assert_param(IS_RCC_USART3CLKSOURCE(PeriphClkInit->Usart3ClockSelection));

    /* Configure the USART3 clock source */
    __HAL_RCC_USART3_CONFIG(PeriphClkInit->Usart3ClockSelection);
 8002146:	4b87      	ldr	r3, [pc, #540]	@ (8002364 <HAL_RCCEx_PeriphCLKConfig+0x4ec>)
 8002148:	f8d3 3088 	ldr.w	r3, [r3, #136]	@ 0x88
 800214c:	f023 0230 	bic.w	r2, r3, #48	@ 0x30
 8002150:	687b      	ldr	r3, [r7, #4]
 8002152:	6c1b      	ldr	r3, [r3, #64]	@ 0x40
 8002154:	4983      	ldr	r1, [pc, #524]	@ (8002364 <HAL_RCCEx_PeriphCLKConfig+0x4ec>)
 8002156:	4313      	orrs	r3, r2
 8002158:	f8c1 3088 	str.w	r3, [r1, #136]	@ 0x88
#endif /* USART3 */

#if defined(UART4)

  /*-------------------------- UART4 clock source configuration --------------------*/
  if(((PeriphClkInit->PeriphClockSelection) & RCC_PERIPHCLK_UART4) == RCC_PERIPHCLK_UART4)
 800215c:	687b      	ldr	r3, [r7, #4]
 800215e:	681b      	ldr	r3, [r3, #0]
 8002160:	f003 0308 	and.w	r3, r3, #8
 8002164:	2b00      	cmp	r3, #0
 8002166:	d00a      	beq.n	800217e <HAL_RCCEx_PeriphCLKConfig+0x306>
  {
    /* Check the parameters */
    assert_param(IS_RCC_UART4CLKSOURCE(PeriphClkInit->Uart4ClockSelection));

    /* Configure the UART4 clock source */
    __HAL_RCC_UART4_CONFIG(PeriphClkInit->Uart4ClockSelection);
 8002168:	4b7e      	ldr	r3, [pc, #504]	@ (8002364 <HAL_RCCEx_PeriphCLKConfig+0x4ec>)
 800216a:	f8d3 3088 	ldr.w	r3, [r3, #136]	@ 0x88
 800216e:	f023 02c0 	bic.w	r2, r3, #192	@ 0xc0
 8002172:	687b      	ldr	r3, [r7, #4]
 8002174:	6c5b      	ldr	r3, [r3, #68]	@ 0x44
 8002176:	497b      	ldr	r1, [pc, #492]	@ (8002364 <HAL_RCCEx_PeriphCLKConfig+0x4ec>)
 8002178:	4313      	orrs	r3, r2
 800217a:	f8c1 3088 	str.w	r3, [r1, #136]	@ 0x88
#endif /* UART4 */

#if defined(UART5)

  /*-------------------------- UART5 clock source configuration --------------------*/
  if(((PeriphClkInit->PeriphClockSelection) & RCC_PERIPHCLK_UART5) == RCC_PERIPHCLK_UART5)
 800217e:	687b      	ldr	r3, [r7, #4]
 8002180:	681b      	ldr	r3, [r3, #0]
 8002182:	f003 0310 	and.w	r3, r3, #16
 8002186:	2b00      	cmp	r3, #0
 8002188:	d00a      	beq.n	80021a0 <HAL_RCCEx_PeriphCLKConfig+0x328>
  {
    /* Check the parameters */
    assert_param(IS_RCC_UART5CLKSOURCE(PeriphClkInit->Uart5ClockSelection));

    /* Configure the UART5 clock source */
    __HAL_RCC_UART5_CONFIG(PeriphClkInit->Uart5ClockSelection);
 800218a:	4b76      	ldr	r3, [pc, #472]	@ (8002364 <HAL_RCCEx_PeriphCLKConfig+0x4ec>)
 800218c:	f8d3 3088 	ldr.w	r3, [r3, #136]	@ 0x88
 8002190:	f423 7240 	bic.w	r2, r3, #768	@ 0x300
 8002194:	687b      	ldr	r3, [r7, #4]
 8002196:	6c9b      	ldr	r3, [r3, #72]	@ 0x48
 8002198:	4972      	ldr	r1, [pc, #456]	@ (8002364 <HAL_RCCEx_PeriphCLKConfig+0x4ec>)
 800219a:	4313      	orrs	r3, r2
 800219c:	f8c1 3088 	str.w	r3, [r1, #136]	@ 0x88
  }

#endif /* UART5 */

  /*-------------------------- LPUART1 clock source configuration ------------------*/
  if(((PeriphClkInit->PeriphClockSelection) & RCC_PERIPHCLK_LPUART1) == RCC_PERIPHCLK_LPUART1)
 80021a0:	687b      	ldr	r3, [r7, #4]
 80021a2:	681b      	ldr	r3, [r3, #0]
 80021a4:	f003 0320 	and.w	r3, r3, #32
 80021a8:	2b00      	cmp	r3, #0
 80021aa:	d00a      	beq.n	80021c2 <HAL_RCCEx_PeriphCLKConfig+0x34a>
  {
    /* Check the parameters */
    assert_param(IS_RCC_LPUART1CLKSOURCE(PeriphClkInit->Lpuart1ClockSelection));

    /* Configure the LPUART1 clock source */
    __HAL_RCC_LPUART1_CONFIG(PeriphClkInit->Lpuart1ClockSelection);
 80021ac:	4b6d      	ldr	r3, [pc, #436]	@ (8002364 <HAL_RCCEx_PeriphCLKConfig+0x4ec>)
 80021ae:	f8d3 3088 	ldr.w	r3, [r3, #136]	@ 0x88
 80021b2:	f423 6240 	bic.w	r2, r3, #3072	@ 0xc00
 80021b6:	687b      	ldr	r3, [r7, #4]
 80021b8:	6cdb      	ldr	r3, [r3, #76]	@ 0x4c
 80021ba:	496a      	ldr	r1, [pc, #424]	@ (8002364 <HAL_RCCEx_PeriphCLKConfig+0x4ec>)
 80021bc:	4313      	orrs	r3, r2
 80021be:	f8c1 3088 	str.w	r3, [r1, #136]	@ 0x88
  }

  /*-------------------------- LPTIM1 clock source configuration -------------------*/
  if(((PeriphClkInit->PeriphClockSelection) & RCC_PERIPHCLK_LPTIM1) == (RCC_PERIPHCLK_LPTIM1))
 80021c2:	687b      	ldr	r3, [r7, #4]
 80021c4:	681b      	ldr	r3, [r3, #0]
 80021c6:	f403 7300 	and.w	r3, r3, #512	@ 0x200
 80021ca:	2b00      	cmp	r3, #0
 80021cc:	d00a      	beq.n	80021e4 <HAL_RCCEx_PeriphCLKConfig+0x36c>
  {
    assert_param(IS_RCC_LPTIM1CLK(PeriphClkInit->Lptim1ClockSelection));
    __HAL_RCC_LPTIM1_CONFIG(PeriphClkInit->Lptim1ClockSelection);
 80021ce:	4b65      	ldr	r3, [pc, #404]	@ (8002364 <HAL_RCCEx_PeriphCLKConfig+0x4ec>)
 80021d0:	f8d3 3088 	ldr.w	r3, [r3, #136]	@ 0x88
 80021d4:	f423 2240 	bic.w	r2, r3, #786432	@ 0xc0000
 80021d8:	687b      	ldr	r3, [r7, #4]
 80021da:	6ddb      	ldr	r3, [r3, #92]	@ 0x5c
 80021dc:	4961      	ldr	r1, [pc, #388]	@ (8002364 <HAL_RCCEx_PeriphCLKConfig+0x4ec>)
 80021de:	4313      	orrs	r3, r2
 80021e0:	f8c1 3088 	str.w	r3, [r1, #136]	@ 0x88
  }

  /*-------------------------- LPTIM2 clock source configuration -------------------*/
  if(((PeriphClkInit->PeriphClockSelection) & RCC_PERIPHCLK_LPTIM2) == (RCC_PERIPHCLK_LPTIM2))
 80021e4:	687b      	ldr	r3, [r7, #4]
 80021e6:	681b      	ldr	r3, [r3, #0]
 80021e8:	f403 6380 	and.w	r3, r3, #1024	@ 0x400
 80021ec:	2b00      	cmp	r3, #0
 80021ee:	d00a      	beq.n	8002206 <HAL_RCCEx_PeriphCLKConfig+0x38e>
  {
    assert_param(IS_RCC_LPTIM2CLK(PeriphClkInit->Lptim2ClockSelection));
    __HAL_RCC_LPTIM2_CONFIG(PeriphClkInit->Lptim2ClockSelection);
 80021f0:	4b5c      	ldr	r3, [pc, #368]	@ (8002364 <HAL_RCCEx_PeriphCLKConfig+0x4ec>)
 80021f2:	f8d3 3088 	ldr.w	r3, [r3, #136]	@ 0x88
 80021f6:	f423 1240 	bic.w	r2, r3, #3145728	@ 0x300000
 80021fa:	687b      	ldr	r3, [r7, #4]
 80021fc:	6e1b      	ldr	r3, [r3, #96]	@ 0x60
 80021fe:	4959      	ldr	r1, [pc, #356]	@ (8002364 <HAL_RCCEx_PeriphCLKConfig+0x4ec>)
 8002200:	4313      	orrs	r3, r2
 8002202:	f8c1 3088 	str.w	r3, [r1, #136]	@ 0x88
  }

  /*-------------------------- I2C1 clock source configuration ---------------------*/
  if(((PeriphClkInit->PeriphClockSelection) & RCC_PERIPHCLK_I2C1) == RCC_PERIPHCLK_I2C1)
 8002206:	687b      	ldr	r3, [r7, #4]
 8002208:	681b      	ldr	r3, [r3, #0]
 800220a:	f003 0340 	and.w	r3, r3, #64	@ 0x40
 800220e:	2b00      	cmp	r3, #0
 8002210:	d00a      	beq.n	8002228 <HAL_RCCEx_PeriphCLKConfig+0x3b0>
  {
    /* Check the parameters */
    assert_param(IS_RCC_I2C1CLKSOURCE(PeriphClkInit->I2c1ClockSelection));

    /* Configure the I2C1 clock source */
    __HAL_RCC_I2C1_CONFIG(PeriphClkInit->I2c1ClockSelection);
 8002212:	4b54      	ldr	r3, [pc, #336]	@ (8002364 <HAL_RCCEx_PeriphCLKConfig+0x4ec>)
 8002214:	f8d3 3088 	ldr.w	r3, [r3, #136]	@ 0x88
 8002218:	f423 5240 	bic.w	r2, r3, #12288	@ 0x3000
 800221c:	687b      	ldr	r3, [r7, #4]
 800221e:	6d1b      	ldr	r3, [r3, #80]	@ 0x50
 8002220:	4950      	ldr	r1, [pc, #320]	@ (8002364 <HAL_RCCEx_PeriphCLKConfig+0x4ec>)
 8002222:	4313      	orrs	r3, r2
 8002224:	f8c1 3088 	str.w	r3, [r1, #136]	@ 0x88
  }

#if defined(I2C2)

  /*-------------------------- I2C2 clock source configuration ---------------------*/
  if(((PeriphClkInit->PeriphClockSelection) & RCC_PERIPHCLK_I2C2) == RCC_PERIPHCLK_I2C2)
 8002228:	687b      	ldr	r3, [r7, #4]
 800222a:	681b      	ldr	r3, [r3, #0]
 800222c:	f003 0380 	and.w	r3, r3, #128	@ 0x80
 8002230:	2b00      	cmp	r3, #0
 8002232:	d00a      	beq.n	800224a <HAL_RCCEx_PeriphCLKConfig+0x3d2>
  {
    /* Check the parameters */
    assert_param(IS_RCC_I2C2CLKSOURCE(PeriphClkInit->I2c2ClockSelection));

    /* Configure the I2C2 clock source */
    __HAL_RCC_I2C2_CONFIG(PeriphClkInit->I2c2ClockSelection);
 8002234:	4b4b      	ldr	r3, [pc, #300]	@ (8002364 <HAL_RCCEx_PeriphCLKConfig+0x4ec>)
 8002236:	f8d3 3088 	ldr.w	r3, [r3, #136]	@ 0x88
 800223a:	f423 4240 	bic.w	r2, r3, #49152	@ 0xc000
 800223e:	687b      	ldr	r3, [r7, #4]
 8002240:	6d5b      	ldr	r3, [r3, #84]	@ 0x54
 8002242:	4948      	ldr	r1, [pc, #288]	@ (8002364 <HAL_RCCEx_PeriphCLKConfig+0x4ec>)
 8002244:	4313      	orrs	r3, r2
 8002246:	f8c1 3088 	str.w	r3, [r1, #136]	@ 0x88
  }

#endif /* I2C2 */

  /*-------------------------- I2C3 clock source configuration ---------------------*/
  if(((PeriphClkInit->PeriphClockSelection) & RCC_PERIPHCLK_I2C3) == RCC_PERIPHCLK_I2C3)
 800224a:	687b      	ldr	r3, [r7, #4]
 800224c:	681b      	ldr	r3, [r3, #0]
 800224e:	f403 7380 	and.w	r3, r3, #256	@ 0x100
 8002252:	2b00      	cmp	r3, #0
 8002254:	d00a      	beq.n	800226c <HAL_RCCEx_PeriphCLKConfig+0x3f4>
  {
    /* Check the parameters */
    assert_param(IS_RCC_I2C3CLKSOURCE(PeriphClkInit->I2c3ClockSelection));

    /* Configure the I2C3 clock source */
    __HAL_RCC_I2C3_CONFIG(PeriphClkInit->I2c3ClockSelection);
 8002256:	4b43      	ldr	r3, [pc, #268]	@ (8002364 <HAL_RCCEx_PeriphCLKConfig+0x4ec>)
 8002258:	f8d3 3088 	ldr.w	r3, [r3, #136]	@ 0x88
 800225c:	f423 3240 	bic.w	r2, r3, #196608	@ 0x30000
 8002260:	687b      	ldr	r3, [r7, #4]
 8002262:	6d9b      	ldr	r3, [r3, #88]	@ 0x58
 8002264:	493f      	ldr	r1, [pc, #252]	@ (8002364 <HAL_RCCEx_PeriphCLKConfig+0x4ec>)
 8002266:	4313      	orrs	r3, r2
 8002268:	f8c1 3088 	str.w	r3, [r1, #136]	@ 0x88
#endif /* I2C4 */

#if defined(USB_OTG_FS) || defined(USB)

  /*-------------------------- USB clock source configuration ----------------------*/
  if(((PeriphClkInit->PeriphClockSelection) & RCC_PERIPHCLK_USB) == (RCC_PERIPHCLK_USB))
 800226c:	687b      	ldr	r3, [r7, #4]
 800226e:	681b      	ldr	r3, [r3, #0]
 8002270:	f403 5300 	and.w	r3, r3, #8192	@ 0x2000
 8002274:	2b00      	cmp	r3, #0
 8002276:	d028      	beq.n	80022ca <HAL_RCCEx_PeriphCLKConfig+0x452>
  {
    assert_param(IS_RCC_USBCLKSOURCE(PeriphClkInit->UsbClockSelection));
    __HAL_RCC_USB_CONFIG(PeriphClkInit->UsbClockSelection);
 8002278:	4b3a      	ldr	r3, [pc, #232]	@ (8002364 <HAL_RCCEx_PeriphCLKConfig+0x4ec>)
 800227a:	f8d3 3088 	ldr.w	r3, [r3, #136]	@ 0x88
 800227e:	f023 6240 	bic.w	r2, r3, #201326592	@ 0xc000000
 8002282:	687b      	ldr	r3, [r7, #4]
 8002284:	6edb      	ldr	r3, [r3, #108]	@ 0x6c
 8002286:	4937      	ldr	r1, [pc, #220]	@ (8002364 <HAL_RCCEx_PeriphCLKConfig+0x4ec>)
 8002288:	4313      	orrs	r3, r2
 800228a:	f8c1 3088 	str.w	r3, [r1, #136]	@ 0x88

    if(PeriphClkInit->UsbClockSelection == RCC_USBCLKSOURCE_PLL)
 800228e:	687b      	ldr	r3, [r7, #4]
 8002290:	6edb      	ldr	r3, [r3, #108]	@ 0x6c
 8002292:	f1b3 6f00 	cmp.w	r3, #134217728	@ 0x8000000
 8002296:	d106      	bne.n	80022a6 <HAL_RCCEx_PeriphCLKConfig+0x42e>
    {
      /* Enable PLL48M1CLK output clock */
      __HAL_RCC_PLLCLKOUT_ENABLE(RCC_PLL_48M1CLK);
 8002298:	4b32      	ldr	r3, [pc, #200]	@ (8002364 <HAL_RCCEx_PeriphCLKConfig+0x4ec>)
 800229a:	68db      	ldr	r3, [r3, #12]
 800229c:	4a31      	ldr	r2, [pc, #196]	@ (8002364 <HAL_RCCEx_PeriphCLKConfig+0x4ec>)
 800229e:	f443 1380 	orr.w	r3, r3, #1048576	@ 0x100000
 80022a2:	60d3      	str	r3, [r2, #12]
 80022a4:	e011      	b.n	80022ca <HAL_RCCEx_PeriphCLKConfig+0x452>
    }
    else
    {
#if defined(RCC_PLLSAI1_SUPPORT)
      if(PeriphClkInit->UsbClockSelection == RCC_USBCLKSOURCE_PLLSAI1)
 80022a6:	687b      	ldr	r3, [r7, #4]
 80022a8:	6edb      	ldr	r3, [r3, #108]	@ 0x6c
 80022aa:	f1b3 6f80 	cmp.w	r3, #67108864	@ 0x4000000
 80022ae:	d10c      	bne.n	80022ca <HAL_RCCEx_PeriphCLKConfig+0x452>
      {
        /* PLLSAI1 input clock, parameters M, N & Q configuration and clock output (PLLSAI1ClockOut) */
        ret = RCCEx_PLLSAI1_Config(&(PeriphClkInit->PLLSAI1), DIVIDER_Q_UPDATE);
 80022b0:	687b      	ldr	r3, [r7, #4]
 80022b2:	3304      	adds	r3, #4
 80022b4:	2101      	movs	r1, #1
 80022b6:	4618      	mov	r0, r3
 80022b8:	f000 f8c8 	bl	800244c <RCCEx_PLLSAI1_Config>
 80022bc:	4603      	mov	r3, r0
 80022be:	74fb      	strb	r3, [r7, #19]

        if(ret != HAL_OK)
 80022c0:	7cfb      	ldrb	r3, [r7, #19]
 80022c2:	2b00      	cmp	r3, #0
 80022c4:	d001      	beq.n	80022ca <HAL_RCCEx_PeriphCLKConfig+0x452>
        {
          /* set overall return value */
          status = ret;
 80022c6:	7cfb      	ldrb	r3, [r7, #19]
 80022c8:	74bb      	strb	r3, [r7, #18]
#endif /* USB_OTG_FS || USB */

#if defined(SDMMC1)

  /*-------------------------- SDMMC1 clock source configuration -------------------*/
  if(((PeriphClkInit->PeriphClockSelection) & RCC_PERIPHCLK_SDMMC1) == (RCC_PERIPHCLK_SDMMC1))
 80022ca:	687b      	ldr	r3, [r7, #4]
 80022cc:	681b      	ldr	r3, [r3, #0]
 80022ce:	f403 2300 	and.w	r3, r3, #524288	@ 0x80000
 80022d2:	2b00      	cmp	r3, #0
 80022d4:	d028      	beq.n	8002328 <HAL_RCCEx_PeriphCLKConfig+0x4b0>
  {
    assert_param(IS_RCC_SDMMC1CLKSOURCE(PeriphClkInit->Sdmmc1ClockSelection));
    __HAL_RCC_SDMMC1_CONFIG(PeriphClkInit->Sdmmc1ClockSelection);
 80022d6:	4b23      	ldr	r3, [pc, #140]	@ (8002364 <HAL_RCCEx_PeriphCLKConfig+0x4ec>)
 80022d8:	f8d3 3088 	ldr.w	r3, [r3, #136]	@ 0x88
 80022dc:	f023 6240 	bic.w	r2, r3, #201326592	@ 0xc000000
 80022e0:	687b      	ldr	r3, [r7, #4]
 80022e2:	6f1b      	ldr	r3, [r3, #112]	@ 0x70
 80022e4:	491f      	ldr	r1, [pc, #124]	@ (8002364 <HAL_RCCEx_PeriphCLKConfig+0x4ec>)
 80022e6:	4313      	orrs	r3, r2
 80022e8:	f8c1 3088 	str.w	r3, [r1, #136]	@ 0x88

    if(PeriphClkInit->Sdmmc1ClockSelection == RCC_SDMMC1CLKSOURCE_PLL)   /* PLL "Q" ? */
 80022ec:	687b      	ldr	r3, [r7, #4]
 80022ee:	6f1b      	ldr	r3, [r3, #112]	@ 0x70
 80022f0:	f1b3 6f00 	cmp.w	r3, #134217728	@ 0x8000000
 80022f4:	d106      	bne.n	8002304 <HAL_RCCEx_PeriphCLKConfig+0x48c>
    {
      /* Enable PLL48M1CLK output clock */
      __HAL_RCC_PLLCLKOUT_ENABLE(RCC_PLL_48M1CLK);
 80022f6:	4b1b      	ldr	r3, [pc, #108]	@ (8002364 <HAL_RCCEx_PeriphCLKConfig+0x4ec>)
 80022f8:	68db      	ldr	r3, [r3, #12]
 80022fa:	4a1a      	ldr	r2, [pc, #104]	@ (8002364 <HAL_RCCEx_PeriphCLKConfig+0x4ec>)
 80022fc:	f443 1380 	orr.w	r3, r3, #1048576	@ 0x100000
 8002300:	60d3      	str	r3, [r2, #12]
 8002302:	e011      	b.n	8002328 <HAL_RCCEx_PeriphCLKConfig+0x4b0>
    {
      /* Enable PLLSAI3CLK output */
      __HAL_RCC_PLLCLKOUT_ENABLE(RCC_PLL_SAI3CLK);
    }
#endif
    else if(PeriphClkInit->Sdmmc1ClockSelection == RCC_SDMMC1CLKSOURCE_PLLSAI1)
 8002304:	687b      	ldr	r3, [r7, #4]
 8002306:	6f1b      	ldr	r3, [r3, #112]	@ 0x70
 8002308:	f1b3 6f80 	cmp.w	r3, #67108864	@ 0x4000000
 800230c:	d10c      	bne.n	8002328 <HAL_RCCEx_PeriphCLKConfig+0x4b0>
    {
      /* PLLSAI1 input clock, parameters M, N & Q configuration and clock output (PLLSAI1ClockOut) */
      ret = RCCEx_PLLSAI1_Config(&(PeriphClkInit->PLLSAI1), DIVIDER_Q_UPDATE);
 800230e:	687b      	ldr	r3, [r7, #4]
 8002310:	3304      	adds	r3, #4
 8002312:	2101      	movs	r1, #1
 8002314:	4618      	mov	r0, r3
 8002316:	f000 f899 	bl	800244c <RCCEx_PLLSAI1_Config>
 800231a:	4603      	mov	r3, r0
 800231c:	74fb      	strb	r3, [r7, #19]

      if(ret != HAL_OK)
 800231e:	7cfb      	ldrb	r3, [r7, #19]
 8002320:	2b00      	cmp	r3, #0
 8002322:	d001      	beq.n	8002328 <HAL_RCCEx_PeriphCLKConfig+0x4b0>
      {
        /* set overall return value */
        status = ret;
 8002324:	7cfb      	ldrb	r3, [r7, #19]
 8002326:	74bb      	strb	r3, [r7, #18]
  }

#endif /* SDMMC1 */

  /*-------------------------- RNG clock source configuration ----------------------*/
  if(((PeriphClkInit->PeriphClockSelection) & RCC_PERIPHCLK_RNG) == (RCC_PERIPHCLK_RNG))
 8002328:	687b      	ldr	r3, [r7, #4]
 800232a:	681b      	ldr	r3, [r3, #0]
 800232c:	f403 2380 	and.w	r3, r3, #262144	@ 0x40000
 8002330:	2b00      	cmp	r3, #0
 8002332:	d02b      	beq.n	800238c <HAL_RCCEx_PeriphCLKConfig+0x514>
  {
    assert_param(IS_RCC_RNGCLKSOURCE(PeriphClkInit->RngClockSelection));
    __HAL_RCC_RNG_CONFIG(PeriphClkInit->RngClockSelection);
 8002334:	4b0b      	ldr	r3, [pc, #44]	@ (8002364 <HAL_RCCEx_PeriphCLKConfig+0x4ec>)
 8002336:	f8d3 3088 	ldr.w	r3, [r3, #136]	@ 0x88
 800233a:	f023 6240 	bic.w	r2, r3, #201326592	@ 0xc000000
 800233e:	687b      	ldr	r3, [r7, #4]
 8002340:	6f5b      	ldr	r3, [r3, #116]	@ 0x74
 8002342:	4908      	ldr	r1, [pc, #32]	@ (8002364 <HAL_RCCEx_PeriphCLKConfig+0x4ec>)
 8002344:	4313      	orrs	r3, r2
 8002346:	f8c1 3088 	str.w	r3, [r1, #136]	@ 0x88

    if(PeriphClkInit->RngClockSelection == RCC_RNGCLKSOURCE_PLL)
 800234a:	687b      	ldr	r3, [r7, #4]
 800234c:	6f5b      	ldr	r3, [r3, #116]	@ 0x74
 800234e:	f1b3 6f00 	cmp.w	r3, #134217728	@ 0x8000000
 8002352:	d109      	bne.n	8002368 <HAL_RCCEx_PeriphCLKConfig+0x4f0>
    {
      /* Enable PLL48M1CLK output clock */
      __HAL_RCC_PLLCLKOUT_ENABLE(RCC_PLL_48M1CLK);
 8002354:	4b03      	ldr	r3, [pc, #12]	@ (8002364 <HAL_RCCEx_PeriphCLKConfig+0x4ec>)
 8002356:	68db      	ldr	r3, [r3, #12]
 8002358:	4a02      	ldr	r2, [pc, #8]	@ (8002364 <HAL_RCCEx_PeriphCLKConfig+0x4ec>)
 800235a:	f443 1380 	orr.w	r3, r3, #1048576	@ 0x100000
 800235e:	60d3      	str	r3, [r2, #12]
 8002360:	e014      	b.n	800238c <HAL_RCCEx_PeriphCLKConfig+0x514>
 8002362:	bf00      	nop
 8002364:	40021000 	.word	0x40021000
    }
#if defined(RCC_PLLSAI1_SUPPORT)
    else if(PeriphClkInit->RngClockSelection == RCC_RNGCLKSOURCE_PLLSAI1)
 8002368:	687b      	ldr	r3, [r7, #4]
 800236a:	6f5b      	ldr	r3, [r3, #116]	@ 0x74
 800236c:	f1b3 6f80 	cmp.w	r3, #67108864	@ 0x4000000
 8002370:	d10c      	bne.n	800238c <HAL_RCCEx_PeriphCLKConfig+0x514>
    {
      /* PLLSAI1 input clock, parameters M, N & Q configuration and clock output (PLLSAI1ClockOut) */
      ret = RCCEx_PLLSAI1_Config(&(PeriphClkInit->PLLSAI1), DIVIDER_Q_UPDATE);
 8002372:	687b      	ldr	r3, [r7, #4]
 8002374:	3304      	adds	r3, #4
 8002376:	2101      	movs	r1, #1
 8002378:	4618      	mov	r0, r3
 800237a:	f000 f867 	bl	800244c <RCCEx_PLLSAI1_Config>
 800237e:	4603      	mov	r3, r0
 8002380:	74fb      	strb	r3, [r7, #19]

      if(ret != HAL_OK)
 8002382:	7cfb      	ldrb	r3, [r7, #19]
 8002384:	2b00      	cmp	r3, #0
 8002386:	d001      	beq.n	800238c <HAL_RCCEx_PeriphCLKConfig+0x514>
      {
        /* set overall return value */
        status = ret;
 8002388:	7cfb      	ldrb	r3, [r7, #19]
 800238a:	74bb      	strb	r3, [r7, #18]
    }
  }

  /*-------------------------- ADC clock source configuration ----------------------*/
#if !defined(STM32L412xx) && !defined(STM32L422xx)
  if(((PeriphClkInit->PeriphClockSelection) & RCC_PERIPHCLK_ADC) == RCC_PERIPHCLK_ADC)
 800238c:	687b      	ldr	r3, [r7, #4]
 800238e:	681b      	ldr	r3, [r3, #0]
 8002390:	f403 4380 	and.w	r3, r3, #16384	@ 0x4000
 8002394:	2b00      	cmp	r3, #0
 8002396:	d02f      	beq.n	80023f8 <HAL_RCCEx_PeriphCLKConfig+0x580>
  {
    /* Check the parameters */
    assert_param(IS_RCC_ADCCLKSOURCE(PeriphClkInit->AdcClockSelection));

    /* Configure the ADC interface clock source */
    __HAL_RCC_ADC_CONFIG(PeriphClkInit->AdcClockSelection);
 8002398:	4b2b      	ldr	r3, [pc, #172]	@ (8002448 <HAL_RCCEx_PeriphCLKConfig+0x5d0>)
 800239a:	f8d3 3088 	ldr.w	r3, [r3, #136]	@ 0x88
 800239e:	f023 5240 	bic.w	r2, r3, #805306368	@ 0x30000000
 80023a2:	687b      	ldr	r3, [r7, #4]
 80023a4:	6f9b      	ldr	r3, [r3, #120]	@ 0x78
 80023a6:	4928      	ldr	r1, [pc, #160]	@ (8002448 <HAL_RCCEx_PeriphCLKConfig+0x5d0>)
 80023a8:	4313      	orrs	r3, r2
 80023aa:	f8c1 3088 	str.w	r3, [r1, #136]	@ 0x88

#if defined(RCC_PLLSAI1_SUPPORT)
    if(PeriphClkInit->AdcClockSelection == RCC_ADCCLKSOURCE_PLLSAI1)
 80023ae:	687b      	ldr	r3, [r7, #4]
 80023b0:	6f9b      	ldr	r3, [r3, #120]	@ 0x78
 80023b2:	f1b3 5f80 	cmp.w	r3, #268435456	@ 0x10000000
 80023b6:	d10d      	bne.n	80023d4 <HAL_RCCEx_PeriphCLKConfig+0x55c>
    {
      /* PLLSAI1 input clock, parameters M, N & R configuration and clock output (PLLSAI1ClockOut) */
      ret = RCCEx_PLLSAI1_Config(&(PeriphClkInit->PLLSAI1), DIVIDER_R_UPDATE);
 80023b8:	687b      	ldr	r3, [r7, #4]
 80023ba:	3304      	adds	r3, #4
 80023bc:	2102      	movs	r1, #2
 80023be:	4618      	mov	r0, r3
 80023c0:	f000 f844 	bl	800244c <RCCEx_PLLSAI1_Config>
 80023c4:	4603      	mov	r3, r0
 80023c6:	74fb      	strb	r3, [r7, #19]

      if(ret != HAL_OK)
 80023c8:	7cfb      	ldrb	r3, [r7, #19]
 80023ca:	2b00      	cmp	r3, #0
 80023cc:	d014      	beq.n	80023f8 <HAL_RCCEx_PeriphCLKConfig+0x580>
      {
        /* set overall return value */
        status = ret;
 80023ce:	7cfb      	ldrb	r3, [r7, #19]
 80023d0:	74bb      	strb	r3, [r7, #18]
 80023d2:	e011      	b.n	80023f8 <HAL_RCCEx_PeriphCLKConfig+0x580>
    }
#endif /* RCC_PLLSAI1_SUPPORT */

#if defined(STM32L471xx) || defined(STM32L475xx) || defined(STM32L476xx) || defined(STM32L485xx) || defined(STM32L486xx) || defined(STM32L496xx) || defined(STM32L4A6xx)

    else if(PeriphClkInit->AdcClockSelection == RCC_ADCCLKSOURCE_PLLSAI2)
 80023d4:	687b      	ldr	r3, [r7, #4]
 80023d6:	6f9b      	ldr	r3, [r3, #120]	@ 0x78
 80023d8:	f1b3 5f00 	cmp.w	r3, #536870912	@ 0x20000000
 80023dc:	d10c      	bne.n	80023f8 <HAL_RCCEx_PeriphCLKConfig+0x580>
    {
      /* PLLSAI2 input clock, parameters M, N & R configuration and clock output (PLLSAI2ClockOut) */
      ret = RCCEx_PLLSAI2_Config(&(PeriphClkInit->PLLSAI2), DIVIDER_R_UPDATE);
 80023de:	687b      	ldr	r3, [r7, #4]
 80023e0:	3320      	adds	r3, #32
 80023e2:	2102      	movs	r1, #2
 80023e4:	4618      	mov	r0, r3
 80023e6:	f000 f925 	bl	8002634 <RCCEx_PLLSAI2_Config>
 80023ea:	4603      	mov	r3, r0
 80023ec:	74fb      	strb	r3, [r7, #19]

      if(ret != HAL_OK)
 80023ee:	7cfb      	ldrb	r3, [r7, #19]
 80023f0:	2b00      	cmp	r3, #0
 80023f2:	d001      	beq.n	80023f8 <HAL_RCCEx_PeriphCLKConfig+0x580>
      {
        /* set overall return value */
        status = ret;
 80023f4:	7cfb      	ldrb	r3, [r7, #19]
 80023f6:	74bb      	strb	r3, [r7, #18]
#endif /* !STM32L412xx && !STM32L422xx */

#if defined(SWPMI1)

  /*-------------------------- SWPMI1 clock source configuration -------------------*/
  if(((PeriphClkInit->PeriphClockSelection) & RCC_PERIPHCLK_SWPMI1) == RCC_PERIPHCLK_SWPMI1)
 80023f8:	687b      	ldr	r3, [r7, #4]
 80023fa:	681b      	ldr	r3, [r3, #0]
 80023fc:	f403 4300 	and.w	r3, r3, #32768	@ 0x8000
 8002400:	2b00      	cmp	r3, #0
 8002402:	d00a      	beq.n	800241a <HAL_RCCEx_PeriphCLKConfig+0x5a2>
  {
    /* Check the parameters */
    assert_param(IS_RCC_SWPMI1CLKSOURCE(PeriphClkInit->Swpmi1ClockSelection));

    /* Configure the SWPMI1 clock source */
    __HAL_RCC_SWPMI1_CONFIG(PeriphClkInit->Swpmi1ClockSelection);
 8002404:	4b10      	ldr	r3, [pc, #64]	@ (8002448 <HAL_RCCEx_PeriphCLKConfig+0x5d0>)
 8002406:	f8d3 3088 	ldr.w	r3, [r3, #136]	@ 0x88
 800240a:	f023 4280 	bic.w	r2, r3, #1073741824	@ 0x40000000
 800240e:	687b      	ldr	r3, [r7, #4]
 8002410:	6fdb      	ldr	r3, [r3, #124]	@ 0x7c
 8002412:	490d      	ldr	r1, [pc, #52]	@ (8002448 <HAL_RCCEx_PeriphCLKConfig+0x5d0>)
 8002414:	4313      	orrs	r3, r2
 8002416:	f8c1 3088 	str.w	r3, [r1, #136]	@ 0x88
#endif /* SWPMI1 */

#if defined(DFSDM1_Filter0)

  /*-------------------------- DFSDM1 clock source configuration -------------------*/
  if(((PeriphClkInit->PeriphClockSelection) & RCC_PERIPHCLK_DFSDM1) == RCC_PERIPHCLK_DFSDM1)
 800241a:	687b      	ldr	r3, [r7, #4]
 800241c:	681b      	ldr	r3, [r3, #0]
 800241e:	f403 3380 	and.w	r3, r3, #65536	@ 0x10000
 8002422:	2b00      	cmp	r3, #0
 8002424:	d00b      	beq.n	800243e <HAL_RCCEx_PeriphCLKConfig+0x5c6>
  {
    /* Check the parameters */
    assert_param(IS_RCC_DFSDM1CLKSOURCE(PeriphClkInit->Dfsdm1ClockSelection));

    /* Configure the DFSDM1 interface clock source */
    __HAL_RCC_DFSDM1_CONFIG(PeriphClkInit->Dfsdm1ClockSelection);
 8002426:	4b08      	ldr	r3, [pc, #32]	@ (8002448 <HAL_RCCEx_PeriphCLKConfig+0x5d0>)
 8002428:	f8d3 3088 	ldr.w	r3, [r3, #136]	@ 0x88
 800242c:	f023 4200 	bic.w	r2, r3, #2147483648	@ 0x80000000
 8002430:	687b      	ldr	r3, [r7, #4]
 8002432:	f8d3 3080 	ldr.w	r3, [r3, #128]	@ 0x80
 8002436:	4904      	ldr	r1, [pc, #16]	@ (8002448 <HAL_RCCEx_PeriphCLKConfig+0x5d0>)
 8002438:	4313      	orrs	r3, r2
 800243a:	f8c1 3088 	str.w	r3, [r1, #136]	@ 0x88
    }
  }

#endif /* OCTOSPI1 || OCTOSPI2 */

  return status;
 800243e:	7cbb      	ldrb	r3, [r7, #18]
}
 8002440:	4618      	mov	r0, r3
 8002442:	3718      	adds	r7, #24
 8002444:	46bd      	mov	sp, r7
 8002446:	bd80      	pop	{r7, pc}
 8002448:	40021000 	.word	0x40021000

0800244c <RCCEx_PLLSAI1_Config>:
  * @note   PLLSAI1 is temporary disable to apply new parameters
  *
  * @retval HAL status
  */
static HAL_StatusTypeDef RCCEx_PLLSAI1_Config(RCC_PLLSAI1InitTypeDef *PllSai1, uint32_t Divider)
{
 800244c:	b580      	push	{r7, lr}
 800244e:	b084      	sub	sp, #16
 8002450:	af00      	add	r7, sp, #0
 8002452:	6078      	str	r0, [r7, #4]
 8002454:	6039      	str	r1, [r7, #0]
  uint32_t tickstart;
  HAL_StatusTypeDef status = HAL_OK;
 8002456:	2300      	movs	r3, #0
 8002458:	73fb      	strb	r3, [r7, #15]
  assert_param(IS_RCC_PLLSAI1M_VALUE(PllSai1->PLLSAI1M));
  assert_param(IS_RCC_PLLSAI1N_VALUE(PllSai1->PLLSAI1N));
  assert_param(IS_RCC_PLLSAI1CLOCKOUT_VALUE(PllSai1->PLLSAI1ClockOut));

  /* Check that PLLSAI1 clock source and divider M can be applied */
  if(__HAL_RCC_GET_PLL_OSCSOURCE() != RCC_PLLSOURCE_NONE)
 800245a:	4b75      	ldr	r3, [pc, #468]	@ (8002630 <RCCEx_PLLSAI1_Config+0x1e4>)
 800245c:	68db      	ldr	r3, [r3, #12]
 800245e:	f003 0303 	and.w	r3, r3, #3
 8002462:	2b00      	cmp	r3, #0
 8002464:	d018      	beq.n	8002498 <RCCEx_PLLSAI1_Config+0x4c>
  {
    /* PLL clock source and divider M already set, check that no request for change  */
    if((__HAL_RCC_GET_PLL_OSCSOURCE() != PllSai1->PLLSAI1Source)
 8002466:	4b72      	ldr	r3, [pc, #456]	@ (8002630 <RCCEx_PLLSAI1_Config+0x1e4>)
 8002468:	68db      	ldr	r3, [r3, #12]
 800246a:	f003 0203 	and.w	r2, r3, #3
 800246e:	687b      	ldr	r3, [r7, #4]
 8002470:	681b      	ldr	r3, [r3, #0]
 8002472:	429a      	cmp	r2, r3
 8002474:	d10d      	bne.n	8002492 <RCCEx_PLLSAI1_Config+0x46>
       ||
       (PllSai1->PLLSAI1Source == RCC_PLLSOURCE_NONE)
 8002476:	687b      	ldr	r3, [r7, #4]
 8002478:	681b      	ldr	r3, [r3, #0]
       ||
 800247a:	2b00      	cmp	r3, #0
 800247c:	d009      	beq.n	8002492 <RCCEx_PLLSAI1_Config+0x46>
#if !defined(RCC_PLLSAI1M_DIV_1_16_SUPPORT)
       ||
       (((READ_BIT(RCC->PLLCFGR, RCC_PLLCFGR_PLLM) >> RCC_PLLCFGR_PLLM_Pos) + 1U) != PllSai1->PLLSAI1M)
 800247e:	4b6c      	ldr	r3, [pc, #432]	@ (8002630 <RCCEx_PLLSAI1_Config+0x1e4>)
 8002480:	68db      	ldr	r3, [r3, #12]
 8002482:	091b      	lsrs	r3, r3, #4
 8002484:	f003 0307 	and.w	r3, r3, #7
 8002488:	1c5a      	adds	r2, r3, #1
 800248a:	687b      	ldr	r3, [r7, #4]
 800248c:	685b      	ldr	r3, [r3, #4]
       ||
 800248e:	429a      	cmp	r2, r3
 8002490:	d047      	beq.n	8002522 <RCCEx_PLLSAI1_Config+0xd6>
#endif
      )
    {
      status = HAL_ERROR;
 8002492:	2301      	movs	r3, #1
 8002494:	73fb      	strb	r3, [r7, #15]
 8002496:	e044      	b.n	8002522 <RCCEx_PLLSAI1_Config+0xd6>
    }
  }
  else
  {
    /* Check PLLSAI1 clock source availability */
    switch(PllSai1->PLLSAI1Source)
 8002498:	687b      	ldr	r3, [r7, #4]
 800249a:	681b      	ldr	r3, [r3, #0]
 800249c:	2b03      	cmp	r3, #3
 800249e:	d018      	beq.n	80024d2 <RCCEx_PLLSAI1_Config+0x86>
 80024a0:	2b03      	cmp	r3, #3
 80024a2:	d825      	bhi.n	80024f0 <RCCEx_PLLSAI1_Config+0xa4>
 80024a4:	2b01      	cmp	r3, #1
 80024a6:	d002      	beq.n	80024ae <RCCEx_PLLSAI1_Config+0x62>
 80024a8:	2b02      	cmp	r3, #2
 80024aa:	d009      	beq.n	80024c0 <RCCEx_PLLSAI1_Config+0x74>
 80024ac:	e020      	b.n	80024f0 <RCCEx_PLLSAI1_Config+0xa4>
    {
    case RCC_PLLSOURCE_MSI:
      if(HAL_IS_BIT_CLR(RCC->CR, RCC_CR_MSIRDY))
 80024ae:	4b60      	ldr	r3, [pc, #384]	@ (8002630 <RCCEx_PLLSAI1_Config+0x1e4>)
 80024b0:	681b      	ldr	r3, [r3, #0]
 80024b2:	f003 0302 	and.w	r3, r3, #2
 80024b6:	2b00      	cmp	r3, #0
 80024b8:	d11d      	bne.n	80024f6 <RCCEx_PLLSAI1_Config+0xaa>
      {
        status = HAL_ERROR;
 80024ba:	2301      	movs	r3, #1
 80024bc:	73fb      	strb	r3, [r7, #15]
      }
      break;
 80024be:	e01a      	b.n	80024f6 <RCCEx_PLLSAI1_Config+0xaa>
    case RCC_PLLSOURCE_HSI:
      if(HAL_IS_BIT_CLR(RCC->CR, RCC_CR_HSIRDY))
 80024c0:	4b5b      	ldr	r3, [pc, #364]	@ (8002630 <RCCEx_PLLSAI1_Config+0x1e4>)
 80024c2:	681b      	ldr	r3, [r3, #0]
 80024c4:	f403 6380 	and.w	r3, r3, #1024	@ 0x400
 80024c8:	2b00      	cmp	r3, #0
 80024ca:	d116      	bne.n	80024fa <RCCEx_PLLSAI1_Config+0xae>
      {
        status = HAL_ERROR;
 80024cc:	2301      	movs	r3, #1
 80024ce:	73fb      	strb	r3, [r7, #15]
      }
      break;
 80024d0:	e013      	b.n	80024fa <RCCEx_PLLSAI1_Config+0xae>
    case RCC_PLLSOURCE_HSE:
      if(HAL_IS_BIT_CLR(RCC->CR, RCC_CR_HSERDY))
 80024d2:	4b57      	ldr	r3, [pc, #348]	@ (8002630 <RCCEx_PLLSAI1_Config+0x1e4>)
 80024d4:	681b      	ldr	r3, [r3, #0]
 80024d6:	f403 3300 	and.w	r3, r3, #131072	@ 0x20000
 80024da:	2b00      	cmp	r3, #0
 80024dc:	d10f      	bne.n	80024fe <RCCEx_PLLSAI1_Config+0xb2>
      {
        if(HAL_IS_BIT_CLR(RCC->CR, RCC_CR_HSEBYP))
 80024de:	4b54      	ldr	r3, [pc, #336]	@ (8002630 <RCCEx_PLLSAI1_Config+0x1e4>)
 80024e0:	681b      	ldr	r3, [r3, #0]
 80024e2:	f403 2380 	and.w	r3, r3, #262144	@ 0x40000
 80024e6:	2b00      	cmp	r3, #0
 80024e8:	d109      	bne.n	80024fe <RCCEx_PLLSAI1_Config+0xb2>
        {
          status = HAL_ERROR;
 80024ea:	2301      	movs	r3, #1
 80024ec:	73fb      	strb	r3, [r7, #15]
        }
      }
      break;
 80024ee:	e006      	b.n	80024fe <RCCEx_PLLSAI1_Config+0xb2>
    default:
      status = HAL_ERROR;
 80024f0:	2301      	movs	r3, #1
 80024f2:	73fb      	strb	r3, [r7, #15]
      break;
 80024f4:	e004      	b.n	8002500 <RCCEx_PLLSAI1_Config+0xb4>
      break;
 80024f6:	bf00      	nop
 80024f8:	e002      	b.n	8002500 <RCCEx_PLLSAI1_Config+0xb4>
      break;
 80024fa:	bf00      	nop
 80024fc:	e000      	b.n	8002500 <RCCEx_PLLSAI1_Config+0xb4>
      break;
 80024fe:	bf00      	nop
    }

    if(status == HAL_OK)
 8002500:	7bfb      	ldrb	r3, [r7, #15]
 8002502:	2b00      	cmp	r3, #0
 8002504:	d10d      	bne.n	8002522 <RCCEx_PLLSAI1_Config+0xd6>
#if defined(RCC_PLLSAI1M_DIV_1_16_SUPPORT)
      /* Set PLLSAI1 clock source */
      MODIFY_REG(RCC->PLLCFGR, RCC_PLLCFGR_PLLSRC, PllSai1->PLLSAI1Source);
#else
      /* Set PLLSAI1 clock source and divider M */
      MODIFY_REG(RCC->PLLCFGR, RCC_PLLCFGR_PLLSRC | RCC_PLLCFGR_PLLM, PllSai1->PLLSAI1Source | (PllSai1->PLLSAI1M - 1U) << RCC_PLLCFGR_PLLM_Pos);
 8002506:	4b4a      	ldr	r3, [pc, #296]	@ (8002630 <RCCEx_PLLSAI1_Config+0x1e4>)
 8002508:	68db      	ldr	r3, [r3, #12]
 800250a:	f023 0273 	bic.w	r2, r3, #115	@ 0x73
 800250e:	687b      	ldr	r3, [r7, #4]
 8002510:	6819      	ldr	r1, [r3, #0]
 8002512:	687b      	ldr	r3, [r7, #4]
 8002514:	685b      	ldr	r3, [r3, #4]
 8002516:	3b01      	subs	r3, #1
 8002518:	011b      	lsls	r3, r3, #4
 800251a:	430b      	orrs	r3, r1
 800251c:	4944      	ldr	r1, [pc, #272]	@ (8002630 <RCCEx_PLLSAI1_Config+0x1e4>)
 800251e:	4313      	orrs	r3, r2
 8002520:	60cb      	str	r3, [r1, #12]
#endif
    }
  }

  if(status == HAL_OK)
 8002522:	7bfb      	ldrb	r3, [r7, #15]
 8002524:	2b00      	cmp	r3, #0
 8002526:	d17d      	bne.n	8002624 <RCCEx_PLLSAI1_Config+0x1d8>
  {
    /* Disable the PLLSAI1 */
    __HAL_RCC_PLLSAI1_DISABLE();
 8002528:	4b41      	ldr	r3, [pc, #260]	@ (8002630 <RCCEx_PLLSAI1_Config+0x1e4>)
 800252a:	681b      	ldr	r3, [r3, #0]
 800252c:	4a40      	ldr	r2, [pc, #256]	@ (8002630 <RCCEx_PLLSAI1_Config+0x1e4>)
 800252e:	f023 6380 	bic.w	r3, r3, #67108864	@ 0x4000000
 8002532:	6013      	str	r3, [r2, #0]

    /* Get Start Tick*/
    tickstart = HAL_GetTick();
 8002534:	f7fe fb6e 	bl	8000c14 <HAL_GetTick>
 8002538:	60b8      	str	r0, [r7, #8]

    /* Wait till PLLSAI1 is ready to be updated */
    while(READ_BIT(RCC->CR, RCC_CR_PLLSAI1RDY) != 0U)
 800253a:	e009      	b.n	8002550 <RCCEx_PLLSAI1_Config+0x104>
    {
      if((HAL_GetTick() - tickstart) > PLLSAI1_TIMEOUT_VALUE)
 800253c:	f7fe fb6a 	bl	8000c14 <HAL_GetTick>
 8002540:	4602      	mov	r2, r0
 8002542:	68bb      	ldr	r3, [r7, #8]
 8002544:	1ad3      	subs	r3, r2, r3
 8002546:	2b02      	cmp	r3, #2
 8002548:	d902      	bls.n	8002550 <RCCEx_PLLSAI1_Config+0x104>
      {
        status = HAL_TIMEOUT;
 800254a:	2303      	movs	r3, #3
 800254c:	73fb      	strb	r3, [r7, #15]
        break;
 800254e:	e005      	b.n	800255c <RCCEx_PLLSAI1_Config+0x110>
    while(READ_BIT(RCC->CR, RCC_CR_PLLSAI1RDY) != 0U)
 8002550:	4b37      	ldr	r3, [pc, #220]	@ (8002630 <RCCEx_PLLSAI1_Config+0x1e4>)
 8002552:	681b      	ldr	r3, [r3, #0]
 8002554:	f003 6300 	and.w	r3, r3, #134217728	@ 0x8000000
 8002558:	2b00      	cmp	r3, #0
 800255a:	d1ef      	bne.n	800253c <RCCEx_PLLSAI1_Config+0xf0>
      }
    }

    if(status == HAL_OK)
 800255c:	7bfb      	ldrb	r3, [r7, #15]
 800255e:	2b00      	cmp	r3, #0
 8002560:	d160      	bne.n	8002624 <RCCEx_PLLSAI1_Config+0x1d8>
    {
      if(Divider == DIVIDER_P_UPDATE)
 8002562:	683b      	ldr	r3, [r7, #0]
 8002564:	2b00      	cmp	r3, #0
 8002566:	d111      	bne.n	800258c <RCCEx_PLLSAI1_Config+0x140>
        MODIFY_REG(RCC->PLLSAI1CFGR,
                   RCC_PLLSAI1CFGR_PLLSAI1N | RCC_PLLSAI1CFGR_PLLSAI1PDIV,
                   (PllSai1->PLLSAI1N << RCC_PLLSAI1CFGR_PLLSAI1N_Pos) |
                   (PllSai1->PLLSAI1P << RCC_PLLSAI1CFGR_PLLSAI1PDIV_Pos));
#else
        MODIFY_REG(RCC->PLLSAI1CFGR,
 8002568:	4b31      	ldr	r3, [pc, #196]	@ (8002630 <RCCEx_PLLSAI1_Config+0x1e4>)
 800256a:	691b      	ldr	r3, [r3, #16]
 800256c:	f423 331f 	bic.w	r3, r3, #162816	@ 0x27c00
 8002570:	f423 7340 	bic.w	r3, r3, #768	@ 0x300
 8002574:	687a      	ldr	r2, [r7, #4]
 8002576:	6892      	ldr	r2, [r2, #8]
 8002578:	0211      	lsls	r1, r2, #8
 800257a:	687a      	ldr	r2, [r7, #4]
 800257c:	68d2      	ldr	r2, [r2, #12]
 800257e:	0912      	lsrs	r2, r2, #4
 8002580:	0452      	lsls	r2, r2, #17
 8002582:	430a      	orrs	r2, r1
 8002584:	492a      	ldr	r1, [pc, #168]	@ (8002630 <RCCEx_PLLSAI1_Config+0x1e4>)
 8002586:	4313      	orrs	r3, r2
 8002588:	610b      	str	r3, [r1, #16]
 800258a:	e027      	b.n	80025dc <RCCEx_PLLSAI1_Config+0x190>
                   ((PllSai1->PLLSAI1P >> 4U) << RCC_PLLSAI1CFGR_PLLSAI1P_Pos));
#endif /* RCC_PLLSAI1P_DIV_2_31_SUPPORT */

#endif /* RCC_PLLSAI1M_DIV_1_16_SUPPORT */
      }
      else if(Divider == DIVIDER_Q_UPDATE)
 800258c:	683b      	ldr	r3, [r7, #0]
 800258e:	2b01      	cmp	r3, #1
 8002590:	d112      	bne.n	80025b8 <RCCEx_PLLSAI1_Config+0x16c>
                   (PllSai1->PLLSAI1N << RCC_PLLSAI1CFGR_PLLSAI1N_Pos) |
                   (((PllSai1->PLLSAI1Q >> 1U) - 1U) << RCC_PLLSAI1CFGR_PLLSAI1Q_Pos) |
                   ((PllSai1->PLLSAI1M - 1U) << RCC_PLLSAI1CFGR_PLLSAI1M_Pos));
#else
        /* Configure the PLLSAI1 Division factor Q and Multiplication factor N*/
        MODIFY_REG(RCC->PLLSAI1CFGR,
 8002592:	4b27      	ldr	r3, [pc, #156]	@ (8002630 <RCCEx_PLLSAI1_Config+0x1e4>)
 8002594:	691b      	ldr	r3, [r3, #16]
 8002596:	f423 03c0 	bic.w	r3, r3, #6291456	@ 0x600000
 800259a:	f423 43fe 	bic.w	r3, r3, #32512	@ 0x7f00
 800259e:	687a      	ldr	r2, [r7, #4]
 80025a0:	6892      	ldr	r2, [r2, #8]
 80025a2:	0211      	lsls	r1, r2, #8
 80025a4:	687a      	ldr	r2, [r7, #4]
 80025a6:	6912      	ldr	r2, [r2, #16]
 80025a8:	0852      	lsrs	r2, r2, #1
 80025aa:	3a01      	subs	r2, #1
 80025ac:	0552      	lsls	r2, r2, #21
 80025ae:	430a      	orrs	r2, r1
 80025b0:	491f      	ldr	r1, [pc, #124]	@ (8002630 <RCCEx_PLLSAI1_Config+0x1e4>)
 80025b2:	4313      	orrs	r3, r2
 80025b4:	610b      	str	r3, [r1, #16]
 80025b6:	e011      	b.n	80025dc <RCCEx_PLLSAI1_Config+0x190>
                   (PllSai1->PLLSAI1N << RCC_PLLSAI1CFGR_PLLSAI1N_Pos) |
                   (((PllSai1->PLLSAI1R >> 1U) - 1U) << RCC_PLLSAI1CFGR_PLLSAI1R_Pos) |
                   ((PllSai1->PLLSAI1M - 1U) << RCC_PLLSAI1CFGR_PLLSAI1M_Pos));
#else
        /* Configure the PLLSAI1 Division factor R and Multiplication factor N*/
        MODIFY_REG(RCC->PLLSAI1CFGR,
 80025b8:	4b1d      	ldr	r3, [pc, #116]	@ (8002630 <RCCEx_PLLSAI1_Config+0x1e4>)
 80025ba:	691b      	ldr	r3, [r3, #16]
 80025bc:	f023 63c0 	bic.w	r3, r3, #100663296	@ 0x6000000
 80025c0:	f423 43fe 	bic.w	r3, r3, #32512	@ 0x7f00
 80025c4:	687a      	ldr	r2, [r7, #4]
 80025c6:	6892      	ldr	r2, [r2, #8]
 80025c8:	0211      	lsls	r1, r2, #8
 80025ca:	687a      	ldr	r2, [r7, #4]
 80025cc:	6952      	ldr	r2, [r2, #20]
 80025ce:	0852      	lsrs	r2, r2, #1
 80025d0:	3a01      	subs	r2, #1
 80025d2:	0652      	lsls	r2, r2, #25
 80025d4:	430a      	orrs	r2, r1
 80025d6:	4916      	ldr	r1, [pc, #88]	@ (8002630 <RCCEx_PLLSAI1_Config+0x1e4>)
 80025d8:	4313      	orrs	r3, r2
 80025da:	610b      	str	r3, [r1, #16]
                   (((PllSai1->PLLSAI1R >> 1U) - 1U) << RCC_PLLSAI1CFGR_PLLSAI1R_Pos));
#endif /* RCC_PLLSAI1M_DIV_1_16_SUPPORT */
      }

      /* Enable the PLLSAI1 again by setting PLLSAI1ON to 1*/
      __HAL_RCC_PLLSAI1_ENABLE();
 80025dc:	4b14      	ldr	r3, [pc, #80]	@ (8002630 <RCCEx_PLLSAI1_Config+0x1e4>)
 80025de:	681b      	ldr	r3, [r3, #0]
 80025e0:	4a13      	ldr	r2, [pc, #76]	@ (8002630 <RCCEx_PLLSAI1_Config+0x1e4>)
 80025e2:	f043 6380 	orr.w	r3, r3, #67108864	@ 0x4000000
 80025e6:	6013      	str	r3, [r2, #0]

      /* Get Start Tick*/
      tickstart = HAL_GetTick();
 80025e8:	f7fe fb14 	bl	8000c14 <HAL_GetTick>
 80025ec:	60b8      	str	r0, [r7, #8]

      /* Wait till PLLSAI1 is ready */
      while(READ_BIT(RCC->CR, RCC_CR_PLLSAI1RDY) == 0U)
 80025ee:	e009      	b.n	8002604 <RCCEx_PLLSAI1_Config+0x1b8>
      {
        if((HAL_GetTick() - tickstart) > PLLSAI1_TIMEOUT_VALUE)
 80025f0:	f7fe fb10 	bl	8000c14 <HAL_GetTick>
 80025f4:	4602      	mov	r2, r0
 80025f6:	68bb      	ldr	r3, [r7, #8]
 80025f8:	1ad3      	subs	r3, r2, r3
 80025fa:	2b02      	cmp	r3, #2
 80025fc:	d902      	bls.n	8002604 <RCCEx_PLLSAI1_Config+0x1b8>
        {
          status = HAL_TIMEOUT;
 80025fe:	2303      	movs	r3, #3
 8002600:	73fb      	strb	r3, [r7, #15]
          break;
 8002602:	e005      	b.n	8002610 <RCCEx_PLLSAI1_Config+0x1c4>
      while(READ_BIT(RCC->CR, RCC_CR_PLLSAI1RDY) == 0U)
 8002604:	4b0a      	ldr	r3, [pc, #40]	@ (8002630 <RCCEx_PLLSAI1_Config+0x1e4>)
 8002606:	681b      	ldr	r3, [r3, #0]
 8002608:	f003 6300 	and.w	r3, r3, #134217728	@ 0x8000000
 800260c:	2b00      	cmp	r3, #0
 800260e:	d0ef      	beq.n	80025f0 <RCCEx_PLLSAI1_Config+0x1a4>
        }
      }

      if(status == HAL_OK)
 8002610:	7bfb      	ldrb	r3, [r7, #15]
 8002612:	2b00      	cmp	r3, #0
 8002614:	d106      	bne.n	8002624 <RCCEx_PLLSAI1_Config+0x1d8>
      {
        /* Configure the PLLSAI1 Clock output(s) */
        __HAL_RCC_PLLSAI1CLKOUT_ENABLE(PllSai1->PLLSAI1ClockOut);
 8002616:	4b06      	ldr	r3, [pc, #24]	@ (8002630 <RCCEx_PLLSAI1_Config+0x1e4>)
 8002618:	691a      	ldr	r2, [r3, #16]
 800261a:	687b      	ldr	r3, [r7, #4]
 800261c:	699b      	ldr	r3, [r3, #24]
 800261e:	4904      	ldr	r1, [pc, #16]	@ (8002630 <RCCEx_PLLSAI1_Config+0x1e4>)
 8002620:	4313      	orrs	r3, r2
 8002622:	610b      	str	r3, [r1, #16]
      }
    }
  }

  return status;
 8002624:	7bfb      	ldrb	r3, [r7, #15]
}
 8002626:	4618      	mov	r0, r3
 8002628:	3710      	adds	r7, #16
 800262a:	46bd      	mov	sp, r7
 800262c:	bd80      	pop	{r7, pc}
 800262e:	bf00      	nop
 8002630:	40021000 	.word	0x40021000

08002634 <RCCEx_PLLSAI2_Config>:
  * @note   PLLSAI2 is temporary disable to apply new parameters
  *
  * @retval HAL status
  */
static HAL_StatusTypeDef RCCEx_PLLSAI2_Config(RCC_PLLSAI2InitTypeDef *PllSai2, uint32_t Divider)
{
 8002634:	b580      	push	{r7, lr}
 8002636:	b084      	sub	sp, #16
 8002638:	af00      	add	r7, sp, #0
 800263a:	6078      	str	r0, [r7, #4]
 800263c:	6039      	str	r1, [r7, #0]
  uint32_t tickstart;
  HAL_StatusTypeDef status = HAL_OK;
 800263e:	2300      	movs	r3, #0
 8002640:	73fb      	strb	r3, [r7, #15]
  assert_param(IS_RCC_PLLSAI2M_VALUE(PllSai2->PLLSAI2M));
  assert_param(IS_RCC_PLLSAI2N_VALUE(PllSai2->PLLSAI2N));
  assert_param(IS_RCC_PLLSAI2CLOCKOUT_VALUE(PllSai2->PLLSAI2ClockOut));

  /* Check that PLLSAI2 clock source and divider M can be applied */
  if(__HAL_RCC_GET_PLL_OSCSOURCE() != RCC_PLLSOURCE_NONE)
 8002642:	4b6a      	ldr	r3, [pc, #424]	@ (80027ec <RCCEx_PLLSAI2_Config+0x1b8>)
 8002644:	68db      	ldr	r3, [r3, #12]
 8002646:	f003 0303 	and.w	r3, r3, #3
 800264a:	2b00      	cmp	r3, #0
 800264c:	d018      	beq.n	8002680 <RCCEx_PLLSAI2_Config+0x4c>
  {
    /* PLL clock source and divider M already set, check that no request for change  */
    if((__HAL_RCC_GET_PLL_OSCSOURCE() != PllSai2->PLLSAI2Source)
 800264e:	4b67      	ldr	r3, [pc, #412]	@ (80027ec <RCCEx_PLLSAI2_Config+0x1b8>)
 8002650:	68db      	ldr	r3, [r3, #12]
 8002652:	f003 0203 	and.w	r2, r3, #3
 8002656:	687b      	ldr	r3, [r7, #4]
 8002658:	681b      	ldr	r3, [r3, #0]
 800265a:	429a      	cmp	r2, r3
 800265c:	d10d      	bne.n	800267a <RCCEx_PLLSAI2_Config+0x46>
       ||
       (PllSai2->PLLSAI2Source == RCC_PLLSOURCE_NONE)
 800265e:	687b      	ldr	r3, [r7, #4]
 8002660:	681b      	ldr	r3, [r3, #0]
       ||
 8002662:	2b00      	cmp	r3, #0
 8002664:	d009      	beq.n	800267a <RCCEx_PLLSAI2_Config+0x46>
#if !defined(RCC_PLLSAI2M_DIV_1_16_SUPPORT)
       ||
       (((READ_BIT(RCC->PLLCFGR, RCC_PLLCFGR_PLLM) >> RCC_PLLCFGR_PLLM_Pos) + 1U) != PllSai2->PLLSAI2M)
 8002666:	4b61      	ldr	r3, [pc, #388]	@ (80027ec <RCCEx_PLLSAI2_Config+0x1b8>)
 8002668:	68db      	ldr	r3, [r3, #12]
 800266a:	091b      	lsrs	r3, r3, #4
 800266c:	f003 0307 	and.w	r3, r3, #7
 8002670:	1c5a      	adds	r2, r3, #1
 8002672:	687b      	ldr	r3, [r7, #4]
 8002674:	685b      	ldr	r3, [r3, #4]
       ||
 8002676:	429a      	cmp	r2, r3
 8002678:	d047      	beq.n	800270a <RCCEx_PLLSAI2_Config+0xd6>
#endif
      )
    {
      status = HAL_ERROR;
 800267a:	2301      	movs	r3, #1
 800267c:	73fb      	strb	r3, [r7, #15]
 800267e:	e044      	b.n	800270a <RCCEx_PLLSAI2_Config+0xd6>
    }
  }
  else
  {
    /* Check PLLSAI2 clock source availability */
    switch(PllSai2->PLLSAI2Source)
 8002680:	687b      	ldr	r3, [r7, #4]
 8002682:	681b      	ldr	r3, [r3, #0]
 8002684:	2b03      	cmp	r3, #3
 8002686:	d018      	beq.n	80026ba <RCCEx_PLLSAI2_Config+0x86>
 8002688:	2b03      	cmp	r3, #3
 800268a:	d825      	bhi.n	80026d8 <RCCEx_PLLSAI2_Config+0xa4>
 800268c:	2b01      	cmp	r3, #1
 800268e:	d002      	beq.n	8002696 <RCCEx_PLLSAI2_Config+0x62>
 8002690:	2b02      	cmp	r3, #2
 8002692:	d009      	beq.n	80026a8 <RCCEx_PLLSAI2_Config+0x74>
 8002694:	e020      	b.n	80026d8 <RCCEx_PLLSAI2_Config+0xa4>
    {
    case RCC_PLLSOURCE_MSI:
      if(HAL_IS_BIT_CLR(RCC->CR, RCC_CR_MSIRDY))
 8002696:	4b55      	ldr	r3, [pc, #340]	@ (80027ec <RCCEx_PLLSAI2_Config+0x1b8>)
 8002698:	681b      	ldr	r3, [r3, #0]
 800269a:	f003 0302 	and.w	r3, r3, #2
 800269e:	2b00      	cmp	r3, #0
 80026a0:	d11d      	bne.n	80026de <RCCEx_PLLSAI2_Config+0xaa>
      {
        status = HAL_ERROR;
 80026a2:	2301      	movs	r3, #1
 80026a4:	73fb      	strb	r3, [r7, #15]
      }
      break;
 80026a6:	e01a      	b.n	80026de <RCCEx_PLLSAI2_Config+0xaa>
    case RCC_PLLSOURCE_HSI:
      if(HAL_IS_BIT_CLR(RCC->CR, RCC_CR_HSIRDY))
 80026a8:	4b50      	ldr	r3, [pc, #320]	@ (80027ec <RCCEx_PLLSAI2_Config+0x1b8>)
 80026aa:	681b      	ldr	r3, [r3, #0]
 80026ac:	f403 6380 	and.w	r3, r3, #1024	@ 0x400
 80026b0:	2b00      	cmp	r3, #0
 80026b2:	d116      	bne.n	80026e2 <RCCEx_PLLSAI2_Config+0xae>
      {
        status = HAL_ERROR;
 80026b4:	2301      	movs	r3, #1
 80026b6:	73fb      	strb	r3, [r7, #15]
      }
      break;
 80026b8:	e013      	b.n	80026e2 <RCCEx_PLLSAI2_Config+0xae>
    case RCC_PLLSOURCE_HSE:
      if(HAL_IS_BIT_CLR(RCC->CR, RCC_CR_HSERDY))
 80026ba:	4b4c      	ldr	r3, [pc, #304]	@ (80027ec <RCCEx_PLLSAI2_Config+0x1b8>)
 80026bc:	681b      	ldr	r3, [r3, #0]
 80026be:	f403 3300 	and.w	r3, r3, #131072	@ 0x20000
 80026c2:	2b00      	cmp	r3, #0
 80026c4:	d10f      	bne.n	80026e6 <RCCEx_PLLSAI2_Config+0xb2>
      {
        if(HAL_IS_BIT_CLR(RCC->CR, RCC_CR_HSEBYP))
 80026c6:	4b49      	ldr	r3, [pc, #292]	@ (80027ec <RCCEx_PLLSAI2_Config+0x1b8>)
 80026c8:	681b      	ldr	r3, [r3, #0]
 80026ca:	f403 2380 	and.w	r3, r3, #262144	@ 0x40000
 80026ce:	2b00      	cmp	r3, #0
 80026d0:	d109      	bne.n	80026e6 <RCCEx_PLLSAI2_Config+0xb2>
        {
          status = HAL_ERROR;
 80026d2:	2301      	movs	r3, #1
 80026d4:	73fb      	strb	r3, [r7, #15]
        }
      }
      break;
 80026d6:	e006      	b.n	80026e6 <RCCEx_PLLSAI2_Config+0xb2>
    default:
      status = HAL_ERROR;
 80026d8:	2301      	movs	r3, #1
 80026da:	73fb      	strb	r3, [r7, #15]
      break;
 80026dc:	e004      	b.n	80026e8 <RCCEx_PLLSAI2_Config+0xb4>
      break;
 80026de:	bf00      	nop
 80026e0:	e002      	b.n	80026e8 <RCCEx_PLLSAI2_Config+0xb4>
      break;
 80026e2:	bf00      	nop
 80026e4:	e000      	b.n	80026e8 <RCCEx_PLLSAI2_Config+0xb4>
      break;
 80026e6:	bf00      	nop
    }

    if(status == HAL_OK)
 80026e8:	7bfb      	ldrb	r3, [r7, #15]
 80026ea:	2b00      	cmp	r3, #0
 80026ec:	d10d      	bne.n	800270a <RCCEx_PLLSAI2_Config+0xd6>
#if defined(RCC_PLLSAI2M_DIV_1_16_SUPPORT)
      /* Set PLLSAI2 clock source */
      MODIFY_REG(RCC->PLLCFGR, RCC_PLLCFGR_PLLSRC, PllSai2->PLLSAI2Source);
#else
      /* Set PLLSAI2 clock source and divider M */
      MODIFY_REG(RCC->PLLCFGR, RCC_PLLCFGR_PLLSRC | RCC_PLLCFGR_PLLM, PllSai2->PLLSAI2Source | (PllSai2->PLLSAI2M - 1U) << RCC_PLLCFGR_PLLM_Pos);
 80026ee:	4b3f      	ldr	r3, [pc, #252]	@ (80027ec <RCCEx_PLLSAI2_Config+0x1b8>)
 80026f0:	68db      	ldr	r3, [r3, #12]
 80026f2:	f023 0273 	bic.w	r2, r3, #115	@ 0x73
 80026f6:	687b      	ldr	r3, [r7, #4]
 80026f8:	6819      	ldr	r1, [r3, #0]
 80026fa:	687b      	ldr	r3, [r7, #4]
 80026fc:	685b      	ldr	r3, [r3, #4]
 80026fe:	3b01      	subs	r3, #1
 8002700:	011b      	lsls	r3, r3, #4
 8002702:	430b      	orrs	r3, r1
 8002704:	4939      	ldr	r1, [pc, #228]	@ (80027ec <RCCEx_PLLSAI2_Config+0x1b8>)
 8002706:	4313      	orrs	r3, r2
 8002708:	60cb      	str	r3, [r1, #12]
#endif
    }
  }

  if(status == HAL_OK)
 800270a:	7bfb      	ldrb	r3, [r7, #15]
 800270c:	2b00      	cmp	r3, #0
 800270e:	d167      	bne.n	80027e0 <RCCEx_PLLSAI2_Config+0x1ac>
  {
    /* Disable the PLLSAI2 */
    __HAL_RCC_PLLSAI2_DISABLE();
 8002710:	4b36      	ldr	r3, [pc, #216]	@ (80027ec <RCCEx_PLLSAI2_Config+0x1b8>)
 8002712:	681b      	ldr	r3, [r3, #0]
 8002714:	4a35      	ldr	r2, [pc, #212]	@ (80027ec <RCCEx_PLLSAI2_Config+0x1b8>)
 8002716:	f023 5380 	bic.w	r3, r3, #268435456	@ 0x10000000
 800271a:	6013      	str	r3, [r2, #0]

    /* Get Start Tick*/
    tickstart = HAL_GetTick();
 800271c:	f7fe fa7a 	bl	8000c14 <HAL_GetTick>
 8002720:	60b8      	str	r0, [r7, #8]

    /* Wait till PLLSAI2 is ready to be updated */
    while(READ_BIT(RCC->CR, RCC_CR_PLLSAI2RDY) != 0U)
 8002722:	e009      	b.n	8002738 <RCCEx_PLLSAI2_Config+0x104>
    {
      if((HAL_GetTick() - tickstart) > PLLSAI2_TIMEOUT_VALUE)
 8002724:	f7fe fa76 	bl	8000c14 <HAL_GetTick>
 8002728:	4602      	mov	r2, r0
 800272a:	68bb      	ldr	r3, [r7, #8]
 800272c:	1ad3      	subs	r3, r2, r3
 800272e:	2b02      	cmp	r3, #2
 8002730:	d902      	bls.n	8002738 <RCCEx_PLLSAI2_Config+0x104>
      {
        status = HAL_TIMEOUT;
 8002732:	2303      	movs	r3, #3
 8002734:	73fb      	strb	r3, [r7, #15]
        break;
 8002736:	e005      	b.n	8002744 <RCCEx_PLLSAI2_Config+0x110>
    while(READ_BIT(RCC->CR, RCC_CR_PLLSAI2RDY) != 0U)
 8002738:	4b2c      	ldr	r3, [pc, #176]	@ (80027ec <RCCEx_PLLSAI2_Config+0x1b8>)
 800273a:	681b      	ldr	r3, [r3, #0]
 800273c:	f003 5300 	and.w	r3, r3, #536870912	@ 0x20000000
 8002740:	2b00      	cmp	r3, #0
 8002742:	d1ef      	bne.n	8002724 <RCCEx_PLLSAI2_Config+0xf0>
      }
    }

    if(status == HAL_OK)
 8002744:	7bfb      	ldrb	r3, [r7, #15]
 8002746:	2b00      	cmp	r3, #0
 8002748:	d14a      	bne.n	80027e0 <RCCEx_PLLSAI2_Config+0x1ac>
    {
      if(Divider == DIVIDER_P_UPDATE)
 800274a:	683b      	ldr	r3, [r7, #0]
 800274c:	2b00      	cmp	r3, #0
 800274e:	d111      	bne.n	8002774 <RCCEx_PLLSAI2_Config+0x140>
        MODIFY_REG(RCC->PLLSAI2CFGR,
                   RCC_PLLSAI2CFGR_PLLSAI2N | RCC_PLLSAI2CFGR_PLLSAI2PDIV,
                   (PllSai2->PLLSAI2N << RCC_PLLSAI2CFGR_PLLSAI2N_Pos) |
                   (PllSai2->PLLSAI2P << RCC_PLLSAI2CFGR_PLLSAI2PDIV_Pos));
#else
        MODIFY_REG(RCC->PLLSAI2CFGR,
 8002750:	4b26      	ldr	r3, [pc, #152]	@ (80027ec <RCCEx_PLLSAI2_Config+0x1b8>)
 8002752:	695b      	ldr	r3, [r3, #20]
 8002754:	f423 331f 	bic.w	r3, r3, #162816	@ 0x27c00
 8002758:	f423 7340 	bic.w	r3, r3, #768	@ 0x300
 800275c:	687a      	ldr	r2, [r7, #4]
 800275e:	6892      	ldr	r2, [r2, #8]
 8002760:	0211      	lsls	r1, r2, #8
 8002762:	687a      	ldr	r2, [r7, #4]
 8002764:	68d2      	ldr	r2, [r2, #12]
 8002766:	0912      	lsrs	r2, r2, #4
 8002768:	0452      	lsls	r2, r2, #17
 800276a:	430a      	orrs	r2, r1
 800276c:	491f      	ldr	r1, [pc, #124]	@ (80027ec <RCCEx_PLLSAI2_Config+0x1b8>)
 800276e:	4313      	orrs	r3, r2
 8002770:	614b      	str	r3, [r1, #20]
 8002772:	e011      	b.n	8002798 <RCCEx_PLLSAI2_Config+0x164>
                   (PllSai2->PLLSAI2N << RCC_PLLSAI2CFGR_PLLSAI2N_Pos) |
                   (((PllSai2->PLLSAI2R >> 1U) - 1U) << RCC_PLLSAI2CFGR_PLLSAI2R_Pos) |
                   ((PllSai2->PLLSAI2M - 1U) << RCC_PLLSAI2CFGR_PLLSAI2M_Pos));
#else
        /* Configure the PLLSAI2 Division factor R and Multiplication factor N*/
        MODIFY_REG(RCC->PLLSAI2CFGR,
 8002774:	4b1d      	ldr	r3, [pc, #116]	@ (80027ec <RCCEx_PLLSAI2_Config+0x1b8>)
 8002776:	695b      	ldr	r3, [r3, #20]
 8002778:	f023 63c0 	bic.w	r3, r3, #100663296	@ 0x6000000
 800277c:	f423 43fe 	bic.w	r3, r3, #32512	@ 0x7f00
 8002780:	687a      	ldr	r2, [r7, #4]
 8002782:	6892      	ldr	r2, [r2, #8]
 8002784:	0211      	lsls	r1, r2, #8
 8002786:	687a      	ldr	r2, [r7, #4]
 8002788:	6912      	ldr	r2, [r2, #16]
 800278a:	0852      	lsrs	r2, r2, #1
 800278c:	3a01      	subs	r2, #1
 800278e:	0652      	lsls	r2, r2, #25
 8002790:	430a      	orrs	r2, r1
 8002792:	4916      	ldr	r1, [pc, #88]	@ (80027ec <RCCEx_PLLSAI2_Config+0x1b8>)
 8002794:	4313      	orrs	r3, r2
 8002796:	614b      	str	r3, [r1, #20]
                   (((PllSai2->PLLSAI2R >> 1U) - 1U) << RCC_PLLSAI2CFGR_PLLSAI2R_Pos));
#endif /* RCC_PLLSAI2M_DIV_1_16_SUPPORT */
      }

      /* Enable the PLLSAI2 again by setting PLLSAI2ON to 1*/
      __HAL_RCC_PLLSAI2_ENABLE();
 8002798:	4b14      	ldr	r3, [pc, #80]	@ (80027ec <RCCEx_PLLSAI2_Config+0x1b8>)
 800279a:	681b      	ldr	r3, [r3, #0]
 800279c:	4a13      	ldr	r2, [pc, #76]	@ (80027ec <RCCEx_PLLSAI2_Config+0x1b8>)
 800279e:	f043 5380 	orr.w	r3, r3, #268435456	@ 0x10000000
 80027a2:	6013      	str	r3, [r2, #0]

      /* Get Start Tick*/
      tickstart = HAL_GetTick();
 80027a4:	f7fe fa36 	bl	8000c14 <HAL_GetTick>
 80027a8:	60b8      	str	r0, [r7, #8]

      /* Wait till PLLSAI2 is ready */
      while(READ_BIT(RCC->CR, RCC_CR_PLLSAI2RDY) == 0U)
 80027aa:	e009      	b.n	80027c0 <RCCEx_PLLSAI2_Config+0x18c>
      {
        if((HAL_GetTick() - tickstart) > PLLSAI2_TIMEOUT_VALUE)
 80027ac:	f7fe fa32 	bl	8000c14 <HAL_GetTick>
 80027b0:	4602      	mov	r2, r0
 80027b2:	68bb      	ldr	r3, [r7, #8]
 80027b4:	1ad3      	subs	r3, r2, r3
 80027b6:	2b02      	cmp	r3, #2
 80027b8:	d902      	bls.n	80027c0 <RCCEx_PLLSAI2_Config+0x18c>
        {
          status = HAL_TIMEOUT;
 80027ba:	2303      	movs	r3, #3
 80027bc:	73fb      	strb	r3, [r7, #15]
          break;
 80027be:	e005      	b.n	80027cc <RCCEx_PLLSAI2_Config+0x198>
      while(READ_BIT(RCC->CR, RCC_CR_PLLSAI2RDY) == 0U)
 80027c0:	4b0a      	ldr	r3, [pc, #40]	@ (80027ec <RCCEx_PLLSAI2_Config+0x1b8>)
 80027c2:	681b      	ldr	r3, [r3, #0]
 80027c4:	f003 5300 	and.w	r3, r3, #536870912	@ 0x20000000
 80027c8:	2b00      	cmp	r3, #0
 80027ca:	d0ef      	beq.n	80027ac <RCCEx_PLLSAI2_Config+0x178>
        }
      }

      if(status == HAL_OK)
 80027cc:	7bfb      	ldrb	r3, [r7, #15]
 80027ce:	2b00      	cmp	r3, #0
 80027d0:	d106      	bne.n	80027e0 <RCCEx_PLLSAI2_Config+0x1ac>
      {
        /* Configure the PLLSAI2 Clock output(s) */
        __HAL_RCC_PLLSAI2CLKOUT_ENABLE(PllSai2->PLLSAI2ClockOut);
 80027d2:	4b06      	ldr	r3, [pc, #24]	@ (80027ec <RCCEx_PLLSAI2_Config+0x1b8>)
 80027d4:	695a      	ldr	r2, [r3, #20]
 80027d6:	687b      	ldr	r3, [r7, #4]
 80027d8:	695b      	ldr	r3, [r3, #20]
 80027da:	4904      	ldr	r1, [pc, #16]	@ (80027ec <RCCEx_PLLSAI2_Config+0x1b8>)
 80027dc:	4313      	orrs	r3, r2
 80027de:	614b      	str	r3, [r1, #20]
      }
    }
  }

  return status;
 80027e0:	7bfb      	ldrb	r3, [r7, #15]
}
 80027e2:	4618      	mov	r0, r3
 80027e4:	3710      	adds	r7, #16
 80027e6:	46bd      	mov	sp, r7
 80027e8:	bd80      	pop	{r7, pc}
 80027ea:	bf00      	nop
 80027ec:	40021000 	.word	0x40021000

080027f0 <HAL_UART_Init>:
  *        parameters in the UART_InitTypeDef and initialize the associated handle.
  * @param huart UART handle.
  * @retval HAL status
  */
HAL_StatusTypeDef HAL_UART_Init(UART_HandleTypeDef *huart)
{
 80027f0:	b580      	push	{r7, lr}
 80027f2:	b082      	sub	sp, #8
 80027f4:	af00      	add	r7, sp, #0
 80027f6:	6078      	str	r0, [r7, #4]
  /* Check the UART handle allocation */
  if (huart == NULL)
 80027f8:	687b      	ldr	r3, [r7, #4]
 80027fa:	2b00      	cmp	r3, #0
 80027fc:	d101      	bne.n	8002802 <HAL_UART_Init+0x12>
  {
    return HAL_ERROR;
 80027fe:	2301      	movs	r3, #1
 8002800:	e040      	b.n	8002884 <HAL_UART_Init+0x94>
  {
    /* Check the parameters */
    assert_param((IS_UART_INSTANCE(huart->Instance)) || (IS_LPUART_INSTANCE(huart->Instance)));
  }

  if (huart->gState == HAL_UART_STATE_RESET)
 8002802:	687b      	ldr	r3, [r7, #4]
 8002804:	6fdb      	ldr	r3, [r3, #124]	@ 0x7c
 8002806:	2b00      	cmp	r3, #0
 8002808:	d106      	bne.n	8002818 <HAL_UART_Init+0x28>
  {
    /* Allocate lock resource and initialize it */
    huart->Lock = HAL_UNLOCKED;
 800280a:	687b      	ldr	r3, [r7, #4]
 800280c:	2200      	movs	r2, #0
 800280e:	f883 2078 	strb.w	r2, [r3, #120]	@ 0x78

    /* Init the low level hardware */
    huart->MspInitCallback(huart);
#else
    /* Init the low level hardware : GPIO, CLOCK */
    HAL_UART_MspInit(huart);
 8002812:	6878      	ldr	r0, [r7, #4]
 8002814:	f7fe f898 	bl	8000948 <HAL_UART_MspInit>
#endif /* (USE_HAL_UART_REGISTER_CALLBACKS) */
  }

  huart->gState = HAL_UART_STATE_BUSY;
 8002818:	687b      	ldr	r3, [r7, #4]
 800281a:	2224      	movs	r2, #36	@ 0x24
 800281c:	67da      	str	r2, [r3, #124]	@ 0x7c

  __HAL_UART_DISABLE(huart);
 800281e:	687b      	ldr	r3, [r7, #4]
 8002820:	681b      	ldr	r3, [r3, #0]
 8002822:	681a      	ldr	r2, [r3, #0]
 8002824:	687b      	ldr	r3, [r7, #4]
 8002826:	681b      	ldr	r3, [r3, #0]
 8002828:	f022 0201 	bic.w	r2, r2, #1
 800282c:	601a      	str	r2, [r3, #0]

  /* Perform advanced settings configuration */
  /* For some items, configuration requires to be done prior TE and RE bits are set */
  if (huart->AdvancedInit.AdvFeatureInit != UART_ADVFEATURE_NO_INIT)
 800282e:	687b      	ldr	r3, [r7, #4]
 8002830:	6a5b      	ldr	r3, [r3, #36]	@ 0x24
 8002832:	2b00      	cmp	r3, #0
 8002834:	d002      	beq.n	800283c <HAL_UART_Init+0x4c>
  {
    UART_AdvFeatureConfig(huart);
 8002836:	6878      	ldr	r0, [r7, #4]
 8002838:	f000 fb6a 	bl	8002f10 <UART_AdvFeatureConfig>
  }

  /* Set the UART Communication parameters */
  if (UART_SetConfig(huart) == HAL_ERROR)
 800283c:	6878      	ldr	r0, [r7, #4]
 800283e:	f000 f8af 	bl	80029a0 <UART_SetConfig>
 8002842:	4603      	mov	r3, r0
 8002844:	2b01      	cmp	r3, #1
 8002846:	d101      	bne.n	800284c <HAL_UART_Init+0x5c>
  {
    return HAL_ERROR;
 8002848:	2301      	movs	r3, #1
 800284a:	e01b      	b.n	8002884 <HAL_UART_Init+0x94>
  }

  /* In asynchronous mode, the following bits must be kept cleared:
  - LINEN and CLKEN bits in the USART_CR2 register,
  - SCEN, HDSEL and IREN  bits in the USART_CR3 register.*/
  CLEAR_BIT(huart->Instance->CR2, (USART_CR2_LINEN | USART_CR2_CLKEN));
 800284c:	687b      	ldr	r3, [r7, #4]
 800284e:	681b      	ldr	r3, [r3, #0]
 8002850:	685a      	ldr	r2, [r3, #4]
 8002852:	687b      	ldr	r3, [r7, #4]
 8002854:	681b      	ldr	r3, [r3, #0]
 8002856:	f422 4290 	bic.w	r2, r2, #18432	@ 0x4800
 800285a:	605a      	str	r2, [r3, #4]
  CLEAR_BIT(huart->Instance->CR3, (USART_CR3_SCEN | USART_CR3_HDSEL | USART_CR3_IREN));
 800285c:	687b      	ldr	r3, [r7, #4]
 800285e:	681b      	ldr	r3, [r3, #0]
 8002860:	689a      	ldr	r2, [r3, #8]
 8002862:	687b      	ldr	r3, [r7, #4]
 8002864:	681b      	ldr	r3, [r3, #0]
 8002866:	f022 022a 	bic.w	r2, r2, #42	@ 0x2a
 800286a:	609a      	str	r2, [r3, #8]

  __HAL_UART_ENABLE(huart);
 800286c:	687b      	ldr	r3, [r7, #4]
 800286e:	681b      	ldr	r3, [r3, #0]
 8002870:	681a      	ldr	r2, [r3, #0]
 8002872:	687b      	ldr	r3, [r7, #4]
 8002874:	681b      	ldr	r3, [r3, #0]
 8002876:	f042 0201 	orr.w	r2, r2, #1
 800287a:	601a      	str	r2, [r3, #0]

  /* TEACK and/or REACK to check before moving huart->gState and huart->RxState to Ready */
  return (UART_CheckIdleState(huart));
 800287c:	6878      	ldr	r0, [r7, #4]
 800287e:	f000 fbe9 	bl	8003054 <UART_CheckIdleState>
 8002882:	4603      	mov	r3, r0
}
 8002884:	4618      	mov	r0, r3
 8002886:	3708      	adds	r7, #8
 8002888:	46bd      	mov	sp, r7
 800288a:	bd80      	pop	{r7, pc}

0800288c <HAL_UART_Transmit>:
  * @param Size    Amount of data elements (u8 or u16) to be sent.
  * @param Timeout Timeout duration.
  * @retval HAL status
  */
HAL_StatusTypeDef HAL_UART_Transmit(UART_HandleTypeDef *huart, const uint8_t *pData, uint16_t Size, uint32_t Timeout)
{
 800288c:	b580      	push	{r7, lr}
 800288e:	b08a      	sub	sp, #40	@ 0x28
 8002890:	af02      	add	r7, sp, #8
 8002892:	60f8      	str	r0, [r7, #12]
 8002894:	60b9      	str	r1, [r7, #8]
 8002896:	603b      	str	r3, [r7, #0]
 8002898:	4613      	mov	r3, r2
 800289a:	80fb      	strh	r3, [r7, #6]
  const uint8_t  *pdata8bits;
  const uint16_t *pdata16bits;
  uint32_t tickstart;

  /* Check that a Tx process is not already ongoing */
  if (huart->gState == HAL_UART_STATE_READY)
 800289c:	68fb      	ldr	r3, [r7, #12]
 800289e:	6fdb      	ldr	r3, [r3, #124]	@ 0x7c
 80028a0:	2b20      	cmp	r3, #32
 80028a2:	d177      	bne.n	8002994 <HAL_UART_Transmit+0x108>
  {
    if ((pData == NULL) || (Size == 0U))
 80028a4:	68bb      	ldr	r3, [r7, #8]
 80028a6:	2b00      	cmp	r3, #0
 80028a8:	d002      	beq.n	80028b0 <HAL_UART_Transmit+0x24>
 80028aa:	88fb      	ldrh	r3, [r7, #6]
 80028ac:	2b00      	cmp	r3, #0
 80028ae:	d101      	bne.n	80028b4 <HAL_UART_Transmit+0x28>
    {
      return  HAL_ERROR;
 80028b0:	2301      	movs	r3, #1
 80028b2:	e070      	b.n	8002996 <HAL_UART_Transmit+0x10a>
    }

    huart->ErrorCode = HAL_UART_ERROR_NONE;
 80028b4:	68fb      	ldr	r3, [r7, #12]
 80028b6:	2200      	movs	r2, #0
 80028b8:	f8c3 2084 	str.w	r2, [r3, #132]	@ 0x84
    huart->gState = HAL_UART_STATE_BUSY_TX;
 80028bc:	68fb      	ldr	r3, [r7, #12]
 80028be:	2221      	movs	r2, #33	@ 0x21
 80028c0:	67da      	str	r2, [r3, #124]	@ 0x7c

    /* Init tickstart for timeout management */
    tickstart = HAL_GetTick();
 80028c2:	f7fe f9a7 	bl	8000c14 <HAL_GetTick>
 80028c6:	6178      	str	r0, [r7, #20]

    huart->TxXferSize  = Size;
 80028c8:	68fb      	ldr	r3, [r7, #12]
 80028ca:	88fa      	ldrh	r2, [r7, #6]
 80028cc:	f8a3 2050 	strh.w	r2, [r3, #80]	@ 0x50
    huart->TxXferCount = Size;
 80028d0:	68fb      	ldr	r3, [r7, #12]
 80028d2:	88fa      	ldrh	r2, [r7, #6]
 80028d4:	f8a3 2052 	strh.w	r2, [r3, #82]	@ 0x52

    /* In case of 9bits/No Parity transfer, pData needs to be handled as a uint16_t pointer */
    if ((huart->Init.WordLength == UART_WORDLENGTH_9B) && (huart->Init.Parity == UART_PARITY_NONE))
 80028d8:	68fb      	ldr	r3, [r7, #12]
 80028da:	689b      	ldr	r3, [r3, #8]
 80028dc:	f5b3 5f80 	cmp.w	r3, #4096	@ 0x1000
 80028e0:	d108      	bne.n	80028f4 <HAL_UART_Transmit+0x68>
 80028e2:	68fb      	ldr	r3, [r7, #12]
 80028e4:	691b      	ldr	r3, [r3, #16]
 80028e6:	2b00      	cmp	r3, #0
 80028e8:	d104      	bne.n	80028f4 <HAL_UART_Transmit+0x68>
    {
      pdata8bits  = NULL;
 80028ea:	2300      	movs	r3, #0
 80028ec:	61fb      	str	r3, [r7, #28]
      pdata16bits = (const uint16_t *) pData;
 80028ee:	68bb      	ldr	r3, [r7, #8]
 80028f0:	61bb      	str	r3, [r7, #24]
 80028f2:	e003      	b.n	80028fc <HAL_UART_Transmit+0x70>
    }
    else
    {
      pdata8bits  = pData;
 80028f4:	68bb      	ldr	r3, [r7, #8]
 80028f6:	61fb      	str	r3, [r7, #28]
      pdata16bits = NULL;
 80028f8:	2300      	movs	r3, #0
 80028fa:	61bb      	str	r3, [r7, #24]
    }

    while (huart->TxXferCount > 0U)
 80028fc:	e02f      	b.n	800295e <HAL_UART_Transmit+0xd2>
    {
      if (UART_WaitOnFlagUntilTimeout(huart, UART_FLAG_TXE, RESET, tickstart, Timeout) != HAL_OK)
 80028fe:	683b      	ldr	r3, [r7, #0]
 8002900:	9300      	str	r3, [sp, #0]
 8002902:	697b      	ldr	r3, [r7, #20]
 8002904:	2200      	movs	r2, #0
 8002906:	2180      	movs	r1, #128	@ 0x80
 8002908:	68f8      	ldr	r0, [r7, #12]
 800290a:	f000 fc4b 	bl	80031a4 <UART_WaitOnFlagUntilTimeout>
 800290e:	4603      	mov	r3, r0
 8002910:	2b00      	cmp	r3, #0
 8002912:	d004      	beq.n	800291e <HAL_UART_Transmit+0x92>
      {

        huart->gState = HAL_UART_STATE_READY;
 8002914:	68fb      	ldr	r3, [r7, #12]
 8002916:	2220      	movs	r2, #32
 8002918:	67da      	str	r2, [r3, #124]	@ 0x7c

        return HAL_TIMEOUT;
 800291a:	2303      	movs	r3, #3
 800291c:	e03b      	b.n	8002996 <HAL_UART_Transmit+0x10a>
      }
      if (pdata8bits == NULL)
 800291e:	69fb      	ldr	r3, [r7, #28]
 8002920:	2b00      	cmp	r3, #0
 8002922:	d10b      	bne.n	800293c <HAL_UART_Transmit+0xb0>
      {
        huart->Instance->TDR = (uint16_t)(*pdata16bits & 0x01FFU);
 8002924:	69bb      	ldr	r3, [r7, #24]
 8002926:	881a      	ldrh	r2, [r3, #0]
 8002928:	68fb      	ldr	r3, [r7, #12]
 800292a:	681b      	ldr	r3, [r3, #0]
 800292c:	f3c2 0208 	ubfx	r2, r2, #0, #9
 8002930:	b292      	uxth	r2, r2
 8002932:	851a      	strh	r2, [r3, #40]	@ 0x28
        pdata16bits++;
 8002934:	69bb      	ldr	r3, [r7, #24]
 8002936:	3302      	adds	r3, #2
 8002938:	61bb      	str	r3, [r7, #24]
 800293a:	e007      	b.n	800294c <HAL_UART_Transmit+0xc0>
      }
      else
      {
        huart->Instance->TDR = (uint8_t)(*pdata8bits & 0xFFU);
 800293c:	69fb      	ldr	r3, [r7, #28]
 800293e:	781a      	ldrb	r2, [r3, #0]
 8002940:	68fb      	ldr	r3, [r7, #12]
 8002942:	681b      	ldr	r3, [r3, #0]
 8002944:	851a      	strh	r2, [r3, #40]	@ 0x28
        pdata8bits++;
 8002946:	69fb      	ldr	r3, [r7, #28]
 8002948:	3301      	adds	r3, #1
 800294a:	61fb      	str	r3, [r7, #28]
      }
      huart->TxXferCount--;
 800294c:	68fb      	ldr	r3, [r7, #12]
 800294e:	f8b3 3052 	ldrh.w	r3, [r3, #82]	@ 0x52
 8002952:	b29b      	uxth	r3, r3
 8002954:	3b01      	subs	r3, #1
 8002956:	b29a      	uxth	r2, r3
 8002958:	68fb      	ldr	r3, [r7, #12]
 800295a:	f8a3 2052 	strh.w	r2, [r3, #82]	@ 0x52
    while (huart->TxXferCount > 0U)
 800295e:	68fb      	ldr	r3, [r7, #12]
 8002960:	f8b3 3052 	ldrh.w	r3, [r3, #82]	@ 0x52
 8002964:	b29b      	uxth	r3, r3
 8002966:	2b00      	cmp	r3, #0
 8002968:	d1c9      	bne.n	80028fe <HAL_UART_Transmit+0x72>
    }

    if (UART_WaitOnFlagUntilTimeout(huart, UART_FLAG_TC, RESET, tickstart, Timeout) != HAL_OK)
 800296a:	683b      	ldr	r3, [r7, #0]
 800296c:	9300      	str	r3, [sp, #0]
 800296e:	697b      	ldr	r3, [r7, #20]
 8002970:	2200      	movs	r2, #0
 8002972:	2140      	movs	r1, #64	@ 0x40
 8002974:	68f8      	ldr	r0, [r7, #12]
 8002976:	f000 fc15 	bl	80031a4 <UART_WaitOnFlagUntilTimeout>
 800297a:	4603      	mov	r3, r0
 800297c:	2b00      	cmp	r3, #0
 800297e:	d004      	beq.n	800298a <HAL_UART_Transmit+0xfe>
    {
      huart->gState = HAL_UART_STATE_READY;
 8002980:	68fb      	ldr	r3, [r7, #12]
 8002982:	2220      	movs	r2, #32
 8002984:	67da      	str	r2, [r3, #124]	@ 0x7c

      return HAL_TIMEOUT;
 8002986:	2303      	movs	r3, #3
 8002988:	e005      	b.n	8002996 <HAL_UART_Transmit+0x10a>
    }

    /* At end of Tx process, restore huart->gState to Ready */
    huart->gState = HAL_UART_STATE_READY;
 800298a:	68fb      	ldr	r3, [r7, #12]
 800298c:	2220      	movs	r2, #32
 800298e:	67da      	str	r2, [r3, #124]	@ 0x7c

    return HAL_OK;
 8002990:	2300      	movs	r3, #0
 8002992:	e000      	b.n	8002996 <HAL_UART_Transmit+0x10a>
  }
  else
  {
    return HAL_BUSY;
 8002994:	2302      	movs	r3, #2
  }
}
 8002996:	4618      	mov	r0, r3
 8002998:	3720      	adds	r7, #32
 800299a:	46bd      	mov	sp, r7
 800299c:	bd80      	pop	{r7, pc}
	...

080029a0 <UART_SetConfig>:
  * @brief Configure the UART peripheral.
  * @param huart UART handle.
  * @retval HAL status
  */
HAL_StatusTypeDef UART_SetConfig(UART_HandleTypeDef *huart)
{
 80029a0:	e92d 4fb0 	stmdb	sp!, {r4, r5, r7, r8, r9, sl, fp, lr}
 80029a4:	b08a      	sub	sp, #40	@ 0x28
 80029a6:	af00      	add	r7, sp, #0
 80029a8:	60f8      	str	r0, [r7, #12]
  uint32_t tmpreg;
  uint16_t brrtemp;
  UART_ClockSourceTypeDef clocksource;
  uint32_t usartdiv;
  HAL_StatusTypeDef ret               = HAL_OK;
 80029aa:	2300      	movs	r3, #0
 80029ac:	f887 3022 	strb.w	r3, [r7, #34]	@ 0x22
  *  the UART Word Length, Parity, Mode and oversampling:
  *  set the M bits according to huart->Init.WordLength value
  *  set PCE and PS bits according to huart->Init.Parity value
  *  set TE and RE bits according to huart->Init.Mode value
  *  set OVER8 bit according to huart->Init.OverSampling value */
  tmpreg = (uint32_t)huart->Init.WordLength | huart->Init.Parity | huart->Init.Mode | huart->Init.OverSampling ;
 80029b0:	68fb      	ldr	r3, [r7, #12]
 80029b2:	689a      	ldr	r2, [r3, #8]
 80029b4:	68fb      	ldr	r3, [r7, #12]
 80029b6:	691b      	ldr	r3, [r3, #16]
 80029b8:	431a      	orrs	r2, r3
 80029ba:	68fb      	ldr	r3, [r7, #12]
 80029bc:	695b      	ldr	r3, [r3, #20]
 80029be:	431a      	orrs	r2, r3
 80029c0:	68fb      	ldr	r3, [r7, #12]
 80029c2:	69db      	ldr	r3, [r3, #28]
 80029c4:	4313      	orrs	r3, r2
 80029c6:	627b      	str	r3, [r7, #36]	@ 0x24
  MODIFY_REG(huart->Instance->CR1, USART_CR1_FIELDS, tmpreg);
 80029c8:	68fb      	ldr	r3, [r7, #12]
 80029ca:	681b      	ldr	r3, [r3, #0]
 80029cc:	681a      	ldr	r2, [r3, #0]
 80029ce:	4ba4      	ldr	r3, [pc, #656]	@ (8002c60 <UART_SetConfig+0x2c0>)
 80029d0:	4013      	ands	r3, r2
 80029d2:	68fa      	ldr	r2, [r7, #12]
 80029d4:	6812      	ldr	r2, [r2, #0]
 80029d6:	6a79      	ldr	r1, [r7, #36]	@ 0x24
 80029d8:	430b      	orrs	r3, r1
 80029da:	6013      	str	r3, [r2, #0]

  /*-------------------------- USART CR2 Configuration -----------------------*/
  /* Configure the UART Stop Bits: Set STOP[13:12] bits according
  * to huart->Init.StopBits value */
  MODIFY_REG(huart->Instance->CR2, USART_CR2_STOP, huart->Init.StopBits);
 80029dc:	68fb      	ldr	r3, [r7, #12]
 80029de:	681b      	ldr	r3, [r3, #0]
 80029e0:	685b      	ldr	r3, [r3, #4]
 80029e2:	f423 5140 	bic.w	r1, r3, #12288	@ 0x3000
 80029e6:	68fb      	ldr	r3, [r7, #12]
 80029e8:	68da      	ldr	r2, [r3, #12]
 80029ea:	68fb      	ldr	r3, [r7, #12]
 80029ec:	681b      	ldr	r3, [r3, #0]
 80029ee:	430a      	orrs	r2, r1
 80029f0:	605a      	str	r2, [r3, #4]
  /* Configure
  * - UART HardWare Flow Control: set CTSE and RTSE bits according
  *   to huart->Init.HwFlowCtl value
  * - one-bit sampling method versus three samples' majority rule according
  *   to huart->Init.OneBitSampling (not applicable to LPUART) */
  tmpreg = (uint32_t)huart->Init.HwFlowCtl;
 80029f2:	68fb      	ldr	r3, [r7, #12]
 80029f4:	699b      	ldr	r3, [r3, #24]
 80029f6:	627b      	str	r3, [r7, #36]	@ 0x24

  if (!(UART_INSTANCE_LOWPOWER(huart)))
 80029f8:	68fb      	ldr	r3, [r7, #12]
 80029fa:	681b      	ldr	r3, [r3, #0]
 80029fc:	4a99      	ldr	r2, [pc, #612]	@ (8002c64 <UART_SetConfig+0x2c4>)
 80029fe:	4293      	cmp	r3, r2
 8002a00:	d004      	beq.n	8002a0c <UART_SetConfig+0x6c>
  {
    tmpreg |= huart->Init.OneBitSampling;
 8002a02:	68fb      	ldr	r3, [r7, #12]
 8002a04:	6a1b      	ldr	r3, [r3, #32]
 8002a06:	6a7a      	ldr	r2, [r7, #36]	@ 0x24
 8002a08:	4313      	orrs	r3, r2
 8002a0a:	627b      	str	r3, [r7, #36]	@ 0x24
  }
  MODIFY_REG(huart->Instance->CR3, USART_CR3_FIELDS, tmpreg);
 8002a0c:	68fb      	ldr	r3, [r7, #12]
 8002a0e:	681b      	ldr	r3, [r3, #0]
 8002a10:	689b      	ldr	r3, [r3, #8]
 8002a12:	f423 6130 	bic.w	r1, r3, #2816	@ 0xb00
 8002a16:	68fb      	ldr	r3, [r7, #12]
 8002a18:	681b      	ldr	r3, [r3, #0]
 8002a1a:	6a7a      	ldr	r2, [r7, #36]	@ 0x24
 8002a1c:	430a      	orrs	r2, r1
 8002a1e:	609a      	str	r2, [r3, #8]
  * - UART Clock Prescaler : set PRESCALER according to huart->Init.ClockPrescaler value */
  MODIFY_REG(huart->Instance->PRESC, USART_PRESC_PRESCALER, huart->Init.ClockPrescaler);
#endif /* USART_PRESC_PRESCALER */

  /*-------------------------- USART BRR Configuration -----------------------*/
  UART_GETCLOCKSOURCE(huart, clocksource);
 8002a20:	68fb      	ldr	r3, [r7, #12]
 8002a22:	681b      	ldr	r3, [r3, #0]
 8002a24:	4a90      	ldr	r2, [pc, #576]	@ (8002c68 <UART_SetConfig+0x2c8>)
 8002a26:	4293      	cmp	r3, r2
 8002a28:	d126      	bne.n	8002a78 <UART_SetConfig+0xd8>
 8002a2a:	4b90      	ldr	r3, [pc, #576]	@ (8002c6c <UART_SetConfig+0x2cc>)
 8002a2c:	f8d3 3088 	ldr.w	r3, [r3, #136]	@ 0x88
 8002a30:	f003 0303 	and.w	r3, r3, #3
 8002a34:	2b03      	cmp	r3, #3
 8002a36:	d81b      	bhi.n	8002a70 <UART_SetConfig+0xd0>
 8002a38:	a201      	add	r2, pc, #4	@ (adr r2, 8002a40 <UART_SetConfig+0xa0>)
 8002a3a:	f852 f023 	ldr.w	pc, [r2, r3, lsl #2]
 8002a3e:	bf00      	nop
 8002a40:	08002a51 	.word	0x08002a51
 8002a44:	08002a61 	.word	0x08002a61
 8002a48:	08002a59 	.word	0x08002a59
 8002a4c:	08002a69 	.word	0x08002a69
 8002a50:	2301      	movs	r3, #1
 8002a52:	f887 3023 	strb.w	r3, [r7, #35]	@ 0x23
 8002a56:	e116      	b.n	8002c86 <UART_SetConfig+0x2e6>
 8002a58:	2302      	movs	r3, #2
 8002a5a:	f887 3023 	strb.w	r3, [r7, #35]	@ 0x23
 8002a5e:	e112      	b.n	8002c86 <UART_SetConfig+0x2e6>
 8002a60:	2304      	movs	r3, #4
 8002a62:	f887 3023 	strb.w	r3, [r7, #35]	@ 0x23
 8002a66:	e10e      	b.n	8002c86 <UART_SetConfig+0x2e6>
 8002a68:	2308      	movs	r3, #8
 8002a6a:	f887 3023 	strb.w	r3, [r7, #35]	@ 0x23
 8002a6e:	e10a      	b.n	8002c86 <UART_SetConfig+0x2e6>
 8002a70:	2310      	movs	r3, #16
 8002a72:	f887 3023 	strb.w	r3, [r7, #35]	@ 0x23
 8002a76:	e106      	b.n	8002c86 <UART_SetConfig+0x2e6>
 8002a78:	68fb      	ldr	r3, [r7, #12]
 8002a7a:	681b      	ldr	r3, [r3, #0]
 8002a7c:	4a7c      	ldr	r2, [pc, #496]	@ (8002c70 <UART_SetConfig+0x2d0>)
 8002a7e:	4293      	cmp	r3, r2
 8002a80:	d138      	bne.n	8002af4 <UART_SetConfig+0x154>
 8002a82:	4b7a      	ldr	r3, [pc, #488]	@ (8002c6c <UART_SetConfig+0x2cc>)
 8002a84:	f8d3 3088 	ldr.w	r3, [r3, #136]	@ 0x88
 8002a88:	f003 030c 	and.w	r3, r3, #12
 8002a8c:	2b0c      	cmp	r3, #12
 8002a8e:	d82d      	bhi.n	8002aec <UART_SetConfig+0x14c>
 8002a90:	a201      	add	r2, pc, #4	@ (adr r2, 8002a98 <UART_SetConfig+0xf8>)
 8002a92:	f852 f023 	ldr.w	pc, [r2, r3, lsl #2]
 8002a96:	bf00      	nop
 8002a98:	08002acd 	.word	0x08002acd
 8002a9c:	08002aed 	.word	0x08002aed
 8002aa0:	08002aed 	.word	0x08002aed
 8002aa4:	08002aed 	.word	0x08002aed
 8002aa8:	08002add 	.word	0x08002add
 8002aac:	08002aed 	.word	0x08002aed
 8002ab0:	08002aed 	.word	0x08002aed
 8002ab4:	08002aed 	.word	0x08002aed
 8002ab8:	08002ad5 	.word	0x08002ad5
 8002abc:	08002aed 	.word	0x08002aed
 8002ac0:	08002aed 	.word	0x08002aed
 8002ac4:	08002aed 	.word	0x08002aed
 8002ac8:	08002ae5 	.word	0x08002ae5
 8002acc:	2300      	movs	r3, #0
 8002ace:	f887 3023 	strb.w	r3, [r7, #35]	@ 0x23
 8002ad2:	e0d8      	b.n	8002c86 <UART_SetConfig+0x2e6>
 8002ad4:	2302      	movs	r3, #2
 8002ad6:	f887 3023 	strb.w	r3, [r7, #35]	@ 0x23
 8002ada:	e0d4      	b.n	8002c86 <UART_SetConfig+0x2e6>
 8002adc:	2304      	movs	r3, #4
 8002ade:	f887 3023 	strb.w	r3, [r7, #35]	@ 0x23
 8002ae2:	e0d0      	b.n	8002c86 <UART_SetConfig+0x2e6>
 8002ae4:	2308      	movs	r3, #8
 8002ae6:	f887 3023 	strb.w	r3, [r7, #35]	@ 0x23
 8002aea:	e0cc      	b.n	8002c86 <UART_SetConfig+0x2e6>
 8002aec:	2310      	movs	r3, #16
 8002aee:	f887 3023 	strb.w	r3, [r7, #35]	@ 0x23
 8002af2:	e0c8      	b.n	8002c86 <UART_SetConfig+0x2e6>
 8002af4:	68fb      	ldr	r3, [r7, #12]
 8002af6:	681b      	ldr	r3, [r3, #0]
 8002af8:	4a5e      	ldr	r2, [pc, #376]	@ (8002c74 <UART_SetConfig+0x2d4>)
 8002afa:	4293      	cmp	r3, r2
 8002afc:	d125      	bne.n	8002b4a <UART_SetConfig+0x1aa>
 8002afe:	4b5b      	ldr	r3, [pc, #364]	@ (8002c6c <UART_SetConfig+0x2cc>)
 8002b00:	f8d3 3088 	ldr.w	r3, [r3, #136]	@ 0x88
 8002b04:	f003 0330 	and.w	r3, r3, #48	@ 0x30
 8002b08:	2b30      	cmp	r3, #48	@ 0x30
 8002b0a:	d016      	beq.n	8002b3a <UART_SetConfig+0x19a>
 8002b0c:	2b30      	cmp	r3, #48	@ 0x30
 8002b0e:	d818      	bhi.n	8002b42 <UART_SetConfig+0x1a2>
 8002b10:	2b20      	cmp	r3, #32
 8002b12:	d00a      	beq.n	8002b2a <UART_SetConfig+0x18a>
 8002b14:	2b20      	cmp	r3, #32
 8002b16:	d814      	bhi.n	8002b42 <UART_SetConfig+0x1a2>
 8002b18:	2b00      	cmp	r3, #0
 8002b1a:	d002      	beq.n	8002b22 <UART_SetConfig+0x182>
 8002b1c:	2b10      	cmp	r3, #16
 8002b1e:	d008      	beq.n	8002b32 <UART_SetConfig+0x192>
 8002b20:	e00f      	b.n	8002b42 <UART_SetConfig+0x1a2>
 8002b22:	2300      	movs	r3, #0
 8002b24:	f887 3023 	strb.w	r3, [r7, #35]	@ 0x23
 8002b28:	e0ad      	b.n	8002c86 <UART_SetConfig+0x2e6>
 8002b2a:	2302      	movs	r3, #2
 8002b2c:	f887 3023 	strb.w	r3, [r7, #35]	@ 0x23
 8002b30:	e0a9      	b.n	8002c86 <UART_SetConfig+0x2e6>
 8002b32:	2304      	movs	r3, #4
 8002b34:	f887 3023 	strb.w	r3, [r7, #35]	@ 0x23
 8002b38:	e0a5      	b.n	8002c86 <UART_SetConfig+0x2e6>
 8002b3a:	2308      	movs	r3, #8
 8002b3c:	f887 3023 	strb.w	r3, [r7, #35]	@ 0x23
 8002b40:	e0a1      	b.n	8002c86 <UART_SetConfig+0x2e6>
 8002b42:	2310      	movs	r3, #16
 8002b44:	f887 3023 	strb.w	r3, [r7, #35]	@ 0x23
 8002b48:	e09d      	b.n	8002c86 <UART_SetConfig+0x2e6>
 8002b4a:	68fb      	ldr	r3, [r7, #12]
 8002b4c:	681b      	ldr	r3, [r3, #0]
 8002b4e:	4a4a      	ldr	r2, [pc, #296]	@ (8002c78 <UART_SetConfig+0x2d8>)
 8002b50:	4293      	cmp	r3, r2
 8002b52:	d125      	bne.n	8002ba0 <UART_SetConfig+0x200>
 8002b54:	4b45      	ldr	r3, [pc, #276]	@ (8002c6c <UART_SetConfig+0x2cc>)
 8002b56:	f8d3 3088 	ldr.w	r3, [r3, #136]	@ 0x88
 8002b5a:	f003 03c0 	and.w	r3, r3, #192	@ 0xc0
 8002b5e:	2bc0      	cmp	r3, #192	@ 0xc0
 8002b60:	d016      	beq.n	8002b90 <UART_SetConfig+0x1f0>
 8002b62:	2bc0      	cmp	r3, #192	@ 0xc0
 8002b64:	d818      	bhi.n	8002b98 <UART_SetConfig+0x1f8>
 8002b66:	2b80      	cmp	r3, #128	@ 0x80
 8002b68:	d00a      	beq.n	8002b80 <UART_SetConfig+0x1e0>
 8002b6a:	2b80      	cmp	r3, #128	@ 0x80
 8002b6c:	d814      	bhi.n	8002b98 <UART_SetConfig+0x1f8>
 8002b6e:	2b00      	cmp	r3, #0
 8002b70:	d002      	beq.n	8002b78 <UART_SetConfig+0x1d8>
 8002b72:	2b40      	cmp	r3, #64	@ 0x40
 8002b74:	d008      	beq.n	8002b88 <UART_SetConfig+0x1e8>
 8002b76:	e00f      	b.n	8002b98 <UART_SetConfig+0x1f8>
 8002b78:	2300      	movs	r3, #0
 8002b7a:	f887 3023 	strb.w	r3, [r7, #35]	@ 0x23
 8002b7e:	e082      	b.n	8002c86 <UART_SetConfig+0x2e6>
 8002b80:	2302      	movs	r3, #2
 8002b82:	f887 3023 	strb.w	r3, [r7, #35]	@ 0x23
 8002b86:	e07e      	b.n	8002c86 <UART_SetConfig+0x2e6>
 8002b88:	2304      	movs	r3, #4
 8002b8a:	f887 3023 	strb.w	r3, [r7, #35]	@ 0x23
 8002b8e:	e07a      	b.n	8002c86 <UART_SetConfig+0x2e6>
 8002b90:	2308      	movs	r3, #8
 8002b92:	f887 3023 	strb.w	r3, [r7, #35]	@ 0x23
 8002b96:	e076      	b.n	8002c86 <UART_SetConfig+0x2e6>
 8002b98:	2310      	movs	r3, #16
 8002b9a:	f887 3023 	strb.w	r3, [r7, #35]	@ 0x23
 8002b9e:	e072      	b.n	8002c86 <UART_SetConfig+0x2e6>
 8002ba0:	68fb      	ldr	r3, [r7, #12]
 8002ba2:	681b      	ldr	r3, [r3, #0]
 8002ba4:	4a35      	ldr	r2, [pc, #212]	@ (8002c7c <UART_SetConfig+0x2dc>)
 8002ba6:	4293      	cmp	r3, r2
 8002ba8:	d12a      	bne.n	8002c00 <UART_SetConfig+0x260>
 8002baa:	4b30      	ldr	r3, [pc, #192]	@ (8002c6c <UART_SetConfig+0x2cc>)
 8002bac:	f8d3 3088 	ldr.w	r3, [r3, #136]	@ 0x88
 8002bb0:	f403 7340 	and.w	r3, r3, #768	@ 0x300
 8002bb4:	f5b3 7f40 	cmp.w	r3, #768	@ 0x300
 8002bb8:	d01a      	beq.n	8002bf0 <UART_SetConfig+0x250>
 8002bba:	f5b3 7f40 	cmp.w	r3, #768	@ 0x300
 8002bbe:	d81b      	bhi.n	8002bf8 <UART_SetConfig+0x258>
 8002bc0:	f5b3 7f00 	cmp.w	r3, #512	@ 0x200
 8002bc4:	d00c      	beq.n	8002be0 <UART_SetConfig+0x240>
 8002bc6:	f5b3 7f00 	cmp.w	r3, #512	@ 0x200
 8002bca:	d815      	bhi.n	8002bf8 <UART_SetConfig+0x258>
 8002bcc:	2b00      	cmp	r3, #0
 8002bce:	d003      	beq.n	8002bd8 <UART_SetConfig+0x238>
 8002bd0:	f5b3 7f80 	cmp.w	r3, #256	@ 0x100
 8002bd4:	d008      	beq.n	8002be8 <UART_SetConfig+0x248>
 8002bd6:	e00f      	b.n	8002bf8 <UART_SetConfig+0x258>
 8002bd8:	2300      	movs	r3, #0
 8002bda:	f887 3023 	strb.w	r3, [r7, #35]	@ 0x23
 8002bde:	e052      	b.n	8002c86 <UART_SetConfig+0x2e6>
 8002be0:	2302      	movs	r3, #2
 8002be2:	f887 3023 	strb.w	r3, [r7, #35]	@ 0x23
 8002be6:	e04e      	b.n	8002c86 <UART_SetConfig+0x2e6>
 8002be8:	2304      	movs	r3, #4
 8002bea:	f887 3023 	strb.w	r3, [r7, #35]	@ 0x23
 8002bee:	e04a      	b.n	8002c86 <UART_SetConfig+0x2e6>
 8002bf0:	2308      	movs	r3, #8
 8002bf2:	f887 3023 	strb.w	r3, [r7, #35]	@ 0x23
 8002bf6:	e046      	b.n	8002c86 <UART_SetConfig+0x2e6>
 8002bf8:	2310      	movs	r3, #16
 8002bfa:	f887 3023 	strb.w	r3, [r7, #35]	@ 0x23
 8002bfe:	e042      	b.n	8002c86 <UART_SetConfig+0x2e6>
 8002c00:	68fb      	ldr	r3, [r7, #12]
 8002c02:	681b      	ldr	r3, [r3, #0]
 8002c04:	4a17      	ldr	r2, [pc, #92]	@ (8002c64 <UART_SetConfig+0x2c4>)
 8002c06:	4293      	cmp	r3, r2
 8002c08:	d13a      	bne.n	8002c80 <UART_SetConfig+0x2e0>
 8002c0a:	4b18      	ldr	r3, [pc, #96]	@ (8002c6c <UART_SetConfig+0x2cc>)
 8002c0c:	f8d3 3088 	ldr.w	r3, [r3, #136]	@ 0x88
 8002c10:	f403 6340 	and.w	r3, r3, #3072	@ 0xc00
 8002c14:	f5b3 6f40 	cmp.w	r3, #3072	@ 0xc00
 8002c18:	d01a      	beq.n	8002c50 <UART_SetConfig+0x2b0>
 8002c1a:	f5b3 6f40 	cmp.w	r3, #3072	@ 0xc00
 8002c1e:	d81b      	bhi.n	8002c58 <UART_SetConfig+0x2b8>
 8002c20:	f5b3 6f00 	cmp.w	r3, #2048	@ 0x800
 8002c24:	d00c      	beq.n	8002c40 <UART_SetConfig+0x2a0>
 8002c26:	f5b3 6f00 	cmp.w	r3, #2048	@ 0x800
 8002c2a:	d815      	bhi.n	8002c58 <UART_SetConfig+0x2b8>
 8002c2c:	2b00      	cmp	r3, #0
 8002c2e:	d003      	beq.n	8002c38 <UART_SetConfig+0x298>
 8002c30:	f5b3 6f80 	cmp.w	r3, #1024	@ 0x400
 8002c34:	d008      	beq.n	8002c48 <UART_SetConfig+0x2a8>
 8002c36:	e00f      	b.n	8002c58 <UART_SetConfig+0x2b8>
 8002c38:	2300      	movs	r3, #0
 8002c3a:	f887 3023 	strb.w	r3, [r7, #35]	@ 0x23
 8002c3e:	e022      	b.n	8002c86 <UART_SetConfig+0x2e6>
 8002c40:	2302      	movs	r3, #2
 8002c42:	f887 3023 	strb.w	r3, [r7, #35]	@ 0x23
 8002c46:	e01e      	b.n	8002c86 <UART_SetConfig+0x2e6>
 8002c48:	2304      	movs	r3, #4
 8002c4a:	f887 3023 	strb.w	r3, [r7, #35]	@ 0x23
 8002c4e:	e01a      	b.n	8002c86 <UART_SetConfig+0x2e6>
 8002c50:	2308      	movs	r3, #8
 8002c52:	f887 3023 	strb.w	r3, [r7, #35]	@ 0x23
 8002c56:	e016      	b.n	8002c86 <UART_SetConfig+0x2e6>
 8002c58:	2310      	movs	r3, #16
 8002c5a:	f887 3023 	strb.w	r3, [r7, #35]	@ 0x23
 8002c5e:	e012      	b.n	8002c86 <UART_SetConfig+0x2e6>
 8002c60:	efff69f3 	.word	0xefff69f3
 8002c64:	40008000 	.word	0x40008000
 8002c68:	40013800 	.word	0x40013800
 8002c6c:	40021000 	.word	0x40021000
 8002c70:	40004400 	.word	0x40004400
 8002c74:	40004800 	.word	0x40004800
 8002c78:	40004c00 	.word	0x40004c00
 8002c7c:	40005000 	.word	0x40005000
 8002c80:	2310      	movs	r3, #16
 8002c82:	f887 3023 	strb.w	r3, [r7, #35]	@ 0x23

  /* Check LPUART instance */
  if (UART_INSTANCE_LOWPOWER(huart))
 8002c86:	68fb      	ldr	r3, [r7, #12]
 8002c88:	681b      	ldr	r3, [r3, #0]
 8002c8a:	4a9f      	ldr	r2, [pc, #636]	@ (8002f08 <UART_SetConfig+0x568>)
 8002c8c:	4293      	cmp	r3, r2
 8002c8e:	d17a      	bne.n	8002d86 <UART_SetConfig+0x3e6>
  {
    /* Retrieve frequency clock */
    switch (clocksource)
 8002c90:	f897 3023 	ldrb.w	r3, [r7, #35]	@ 0x23
 8002c94:	2b08      	cmp	r3, #8
 8002c96:	d824      	bhi.n	8002ce2 <UART_SetConfig+0x342>
 8002c98:	a201      	add	r2, pc, #4	@ (adr r2, 8002ca0 <UART_SetConfig+0x300>)
 8002c9a:	f852 f023 	ldr.w	pc, [r2, r3, lsl #2]
 8002c9e:	bf00      	nop
 8002ca0:	08002cc5 	.word	0x08002cc5
 8002ca4:	08002ce3 	.word	0x08002ce3
 8002ca8:	08002ccd 	.word	0x08002ccd
 8002cac:	08002ce3 	.word	0x08002ce3
 8002cb0:	08002cd3 	.word	0x08002cd3
 8002cb4:	08002ce3 	.word	0x08002ce3
 8002cb8:	08002ce3 	.word	0x08002ce3
 8002cbc:	08002ce3 	.word	0x08002ce3
 8002cc0:	08002cdb 	.word	0x08002cdb
    {
      case UART_CLOCKSOURCE_PCLK1:
        pclk = HAL_RCC_GetPCLK1Freq();
 8002cc4:	f7ff f84c 	bl	8001d60 <HAL_RCC_GetPCLK1Freq>
 8002cc8:	61f8      	str	r0, [r7, #28]
        break;
 8002cca:	e010      	b.n	8002cee <UART_SetConfig+0x34e>
      case UART_CLOCKSOURCE_HSI:
        pclk = (uint32_t) HSI_VALUE;
 8002ccc:	4b8f      	ldr	r3, [pc, #572]	@ (8002f0c <UART_SetConfig+0x56c>)
 8002cce:	61fb      	str	r3, [r7, #28]
        break;
 8002cd0:	e00d      	b.n	8002cee <UART_SetConfig+0x34e>
      case UART_CLOCKSOURCE_SYSCLK:
        pclk = HAL_RCC_GetSysClockFreq();
 8002cd2:	f7fe ffad 	bl	8001c30 <HAL_RCC_GetSysClockFreq>
 8002cd6:	61f8      	str	r0, [r7, #28]
        break;
 8002cd8:	e009      	b.n	8002cee <UART_SetConfig+0x34e>
      case UART_CLOCKSOURCE_LSE:
        pclk = (uint32_t) LSE_VALUE;
 8002cda:	f44f 4300 	mov.w	r3, #32768	@ 0x8000
 8002cde:	61fb      	str	r3, [r7, #28]
        break;
 8002ce0:	e005      	b.n	8002cee <UART_SetConfig+0x34e>
      default:
        pclk = 0U;
 8002ce2:	2300      	movs	r3, #0
 8002ce4:	61fb      	str	r3, [r7, #28]
        ret = HAL_ERROR;
 8002ce6:	2301      	movs	r3, #1
 8002ce8:	f887 3022 	strb.w	r3, [r7, #34]	@ 0x22
        break;
 8002cec:	bf00      	nop
    }

    /* If proper clock source reported */
    if (pclk != 0U)
 8002cee:	69fb      	ldr	r3, [r7, #28]
 8002cf0:	2b00      	cmp	r3, #0
 8002cf2:	f000 80fb 	beq.w	8002eec <UART_SetConfig+0x54c>
      } /* if ( (lpuart_ker_ck_pres < (3 * huart->Init.BaudRate) ) ||
                (lpuart_ker_ck_pres > (4096 * huart->Init.BaudRate) )) */
#else
      /* No Prescaler applicable */
      /* Ensure that Frequency clock is in the range [3 * baudrate, 4096 * baudrate] */
      if ((pclk < (3U * huart->Init.BaudRate)) ||
 8002cf6:	68fb      	ldr	r3, [r7, #12]
 8002cf8:	685a      	ldr	r2, [r3, #4]
 8002cfa:	4613      	mov	r3, r2
 8002cfc:	005b      	lsls	r3, r3, #1
 8002cfe:	4413      	add	r3, r2
 8002d00:	69fa      	ldr	r2, [r7, #28]
 8002d02:	429a      	cmp	r2, r3
 8002d04:	d305      	bcc.n	8002d12 <UART_SetConfig+0x372>
          (pclk > (4096U * huart->Init.BaudRate)))
 8002d06:	68fb      	ldr	r3, [r7, #12]
 8002d08:	685b      	ldr	r3, [r3, #4]
 8002d0a:	031b      	lsls	r3, r3, #12
      if ((pclk < (3U * huart->Init.BaudRate)) ||
 8002d0c:	69fa      	ldr	r2, [r7, #28]
 8002d0e:	429a      	cmp	r2, r3
 8002d10:	d903      	bls.n	8002d1a <UART_SetConfig+0x37a>
      {
        ret = HAL_ERROR;
 8002d12:	2301      	movs	r3, #1
 8002d14:	f887 3022 	strb.w	r3, [r7, #34]	@ 0x22
 8002d18:	e0e8      	b.n	8002eec <UART_SetConfig+0x54c>
      }
      else
      {
        usartdiv = (uint32_t)(UART_DIV_LPUART(pclk, huart->Init.BaudRate));
 8002d1a:	69fb      	ldr	r3, [r7, #28]
 8002d1c:	2200      	movs	r2, #0
 8002d1e:	461c      	mov	r4, r3
 8002d20:	4615      	mov	r5, r2
 8002d22:	f04f 0200 	mov.w	r2, #0
 8002d26:	f04f 0300 	mov.w	r3, #0
 8002d2a:	022b      	lsls	r3, r5, #8
 8002d2c:	ea43 6314 	orr.w	r3, r3, r4, lsr #24
 8002d30:	0222      	lsls	r2, r4, #8
 8002d32:	68f9      	ldr	r1, [r7, #12]
 8002d34:	6849      	ldr	r1, [r1, #4]
 8002d36:	0849      	lsrs	r1, r1, #1
 8002d38:	2000      	movs	r0, #0
 8002d3a:	4688      	mov	r8, r1
 8002d3c:	4681      	mov	r9, r0
 8002d3e:	eb12 0a08 	adds.w	sl, r2, r8
 8002d42:	eb43 0b09 	adc.w	fp, r3, r9
 8002d46:	68fb      	ldr	r3, [r7, #12]
 8002d48:	685b      	ldr	r3, [r3, #4]
 8002d4a:	2200      	movs	r2, #0
 8002d4c:	603b      	str	r3, [r7, #0]
 8002d4e:	607a      	str	r2, [r7, #4]
 8002d50:	e9d7 2300 	ldrd	r2, r3, [r7]
 8002d54:	4650      	mov	r0, sl
 8002d56:	4659      	mov	r1, fp
 8002d58:	f7fd fa92 	bl	8000280 <__aeabi_uldivmod>
 8002d5c:	4602      	mov	r2, r0
 8002d5e:	460b      	mov	r3, r1
 8002d60:	4613      	mov	r3, r2
 8002d62:	61bb      	str	r3, [r7, #24]
        if ((usartdiv >= LPUART_BRR_MIN) && (usartdiv <= LPUART_BRR_MAX))
 8002d64:	69bb      	ldr	r3, [r7, #24]
 8002d66:	f5b3 7f40 	cmp.w	r3, #768	@ 0x300
 8002d6a:	d308      	bcc.n	8002d7e <UART_SetConfig+0x3de>
 8002d6c:	69bb      	ldr	r3, [r7, #24]
 8002d6e:	f5b3 1f80 	cmp.w	r3, #1048576	@ 0x100000
 8002d72:	d204      	bcs.n	8002d7e <UART_SetConfig+0x3de>
        {
          huart->Instance->BRR = usartdiv;
 8002d74:	68fb      	ldr	r3, [r7, #12]
 8002d76:	681b      	ldr	r3, [r3, #0]
 8002d78:	69ba      	ldr	r2, [r7, #24]
 8002d7a:	60da      	str	r2, [r3, #12]
 8002d7c:	e0b6      	b.n	8002eec <UART_SetConfig+0x54c>
        }
        else
        {
          ret = HAL_ERROR;
 8002d7e:	2301      	movs	r3, #1
 8002d80:	f887 3022 	strb.w	r3, [r7, #34]	@ 0x22
 8002d84:	e0b2      	b.n	8002eec <UART_SetConfig+0x54c>
      } /* if ( (pclk < (3 * huart->Init.BaudRate) ) || (pclk > (4096 * huart->Init.BaudRate) )) */
#endif /* USART_PRESC_PRESCALER */
    } /* if (pclk != 0) */
  }
  /* Check UART Over Sampling to set Baud Rate Register */
  else if (huart->Init.OverSampling == UART_OVERSAMPLING_8)
 8002d86:	68fb      	ldr	r3, [r7, #12]
 8002d88:	69db      	ldr	r3, [r3, #28]
 8002d8a:	f5b3 4f00 	cmp.w	r3, #32768	@ 0x8000
 8002d8e:	d15e      	bne.n	8002e4e <UART_SetConfig+0x4ae>
  {
    switch (clocksource)
 8002d90:	f897 3023 	ldrb.w	r3, [r7, #35]	@ 0x23
 8002d94:	2b08      	cmp	r3, #8
 8002d96:	d828      	bhi.n	8002dea <UART_SetConfig+0x44a>
 8002d98:	a201      	add	r2, pc, #4	@ (adr r2, 8002da0 <UART_SetConfig+0x400>)
 8002d9a:	f852 f023 	ldr.w	pc, [r2, r3, lsl #2]
 8002d9e:	bf00      	nop
 8002da0:	08002dc5 	.word	0x08002dc5
 8002da4:	08002dcd 	.word	0x08002dcd
 8002da8:	08002dd5 	.word	0x08002dd5
 8002dac:	08002deb 	.word	0x08002deb
 8002db0:	08002ddb 	.word	0x08002ddb
 8002db4:	08002deb 	.word	0x08002deb
 8002db8:	08002deb 	.word	0x08002deb
 8002dbc:	08002deb 	.word	0x08002deb
 8002dc0:	08002de3 	.word	0x08002de3
    {
      case UART_CLOCKSOURCE_PCLK1:
        pclk = HAL_RCC_GetPCLK1Freq();
 8002dc4:	f7fe ffcc 	bl	8001d60 <HAL_RCC_GetPCLK1Freq>
 8002dc8:	61f8      	str	r0, [r7, #28]
        break;
 8002dca:	e014      	b.n	8002df6 <UART_SetConfig+0x456>
      case UART_CLOCKSOURCE_PCLK2:
        pclk = HAL_RCC_GetPCLK2Freq();
 8002dcc:	f7fe ffde 	bl	8001d8c <HAL_RCC_GetPCLK2Freq>
 8002dd0:	61f8      	str	r0, [r7, #28]
        break;
 8002dd2:	e010      	b.n	8002df6 <UART_SetConfig+0x456>
      case UART_CLOCKSOURCE_HSI:
        pclk = (uint32_t) HSI_VALUE;
 8002dd4:	4b4d      	ldr	r3, [pc, #308]	@ (8002f0c <UART_SetConfig+0x56c>)
 8002dd6:	61fb      	str	r3, [r7, #28]
        break;
 8002dd8:	e00d      	b.n	8002df6 <UART_SetConfig+0x456>
      case UART_CLOCKSOURCE_SYSCLK:
        pclk = HAL_RCC_GetSysClockFreq();
 8002dda:	f7fe ff29 	bl	8001c30 <HAL_RCC_GetSysClockFreq>
 8002dde:	61f8      	str	r0, [r7, #28]
        break;
 8002de0:	e009      	b.n	8002df6 <UART_SetConfig+0x456>
      case UART_CLOCKSOURCE_LSE:
        pclk = (uint32_t) LSE_VALUE;
 8002de2:	f44f 4300 	mov.w	r3, #32768	@ 0x8000
 8002de6:	61fb      	str	r3, [r7, #28]
        break;
 8002de8:	e005      	b.n	8002df6 <UART_SetConfig+0x456>
      default:
        pclk = 0U;
 8002dea:	2300      	movs	r3, #0
 8002dec:	61fb      	str	r3, [r7, #28]
        ret = HAL_ERROR;
 8002dee:	2301      	movs	r3, #1
 8002df0:	f887 3022 	strb.w	r3, [r7, #34]	@ 0x22
        break;
 8002df4:	bf00      	nop
    }

    /* USARTDIV must be greater than or equal to 0d16 */
    if (pclk != 0U)
 8002df6:	69fb      	ldr	r3, [r7, #28]
 8002df8:	2b00      	cmp	r3, #0
 8002dfa:	d077      	beq.n	8002eec <UART_SetConfig+0x54c>
    {
#if defined(USART_PRESC_PRESCALER)
      usartdiv = (uint32_t)(UART_DIV_SAMPLING8(pclk, huart->Init.BaudRate, huart->Init.ClockPrescaler));
#else
      usartdiv = (uint32_t)(UART_DIV_SAMPLING8(pclk, huart->Init.BaudRate));
 8002dfc:	69fb      	ldr	r3, [r7, #28]
 8002dfe:	005a      	lsls	r2, r3, #1
 8002e00:	68fb      	ldr	r3, [r7, #12]
 8002e02:	685b      	ldr	r3, [r3, #4]
 8002e04:	085b      	lsrs	r3, r3, #1
 8002e06:	441a      	add	r2, r3
 8002e08:	68fb      	ldr	r3, [r7, #12]
 8002e0a:	685b      	ldr	r3, [r3, #4]
 8002e0c:	fbb2 f3f3 	udiv	r3, r2, r3
 8002e10:	61bb      	str	r3, [r7, #24]
#endif /* USART_PRESC_PRESCALER */
      if ((usartdiv >= UART_BRR_MIN) && (usartdiv <= UART_BRR_MAX))
 8002e12:	69bb      	ldr	r3, [r7, #24]
 8002e14:	2b0f      	cmp	r3, #15
 8002e16:	d916      	bls.n	8002e46 <UART_SetConfig+0x4a6>
 8002e18:	69bb      	ldr	r3, [r7, #24]
 8002e1a:	f5b3 3f80 	cmp.w	r3, #65536	@ 0x10000
 8002e1e:	d212      	bcs.n	8002e46 <UART_SetConfig+0x4a6>
      {
        brrtemp = (uint16_t)(usartdiv & 0xFFF0U);
 8002e20:	69bb      	ldr	r3, [r7, #24]
 8002e22:	b29b      	uxth	r3, r3
 8002e24:	f023 030f 	bic.w	r3, r3, #15
 8002e28:	82fb      	strh	r3, [r7, #22]
        brrtemp |= (uint16_t)((usartdiv & (uint16_t)0x000FU) >> 1U);
 8002e2a:	69bb      	ldr	r3, [r7, #24]
 8002e2c:	085b      	lsrs	r3, r3, #1
 8002e2e:	b29b      	uxth	r3, r3
 8002e30:	f003 0307 	and.w	r3, r3, #7
 8002e34:	b29a      	uxth	r2, r3
 8002e36:	8afb      	ldrh	r3, [r7, #22]
 8002e38:	4313      	orrs	r3, r2
 8002e3a:	82fb      	strh	r3, [r7, #22]
        huart->Instance->BRR = brrtemp;
 8002e3c:	68fb      	ldr	r3, [r7, #12]
 8002e3e:	681b      	ldr	r3, [r3, #0]
 8002e40:	8afa      	ldrh	r2, [r7, #22]
 8002e42:	60da      	str	r2, [r3, #12]
 8002e44:	e052      	b.n	8002eec <UART_SetConfig+0x54c>
      }
      else
      {
        ret = HAL_ERROR;
 8002e46:	2301      	movs	r3, #1
 8002e48:	f887 3022 	strb.w	r3, [r7, #34]	@ 0x22
 8002e4c:	e04e      	b.n	8002eec <UART_SetConfig+0x54c>
      }
    }
  }
  else
  {
    switch (clocksource)
 8002e4e:	f897 3023 	ldrb.w	r3, [r7, #35]	@ 0x23
 8002e52:	2b08      	cmp	r3, #8
 8002e54:	d827      	bhi.n	8002ea6 <UART_SetConfig+0x506>
 8002e56:	a201      	add	r2, pc, #4	@ (adr r2, 8002e5c <UART_SetConfig+0x4bc>)
 8002e58:	f852 f023 	ldr.w	pc, [r2, r3, lsl #2]
 8002e5c:	08002e81 	.word	0x08002e81
 8002e60:	08002e89 	.word	0x08002e89
 8002e64:	08002e91 	.word	0x08002e91
 8002e68:	08002ea7 	.word	0x08002ea7
 8002e6c:	08002e97 	.word	0x08002e97
 8002e70:	08002ea7 	.word	0x08002ea7
 8002e74:	08002ea7 	.word	0x08002ea7
 8002e78:	08002ea7 	.word	0x08002ea7
 8002e7c:	08002e9f 	.word	0x08002e9f
    {
      case UART_CLOCKSOURCE_PCLK1:
        pclk = HAL_RCC_GetPCLK1Freq();
 8002e80:	f7fe ff6e 	bl	8001d60 <HAL_RCC_GetPCLK1Freq>
 8002e84:	61f8      	str	r0, [r7, #28]
        break;
 8002e86:	e014      	b.n	8002eb2 <UART_SetConfig+0x512>
      case UART_CLOCKSOURCE_PCLK2:
        pclk = HAL_RCC_GetPCLK2Freq();
 8002e88:	f7fe ff80 	bl	8001d8c <HAL_RCC_GetPCLK2Freq>
 8002e8c:	61f8      	str	r0, [r7, #28]
        break;
 8002e8e:	e010      	b.n	8002eb2 <UART_SetConfig+0x512>
      case UART_CLOCKSOURCE_HSI:
        pclk = (uint32_t) HSI_VALUE;
 8002e90:	4b1e      	ldr	r3, [pc, #120]	@ (8002f0c <UART_SetConfig+0x56c>)
 8002e92:	61fb      	str	r3, [r7, #28]
        break;
 8002e94:	e00d      	b.n	8002eb2 <UART_SetConfig+0x512>
      case UART_CLOCKSOURCE_SYSCLK:
        pclk = HAL_RCC_GetSysClockFreq();
 8002e96:	f7fe fecb 	bl	8001c30 <HAL_RCC_GetSysClockFreq>
 8002e9a:	61f8      	str	r0, [r7, #28]
        break;
 8002e9c:	e009      	b.n	8002eb2 <UART_SetConfig+0x512>
      case UART_CLOCKSOURCE_LSE:
        pclk = (uint32_t) LSE_VALUE;
 8002e9e:	f44f 4300 	mov.w	r3, #32768	@ 0x8000
 8002ea2:	61fb      	str	r3, [r7, #28]
        break;
 8002ea4:	e005      	b.n	8002eb2 <UART_SetConfig+0x512>
      default:
        pclk = 0U;
 8002ea6:	2300      	movs	r3, #0
 8002ea8:	61fb      	str	r3, [r7, #28]
        ret = HAL_ERROR;
 8002eaa:	2301      	movs	r3, #1
 8002eac:	f887 3022 	strb.w	r3, [r7, #34]	@ 0x22
        break;
 8002eb0:	bf00      	nop
    }

    if (pclk != 0U)
 8002eb2:	69fb      	ldr	r3, [r7, #28]
 8002eb4:	2b00      	cmp	r3, #0
 8002eb6:	d019      	beq.n	8002eec <UART_SetConfig+0x54c>
    {
      /* USARTDIV must be greater than or equal to 0d16 */
#if defined(USART_PRESC_PRESCALER)
      usartdiv = (uint32_t)(UART_DIV_SAMPLING16(pclk, huart->Init.BaudRate, huart->Init.ClockPrescaler));
#else
      usartdiv = (uint32_t)(UART_DIV_SAMPLING16(pclk, huart->Init.BaudRate));
 8002eb8:	68fb      	ldr	r3, [r7, #12]
 8002eba:	685b      	ldr	r3, [r3, #4]
 8002ebc:	085a      	lsrs	r2, r3, #1
 8002ebe:	69fb      	ldr	r3, [r7, #28]
 8002ec0:	441a      	add	r2, r3
 8002ec2:	68fb      	ldr	r3, [r7, #12]
 8002ec4:	685b      	ldr	r3, [r3, #4]
 8002ec6:	fbb2 f3f3 	udiv	r3, r2, r3
 8002eca:	61bb      	str	r3, [r7, #24]
#endif /* USART_PRESC_PRESCALER */
      if ((usartdiv >= UART_BRR_MIN) && (usartdiv <= UART_BRR_MAX))
 8002ecc:	69bb      	ldr	r3, [r7, #24]
 8002ece:	2b0f      	cmp	r3, #15
 8002ed0:	d909      	bls.n	8002ee6 <UART_SetConfig+0x546>
 8002ed2:	69bb      	ldr	r3, [r7, #24]
 8002ed4:	f5b3 3f80 	cmp.w	r3, #65536	@ 0x10000
 8002ed8:	d205      	bcs.n	8002ee6 <UART_SetConfig+0x546>
      {
        huart->Instance->BRR = (uint16_t)usartdiv;
 8002eda:	69bb      	ldr	r3, [r7, #24]
 8002edc:	b29a      	uxth	r2, r3
 8002ede:	68fb      	ldr	r3, [r7, #12]
 8002ee0:	681b      	ldr	r3, [r3, #0]
 8002ee2:	60da      	str	r2, [r3, #12]
 8002ee4:	e002      	b.n	8002eec <UART_SetConfig+0x54c>
      }
      else
      {
        ret = HAL_ERROR;
 8002ee6:	2301      	movs	r3, #1
 8002ee8:	f887 3022 	strb.w	r3, [r7, #34]	@ 0x22
  huart->NbTxDataToProcess = 1;
  huart->NbRxDataToProcess = 1;
#endif /* USART_CR1_FIFOEN */

  /* Clear ISR function pointers */
  huart->RxISR = NULL;
 8002eec:	68fb      	ldr	r3, [r7, #12]
 8002eee:	2200      	movs	r2, #0
 8002ef0:	669a      	str	r2, [r3, #104]	@ 0x68
  huart->TxISR = NULL;
 8002ef2:	68fb      	ldr	r3, [r7, #12]
 8002ef4:	2200      	movs	r2, #0
 8002ef6:	66da      	str	r2, [r3, #108]	@ 0x6c

  return ret;
 8002ef8:	f897 3022 	ldrb.w	r3, [r7, #34]	@ 0x22
}
 8002efc:	4618      	mov	r0, r3
 8002efe:	3728      	adds	r7, #40	@ 0x28
 8002f00:	46bd      	mov	sp, r7
 8002f02:	e8bd 8fb0 	ldmia.w	sp!, {r4, r5, r7, r8, r9, sl, fp, pc}
 8002f06:	bf00      	nop
 8002f08:	40008000 	.word	0x40008000
 8002f0c:	00f42400 	.word	0x00f42400

08002f10 <UART_AdvFeatureConfig>:
  * @brief Configure the UART peripheral advanced features.
  * @param huart UART handle.
  * @retval None
  */
void UART_AdvFeatureConfig(UART_HandleTypeDef *huart)
{
 8002f10:	b480      	push	{r7}
 8002f12:	b083      	sub	sp, #12
 8002f14:	af00      	add	r7, sp, #0
 8002f16:	6078      	str	r0, [r7, #4]
  /* Check whether the set of advanced features to configure is properly set */
  assert_param(IS_UART_ADVFEATURE_INIT(huart->AdvancedInit.AdvFeatureInit));

  /* if required, configure RX/TX pins swap */
  if (HAL_IS_BIT_SET(huart->AdvancedInit.AdvFeatureInit, UART_ADVFEATURE_SWAP_INIT))
 8002f18:	687b      	ldr	r3, [r7, #4]
 8002f1a:	6a5b      	ldr	r3, [r3, #36]	@ 0x24
 8002f1c:	f003 0308 	and.w	r3, r3, #8
 8002f20:	2b00      	cmp	r3, #0
 8002f22:	d00a      	beq.n	8002f3a <UART_AdvFeatureConfig+0x2a>
  {
    assert_param(IS_UART_ADVFEATURE_SWAP(huart->AdvancedInit.Swap));
    MODIFY_REG(huart->Instance->CR2, USART_CR2_SWAP, huart->AdvancedInit.Swap);
 8002f24:	687b      	ldr	r3, [r7, #4]
 8002f26:	681b      	ldr	r3, [r3, #0]
 8002f28:	685b      	ldr	r3, [r3, #4]
 8002f2a:	f423 4100 	bic.w	r1, r3, #32768	@ 0x8000
 8002f2e:	687b      	ldr	r3, [r7, #4]
 8002f30:	6b5a      	ldr	r2, [r3, #52]	@ 0x34
 8002f32:	687b      	ldr	r3, [r7, #4]
 8002f34:	681b      	ldr	r3, [r3, #0]
 8002f36:	430a      	orrs	r2, r1
 8002f38:	605a      	str	r2, [r3, #4]
  }

  /* if required, configure TX pin active level inversion */
  if (HAL_IS_BIT_SET(huart->AdvancedInit.AdvFeatureInit, UART_ADVFEATURE_TXINVERT_INIT))
 8002f3a:	687b      	ldr	r3, [r7, #4]
 8002f3c:	6a5b      	ldr	r3, [r3, #36]	@ 0x24
 8002f3e:	f003 0301 	and.w	r3, r3, #1
 8002f42:	2b00      	cmp	r3, #0
 8002f44:	d00a      	beq.n	8002f5c <UART_AdvFeatureConfig+0x4c>
  {
    assert_param(IS_UART_ADVFEATURE_TXINV(huart->AdvancedInit.TxPinLevelInvert));
    MODIFY_REG(huart->Instance->CR2, USART_CR2_TXINV, huart->AdvancedInit.TxPinLevelInvert);
 8002f46:	687b      	ldr	r3, [r7, #4]
 8002f48:	681b      	ldr	r3, [r3, #0]
 8002f4a:	685b      	ldr	r3, [r3, #4]
 8002f4c:	f423 3100 	bic.w	r1, r3, #131072	@ 0x20000
 8002f50:	687b      	ldr	r3, [r7, #4]
 8002f52:	6a9a      	ldr	r2, [r3, #40]	@ 0x28
 8002f54:	687b      	ldr	r3, [r7, #4]
 8002f56:	681b      	ldr	r3, [r3, #0]
 8002f58:	430a      	orrs	r2, r1
 8002f5a:	605a      	str	r2, [r3, #4]
  }

  /* if required, configure RX pin active level inversion */
  if (HAL_IS_BIT_SET(huart->AdvancedInit.AdvFeatureInit, UART_ADVFEATURE_RXINVERT_INIT))
 8002f5c:	687b      	ldr	r3, [r7, #4]
 8002f5e:	6a5b      	ldr	r3, [r3, #36]	@ 0x24
 8002f60:	f003 0302 	and.w	r3, r3, #2
 8002f64:	2b00      	cmp	r3, #0
 8002f66:	d00a      	beq.n	8002f7e <UART_AdvFeatureConfig+0x6e>
  {
    assert_param(IS_UART_ADVFEATURE_RXINV(huart->AdvancedInit.RxPinLevelInvert));
    MODIFY_REG(huart->Instance->CR2, USART_CR2_RXINV, huart->AdvancedInit.RxPinLevelInvert);
 8002f68:	687b      	ldr	r3, [r7, #4]
 8002f6a:	681b      	ldr	r3, [r3, #0]
 8002f6c:	685b      	ldr	r3, [r3, #4]
 8002f6e:	f423 3180 	bic.w	r1, r3, #65536	@ 0x10000
 8002f72:	687b      	ldr	r3, [r7, #4]
 8002f74:	6ada      	ldr	r2, [r3, #44]	@ 0x2c
 8002f76:	687b      	ldr	r3, [r7, #4]
 8002f78:	681b      	ldr	r3, [r3, #0]
 8002f7a:	430a      	orrs	r2, r1
 8002f7c:	605a      	str	r2, [r3, #4]
  }

  /* if required, configure data inversion */
  if (HAL_IS_BIT_SET(huart->AdvancedInit.AdvFeatureInit, UART_ADVFEATURE_DATAINVERT_INIT))
 8002f7e:	687b      	ldr	r3, [r7, #4]
 8002f80:	6a5b      	ldr	r3, [r3, #36]	@ 0x24
 8002f82:	f003 0304 	and.w	r3, r3, #4
 8002f86:	2b00      	cmp	r3, #0
 8002f88:	d00a      	beq.n	8002fa0 <UART_AdvFeatureConfig+0x90>
  {
    assert_param(IS_UART_ADVFEATURE_DATAINV(huart->AdvancedInit.DataInvert));
    MODIFY_REG(huart->Instance->CR2, USART_CR2_DATAINV, huart->AdvancedInit.DataInvert);
 8002f8a:	687b      	ldr	r3, [r7, #4]
 8002f8c:	681b      	ldr	r3, [r3, #0]
 8002f8e:	685b      	ldr	r3, [r3, #4]
 8002f90:	f423 2180 	bic.w	r1, r3, #262144	@ 0x40000
 8002f94:	687b      	ldr	r3, [r7, #4]
 8002f96:	6b1a      	ldr	r2, [r3, #48]	@ 0x30
 8002f98:	687b      	ldr	r3, [r7, #4]
 8002f9a:	681b      	ldr	r3, [r3, #0]
 8002f9c:	430a      	orrs	r2, r1
 8002f9e:	605a      	str	r2, [r3, #4]
  }

  /* if required, configure RX overrun detection disabling */
  if (HAL_IS_BIT_SET(huart->AdvancedInit.AdvFeatureInit, UART_ADVFEATURE_RXOVERRUNDISABLE_INIT))
 8002fa0:	687b      	ldr	r3, [r7, #4]
 8002fa2:	6a5b      	ldr	r3, [r3, #36]	@ 0x24
 8002fa4:	f003 0310 	and.w	r3, r3, #16
 8002fa8:	2b00      	cmp	r3, #0
 8002faa:	d00a      	beq.n	8002fc2 <UART_AdvFeatureConfig+0xb2>
  {
    assert_param(IS_UART_OVERRUN(huart->AdvancedInit.OverrunDisable));
    MODIFY_REG(huart->Instance->CR3, USART_CR3_OVRDIS, huart->AdvancedInit.OverrunDisable);
 8002fac:	687b      	ldr	r3, [r7, #4]
 8002fae:	681b      	ldr	r3, [r3, #0]
 8002fb0:	689b      	ldr	r3, [r3, #8]
 8002fb2:	f423 5180 	bic.w	r1, r3, #4096	@ 0x1000
 8002fb6:	687b      	ldr	r3, [r7, #4]
 8002fb8:	6b9a      	ldr	r2, [r3, #56]	@ 0x38
 8002fba:	687b      	ldr	r3, [r7, #4]
 8002fbc:	681b      	ldr	r3, [r3, #0]
 8002fbe:	430a      	orrs	r2, r1
 8002fc0:	609a      	str	r2, [r3, #8]
  }

  /* if required, configure DMA disabling on reception error */
  if (HAL_IS_BIT_SET(huart->AdvancedInit.AdvFeatureInit, UART_ADVFEATURE_DMADISABLEONERROR_INIT))
 8002fc2:	687b      	ldr	r3, [r7, #4]
 8002fc4:	6a5b      	ldr	r3, [r3, #36]	@ 0x24
 8002fc6:	f003 0320 	and.w	r3, r3, #32
 8002fca:	2b00      	cmp	r3, #0
 8002fcc:	d00a      	beq.n	8002fe4 <UART_AdvFeatureConfig+0xd4>
  {
    assert_param(IS_UART_ADVFEATURE_DMAONRXERROR(huart->AdvancedInit.DMADisableonRxError));
    MODIFY_REG(huart->Instance->CR3, USART_CR3_DDRE, huart->AdvancedInit.DMADisableonRxError);
 8002fce:	687b      	ldr	r3, [r7, #4]
 8002fd0:	681b      	ldr	r3, [r3, #0]
 8002fd2:	689b      	ldr	r3, [r3, #8]
 8002fd4:	f423 5100 	bic.w	r1, r3, #8192	@ 0x2000
 8002fd8:	687b      	ldr	r3, [r7, #4]
 8002fda:	6bda      	ldr	r2, [r3, #60]	@ 0x3c
 8002fdc:	687b      	ldr	r3, [r7, #4]
 8002fde:	681b      	ldr	r3, [r3, #0]
 8002fe0:	430a      	orrs	r2, r1
 8002fe2:	609a      	str	r2, [r3, #8]
  }

  /* if required, configure auto Baud rate detection scheme */
  if (HAL_IS_BIT_SET(huart->AdvancedInit.AdvFeatureInit, UART_ADVFEATURE_AUTOBAUDRATE_INIT))
 8002fe4:	687b      	ldr	r3, [r7, #4]
 8002fe6:	6a5b      	ldr	r3, [r3, #36]	@ 0x24
 8002fe8:	f003 0340 	and.w	r3, r3, #64	@ 0x40
 8002fec:	2b00      	cmp	r3, #0
 8002fee:	d01a      	beq.n	8003026 <UART_AdvFeatureConfig+0x116>
  {
    assert_param(IS_USART_AUTOBAUDRATE_DETECTION_INSTANCE(huart->Instance));
    assert_param(IS_UART_ADVFEATURE_AUTOBAUDRATE(huart->AdvancedInit.AutoBaudRateEnable));
    MODIFY_REG(huart->Instance->CR2, USART_CR2_ABREN, huart->AdvancedInit.AutoBaudRateEnable);
 8002ff0:	687b      	ldr	r3, [r7, #4]
 8002ff2:	681b      	ldr	r3, [r3, #0]
 8002ff4:	685b      	ldr	r3, [r3, #4]
 8002ff6:	f423 1180 	bic.w	r1, r3, #1048576	@ 0x100000
 8002ffa:	687b      	ldr	r3, [r7, #4]
 8002ffc:	6c1a      	ldr	r2, [r3, #64]	@ 0x40
 8002ffe:	687b      	ldr	r3, [r7, #4]
 8003000:	681b      	ldr	r3, [r3, #0]
 8003002:	430a      	orrs	r2, r1
 8003004:	605a      	str	r2, [r3, #4]
    /* set auto Baudrate detection parameters if detection is enabled */
    if (huart->AdvancedInit.AutoBaudRateEnable == UART_ADVFEATURE_AUTOBAUDRATE_ENABLE)
 8003006:	687b      	ldr	r3, [r7, #4]
 8003008:	6c1b      	ldr	r3, [r3, #64]	@ 0x40
 800300a:	f5b3 1f80 	cmp.w	r3, #1048576	@ 0x100000
 800300e:	d10a      	bne.n	8003026 <UART_AdvFeatureConfig+0x116>
    {
      assert_param(IS_UART_ADVFEATURE_AUTOBAUDRATEMODE(huart->AdvancedInit.AutoBaudRateMode));
      MODIFY_REG(huart->Instance->CR2, USART_CR2_ABRMODE, huart->AdvancedInit.AutoBaudRateMode);
 8003010:	687b      	ldr	r3, [r7, #4]
 8003012:	681b      	ldr	r3, [r3, #0]
 8003014:	685b      	ldr	r3, [r3, #4]
 8003016:	f423 01c0 	bic.w	r1, r3, #6291456	@ 0x600000
 800301a:	687b      	ldr	r3, [r7, #4]
 800301c:	6c5a      	ldr	r2, [r3, #68]	@ 0x44
 800301e:	687b      	ldr	r3, [r7, #4]
 8003020:	681b      	ldr	r3, [r3, #0]
 8003022:	430a      	orrs	r2, r1
 8003024:	605a      	str	r2, [r3, #4]
    }
  }

  /* if required, configure MSB first on communication line */
  if (HAL_IS_BIT_SET(huart->AdvancedInit.AdvFeatureInit, UART_ADVFEATURE_MSBFIRST_INIT))
 8003026:	687b      	ldr	r3, [r7, #4]
 8003028:	6a5b      	ldr	r3, [r3, #36]	@ 0x24
 800302a:	f003 0380 	and.w	r3, r3, #128	@ 0x80
 800302e:	2b00      	cmp	r3, #0
 8003030:	d00a      	beq.n	8003048 <UART_AdvFeatureConfig+0x138>
  {
    assert_param(IS_UART_ADVFEATURE_MSBFIRST(huart->AdvancedInit.MSBFirst));
    MODIFY_REG(huart->Instance->CR2, USART_CR2_MSBFIRST, huart->AdvancedInit.MSBFirst);
 8003032:	687b      	ldr	r3, [r7, #4]
 8003034:	681b      	ldr	r3, [r3, #0]
 8003036:	685b      	ldr	r3, [r3, #4]
 8003038:	f423 2100 	bic.w	r1, r3, #524288	@ 0x80000
 800303c:	687b      	ldr	r3, [r7, #4]
 800303e:	6c9a      	ldr	r2, [r3, #72]	@ 0x48
 8003040:	687b      	ldr	r3, [r7, #4]
 8003042:	681b      	ldr	r3, [r3, #0]
 8003044:	430a      	orrs	r2, r1
 8003046:	605a      	str	r2, [r3, #4]
  }
}
 8003048:	bf00      	nop
 800304a:	370c      	adds	r7, #12
 800304c:	46bd      	mov	sp, r7
 800304e:	f85d 7b04 	ldr.w	r7, [sp], #4
 8003052:	4770      	bx	lr

08003054 <UART_CheckIdleState>:
  * @brief Check the UART Idle State.
  * @param huart UART handle.
  * @retval HAL status
  */
HAL_StatusTypeDef UART_CheckIdleState(UART_HandleTypeDef *huart)
{
 8003054:	b580      	push	{r7, lr}
 8003056:	b098      	sub	sp, #96	@ 0x60
 8003058:	af02      	add	r7, sp, #8
 800305a:	6078      	str	r0, [r7, #4]
  uint32_t tickstart;

  /* Initialize the UART ErrorCode */
  huart->ErrorCode = HAL_UART_ERROR_NONE;
 800305c:	687b      	ldr	r3, [r7, #4]
 800305e:	2200      	movs	r2, #0
 8003060:	f8c3 2084 	str.w	r2, [r3, #132]	@ 0x84

  /* Init tickstart for timeout management */
  tickstart = HAL_GetTick();
 8003064:	f7fd fdd6 	bl	8000c14 <HAL_GetTick>
 8003068:	6578      	str	r0, [r7, #84]	@ 0x54

  /* Check if the Transmitter is enabled */
  if ((huart->Instance->CR1 & USART_CR1_TE) == USART_CR1_TE)
 800306a:	687b      	ldr	r3, [r7, #4]
 800306c:	681b      	ldr	r3, [r3, #0]
 800306e:	681b      	ldr	r3, [r3, #0]
 8003070:	f003 0308 	and.w	r3, r3, #8
 8003074:	2b08      	cmp	r3, #8
 8003076:	d12e      	bne.n	80030d6 <UART_CheckIdleState+0x82>
  {
    /* Wait until TEACK flag is set */
    if (UART_WaitOnFlagUntilTimeout(huart, USART_ISR_TEACK, RESET, tickstart, HAL_UART_TIMEOUT_VALUE) != HAL_OK)
 8003078:	f06f 437e 	mvn.w	r3, #4261412864	@ 0xfe000000
 800307c:	9300      	str	r3, [sp, #0]
 800307e:	6d7b      	ldr	r3, [r7, #84]	@ 0x54
 8003080:	2200      	movs	r2, #0
 8003082:	f44f 1100 	mov.w	r1, #2097152	@ 0x200000
 8003086:	6878      	ldr	r0, [r7, #4]
 8003088:	f000 f88c 	bl	80031a4 <UART_WaitOnFlagUntilTimeout>
 800308c:	4603      	mov	r3, r0
 800308e:	2b00      	cmp	r3, #0
 8003090:	d021      	beq.n	80030d6 <UART_CheckIdleState+0x82>
    {
      /* Disable TXE interrupt for the interrupt process */
#if defined(USART_CR1_FIFOEN)
      ATOMIC_CLEAR_BIT(huart->Instance->CR1, (USART_CR1_TXEIE_TXFNFIE));
#else
      ATOMIC_CLEAR_BIT(huart->Instance->CR1, (USART_CR1_TXEIE));
 8003092:	687b      	ldr	r3, [r7, #4]
 8003094:	681b      	ldr	r3, [r3, #0]
 8003096:	63bb      	str	r3, [r7, #56]	@ 0x38
 */
__STATIC_FORCEINLINE uint32_t __LDREXW(volatile uint32_t *addr)
{
    uint32_t result;

   __ASM volatile ("ldrex %0, %1" : "=r" (result) : "Q" (*addr) );
 8003098:	6bbb      	ldr	r3, [r7, #56]	@ 0x38
 800309a:	e853 3f00 	ldrex	r3, [r3]
 800309e:	637b      	str	r3, [r7, #52]	@ 0x34
   return(result);
 80030a0:	6b7b      	ldr	r3, [r7, #52]	@ 0x34
 80030a2:	f023 0380 	bic.w	r3, r3, #128	@ 0x80
 80030a6:	653b      	str	r3, [r7, #80]	@ 0x50
 80030a8:	687b      	ldr	r3, [r7, #4]
 80030aa:	681b      	ldr	r3, [r3, #0]
 80030ac:	461a      	mov	r2, r3
 80030ae:	6d3b      	ldr	r3, [r7, #80]	@ 0x50
 80030b0:	647b      	str	r3, [r7, #68]	@ 0x44
 80030b2:	643a      	str	r2, [r7, #64]	@ 0x40
 */
__STATIC_FORCEINLINE uint32_t __STREXW(uint32_t value, volatile uint32_t *addr)
{
   uint32_t result;

   __ASM volatile ("strex %0, %2, %1" : "=&r" (result), "=Q" (*addr) : "r" (value) );
 80030b4:	6c39      	ldr	r1, [r7, #64]	@ 0x40
 80030b6:	6c7a      	ldr	r2, [r7, #68]	@ 0x44
 80030b8:	e841 2300 	strex	r3, r2, [r1]
 80030bc:	63fb      	str	r3, [r7, #60]	@ 0x3c
   return(result);
 80030be:	6bfb      	ldr	r3, [r7, #60]	@ 0x3c
 80030c0:	2b00      	cmp	r3, #0
 80030c2:	d1e6      	bne.n	8003092 <UART_CheckIdleState+0x3e>
#endif /* USART_CR1_FIFOEN */

      huart->gState = HAL_UART_STATE_READY;
 80030c4:	687b      	ldr	r3, [r7, #4]
 80030c6:	2220      	movs	r2, #32
 80030c8:	67da      	str	r2, [r3, #124]	@ 0x7c

      __HAL_UNLOCK(huart);
 80030ca:	687b      	ldr	r3, [r7, #4]
 80030cc:	2200      	movs	r2, #0
 80030ce:	f883 2078 	strb.w	r2, [r3, #120]	@ 0x78

      /* Timeout occurred */
      return HAL_TIMEOUT;
 80030d2:	2303      	movs	r3, #3
 80030d4:	e062      	b.n	800319c <UART_CheckIdleState+0x148>
    }
  }

  /* Check if the Receiver is enabled */
  if ((huart->Instance->CR1 & USART_CR1_RE) == USART_CR1_RE)
 80030d6:	687b      	ldr	r3, [r7, #4]
 80030d8:	681b      	ldr	r3, [r3, #0]
 80030da:	681b      	ldr	r3, [r3, #0]
 80030dc:	f003 0304 	and.w	r3, r3, #4
 80030e0:	2b04      	cmp	r3, #4
 80030e2:	d149      	bne.n	8003178 <UART_CheckIdleState+0x124>
  {
    /* Wait until REACK flag is set */
    if (UART_WaitOnFlagUntilTimeout(huart, USART_ISR_REACK, RESET, tickstart, HAL_UART_TIMEOUT_VALUE) != HAL_OK)
 80030e4:	f06f 437e 	mvn.w	r3, #4261412864	@ 0xfe000000
 80030e8:	9300      	str	r3, [sp, #0]
 80030ea:	6d7b      	ldr	r3, [r7, #84]	@ 0x54
 80030ec:	2200      	movs	r2, #0
 80030ee:	f44f 0180 	mov.w	r1, #4194304	@ 0x400000
 80030f2:	6878      	ldr	r0, [r7, #4]
 80030f4:	f000 f856 	bl	80031a4 <UART_WaitOnFlagUntilTimeout>
 80030f8:	4603      	mov	r3, r0
 80030fa:	2b00      	cmp	r3, #0
 80030fc:	d03c      	beq.n	8003178 <UART_CheckIdleState+0x124>
      /* Disable RXNE, PE and ERR (Frame error, noise error, overrun error)
      interrupts for the interrupt process */
#if defined(USART_CR1_FIFOEN)
      ATOMIC_CLEAR_BIT(huart->Instance->CR1, (USART_CR1_RXNEIE_RXFNEIE | USART_CR1_PEIE));
#else
      ATOMIC_CLEAR_BIT(huart->Instance->CR1, (USART_CR1_RXNEIE | USART_CR1_PEIE));
 80030fe:	687b      	ldr	r3, [r7, #4]
 8003100:	681b      	ldr	r3, [r3, #0]
 8003102:	627b      	str	r3, [r7, #36]	@ 0x24
   __ASM volatile ("ldrex %0, %1" : "=r" (result) : "Q" (*addr) );
 8003104:	6a7b      	ldr	r3, [r7, #36]	@ 0x24
 8003106:	e853 3f00 	ldrex	r3, [r3]
 800310a:	623b      	str	r3, [r7, #32]
   return(result);
 800310c:	6a3b      	ldr	r3, [r7, #32]
 800310e:	f423 7390 	bic.w	r3, r3, #288	@ 0x120
 8003112:	64fb      	str	r3, [r7, #76]	@ 0x4c
 8003114:	687b      	ldr	r3, [r7, #4]
 8003116:	681b      	ldr	r3, [r3, #0]
 8003118:	461a      	mov	r2, r3
 800311a:	6cfb      	ldr	r3, [r7, #76]	@ 0x4c
 800311c:	633b      	str	r3, [r7, #48]	@ 0x30
 800311e:	62fa      	str	r2, [r7, #44]	@ 0x2c
   __ASM volatile ("strex %0, %2, %1" : "=&r" (result), "=Q" (*addr) : "r" (value) );
 8003120:	6af9      	ldr	r1, [r7, #44]	@ 0x2c
 8003122:	6b3a      	ldr	r2, [r7, #48]	@ 0x30
 8003124:	e841 2300 	strex	r3, r2, [r1]
 8003128:	62bb      	str	r3, [r7, #40]	@ 0x28
   return(result);
 800312a:	6abb      	ldr	r3, [r7, #40]	@ 0x28
 800312c:	2b00      	cmp	r3, #0
 800312e:	d1e6      	bne.n	80030fe <UART_CheckIdleState+0xaa>
#endif /* USART_CR1_FIFOEN */
      ATOMIC_CLEAR_BIT(huart->Instance->CR3, USART_CR3_EIE);
 8003130:	687b      	ldr	r3, [r7, #4]
 8003132:	681b      	ldr	r3, [r3, #0]
 8003134:	3308      	adds	r3, #8
 8003136:	613b      	str	r3, [r7, #16]
   __ASM volatile ("ldrex %0, %1" : "=r" (result) : "Q" (*addr) );
 8003138:	693b      	ldr	r3, [r7, #16]
 800313a:	e853 3f00 	ldrex	r3, [r3]
 800313e:	60fb      	str	r3, [r7, #12]
   return(result);
 8003140:	68fb      	ldr	r3, [r7, #12]
 8003142:	f023 0301 	bic.w	r3, r3, #1
 8003146:	64bb      	str	r3, [r7, #72]	@ 0x48
 8003148:	687b      	ldr	r3, [r7, #4]
 800314a:	681b      	ldr	r3, [r3, #0]
 800314c:	3308      	adds	r3, #8
 800314e:	6cba      	ldr	r2, [r7, #72]	@ 0x48
 8003150:	61fa      	str	r2, [r7, #28]
 8003152:	61bb      	str	r3, [r7, #24]
   __ASM volatile ("strex %0, %2, %1" : "=&r" (result), "=Q" (*addr) : "r" (value) );
 8003154:	69b9      	ldr	r1, [r7, #24]
 8003156:	69fa      	ldr	r2, [r7, #28]
 8003158:	e841 2300 	strex	r3, r2, [r1]
 800315c:	617b      	str	r3, [r7, #20]
   return(result);
 800315e:	697b      	ldr	r3, [r7, #20]
 8003160:	2b00      	cmp	r3, #0
 8003162:	d1e5      	bne.n	8003130 <UART_CheckIdleState+0xdc>

      huart->RxState = HAL_UART_STATE_READY;
 8003164:	687b      	ldr	r3, [r7, #4]
 8003166:	2220      	movs	r2, #32
 8003168:	f8c3 2080 	str.w	r2, [r3, #128]	@ 0x80

      __HAL_UNLOCK(huart);
 800316c:	687b      	ldr	r3, [r7, #4]
 800316e:	2200      	movs	r2, #0
 8003170:	f883 2078 	strb.w	r2, [r3, #120]	@ 0x78

      /* Timeout occurred */
      return HAL_TIMEOUT;
 8003174:	2303      	movs	r3, #3
 8003176:	e011      	b.n	800319c <UART_CheckIdleState+0x148>
    }
  }

  /* Initialize the UART State */
  huart->gState = HAL_UART_STATE_READY;
 8003178:	687b      	ldr	r3, [r7, #4]
 800317a:	2220      	movs	r2, #32
 800317c:	67da      	str	r2, [r3, #124]	@ 0x7c
  huart->RxState = HAL_UART_STATE_READY;
 800317e:	687b      	ldr	r3, [r7, #4]
 8003180:	2220      	movs	r2, #32
 8003182:	f8c3 2080 	str.w	r2, [r3, #128]	@ 0x80
  huart->ReceptionType = HAL_UART_RECEPTION_STANDARD;
 8003186:	687b      	ldr	r3, [r7, #4]
 8003188:	2200      	movs	r2, #0
 800318a:	661a      	str	r2, [r3, #96]	@ 0x60
  huart->RxEventType = HAL_UART_RXEVENT_TC;
 800318c:	687b      	ldr	r3, [r7, #4]
 800318e:	2200      	movs	r2, #0
 8003190:	665a      	str	r2, [r3, #100]	@ 0x64

  __HAL_UNLOCK(huart);
 8003192:	687b      	ldr	r3, [r7, #4]
 8003194:	2200      	movs	r2, #0
 8003196:	f883 2078 	strb.w	r2, [r3, #120]	@ 0x78

  return HAL_OK;
 800319a:	2300      	movs	r3, #0
}
 800319c:	4618      	mov	r0, r3
 800319e:	3758      	adds	r7, #88	@ 0x58
 80031a0:	46bd      	mov	sp, r7
 80031a2:	bd80      	pop	{r7, pc}

080031a4 <UART_WaitOnFlagUntilTimeout>:
  * @param Timeout   Timeout duration
  * @retval HAL status
  */
HAL_StatusTypeDef UART_WaitOnFlagUntilTimeout(UART_HandleTypeDef *huart, uint32_t Flag, FlagStatus Status,
                                              uint32_t Tickstart, uint32_t Timeout)
{
 80031a4:	b580      	push	{r7, lr}
 80031a6:	b084      	sub	sp, #16
 80031a8:	af00      	add	r7, sp, #0
 80031aa:	60f8      	str	r0, [r7, #12]
 80031ac:	60b9      	str	r1, [r7, #8]
 80031ae:	603b      	str	r3, [r7, #0]
 80031b0:	4613      	mov	r3, r2
 80031b2:	71fb      	strb	r3, [r7, #7]
  /* Wait until flag is set */
  while ((__HAL_UART_GET_FLAG(huart, Flag) ? SET : RESET) == Status)
 80031b4:	e04f      	b.n	8003256 <UART_WaitOnFlagUntilTimeout+0xb2>
  {
    /* Check for the Timeout */
    if (Timeout != HAL_MAX_DELAY)
 80031b6:	69bb      	ldr	r3, [r7, #24]
 80031b8:	f1b3 3fff 	cmp.w	r3, #4294967295
 80031bc:	d04b      	beq.n	8003256 <UART_WaitOnFlagUntilTimeout+0xb2>
    {
      if (((HAL_GetTick() - Tickstart) > Timeout) || (Timeout == 0U))
 80031be:	f7fd fd29 	bl	8000c14 <HAL_GetTick>
 80031c2:	4602      	mov	r2, r0
 80031c4:	683b      	ldr	r3, [r7, #0]
 80031c6:	1ad3      	subs	r3, r2, r3
 80031c8:	69ba      	ldr	r2, [r7, #24]
 80031ca:	429a      	cmp	r2, r3
 80031cc:	d302      	bcc.n	80031d4 <UART_WaitOnFlagUntilTimeout+0x30>
 80031ce:	69bb      	ldr	r3, [r7, #24]
 80031d0:	2b00      	cmp	r3, #0
 80031d2:	d101      	bne.n	80031d8 <UART_WaitOnFlagUntilTimeout+0x34>
      {

        return HAL_TIMEOUT;
 80031d4:	2303      	movs	r3, #3
 80031d6:	e04e      	b.n	8003276 <UART_WaitOnFlagUntilTimeout+0xd2>
      }

      if ((READ_BIT(huart->Instance->CR1, USART_CR1_RE) != 0U) && (Flag != UART_FLAG_TXE) && (Flag != UART_FLAG_TC))
 80031d8:	68fb      	ldr	r3, [r7, #12]
 80031da:	681b      	ldr	r3, [r3, #0]
 80031dc:	681b      	ldr	r3, [r3, #0]
 80031de:	f003 0304 	and.w	r3, r3, #4
 80031e2:	2b00      	cmp	r3, #0
 80031e4:	d037      	beq.n	8003256 <UART_WaitOnFlagUntilTimeout+0xb2>
 80031e6:	68bb      	ldr	r3, [r7, #8]
 80031e8:	2b80      	cmp	r3, #128	@ 0x80
 80031ea:	d034      	beq.n	8003256 <UART_WaitOnFlagUntilTimeout+0xb2>
 80031ec:	68bb      	ldr	r3, [r7, #8]
 80031ee:	2b40      	cmp	r3, #64	@ 0x40
 80031f0:	d031      	beq.n	8003256 <UART_WaitOnFlagUntilTimeout+0xb2>
      {
        if (__HAL_UART_GET_FLAG(huart, UART_FLAG_ORE) == SET)
 80031f2:	68fb      	ldr	r3, [r7, #12]
 80031f4:	681b      	ldr	r3, [r3, #0]
 80031f6:	69db      	ldr	r3, [r3, #28]
 80031f8:	f003 0308 	and.w	r3, r3, #8
 80031fc:	2b08      	cmp	r3, #8
 80031fe:	d110      	bne.n	8003222 <UART_WaitOnFlagUntilTimeout+0x7e>
        {
          /* Clear Overrun Error flag*/
          __HAL_UART_CLEAR_FLAG(huart, UART_CLEAR_OREF);
 8003200:	68fb      	ldr	r3, [r7, #12]
 8003202:	681b      	ldr	r3, [r3, #0]
 8003204:	2208      	movs	r2, #8
 8003206:	621a      	str	r2, [r3, #32]

          /* Blocking error : transfer is aborted
          Set the UART state ready to be able to start again the process,
          Disable Rx Interrupts if ongoing */
          UART_EndRxTransfer(huart);
 8003208:	68f8      	ldr	r0, [r7, #12]
 800320a:	f000 f838 	bl	800327e <UART_EndRxTransfer>

          huart->ErrorCode = HAL_UART_ERROR_ORE;
 800320e:	68fb      	ldr	r3, [r7, #12]
 8003210:	2208      	movs	r2, #8
 8003212:	f8c3 2084 	str.w	r2, [r3, #132]	@ 0x84

          /* Process Unlocked */
          __HAL_UNLOCK(huart);
 8003216:	68fb      	ldr	r3, [r7, #12]
 8003218:	2200      	movs	r2, #0
 800321a:	f883 2078 	strb.w	r2, [r3, #120]	@ 0x78

          return HAL_ERROR;
 800321e:	2301      	movs	r3, #1
 8003220:	e029      	b.n	8003276 <UART_WaitOnFlagUntilTimeout+0xd2>
        }
        if (__HAL_UART_GET_FLAG(huart, UART_FLAG_RTOF) == SET)
 8003222:	68fb      	ldr	r3, [r7, #12]
 8003224:	681b      	ldr	r3, [r3, #0]
 8003226:	69db      	ldr	r3, [r3, #28]
 8003228:	f403 6300 	and.w	r3, r3, #2048	@ 0x800
 800322c:	f5b3 6f00 	cmp.w	r3, #2048	@ 0x800
 8003230:	d111      	bne.n	8003256 <UART_WaitOnFlagUntilTimeout+0xb2>
        {
          /* Clear Receiver Timeout flag*/
          __HAL_UART_CLEAR_FLAG(huart, UART_CLEAR_RTOF);
 8003232:	68fb      	ldr	r3, [r7, #12]
 8003234:	681b      	ldr	r3, [r3, #0]
 8003236:	f44f 6200 	mov.w	r2, #2048	@ 0x800
 800323a:	621a      	str	r2, [r3, #32]

          /* Blocking error : transfer is aborted
          Set the UART state ready to be able to start again the process,
          Disable Rx Interrupts if ongoing */
          UART_EndRxTransfer(huart);
 800323c:	68f8      	ldr	r0, [r7, #12]
 800323e:	f000 f81e 	bl	800327e <UART_EndRxTransfer>

          huart->ErrorCode = HAL_UART_ERROR_RTO;
 8003242:	68fb      	ldr	r3, [r7, #12]
 8003244:	2220      	movs	r2, #32
 8003246:	f8c3 2084 	str.w	r2, [r3, #132]	@ 0x84

          /* Process Unlocked */
          __HAL_UNLOCK(huart);
 800324a:	68fb      	ldr	r3, [r7, #12]
 800324c:	2200      	movs	r2, #0
 800324e:	f883 2078 	strb.w	r2, [r3, #120]	@ 0x78

          return HAL_TIMEOUT;
 8003252:	2303      	movs	r3, #3
 8003254:	e00f      	b.n	8003276 <UART_WaitOnFlagUntilTimeout+0xd2>
  while ((__HAL_UART_GET_FLAG(huart, Flag) ? SET : RESET) == Status)
 8003256:	68fb      	ldr	r3, [r7, #12]
 8003258:	681b      	ldr	r3, [r3, #0]
 800325a:	69da      	ldr	r2, [r3, #28]
 800325c:	68bb      	ldr	r3, [r7, #8]
 800325e:	4013      	ands	r3, r2
 8003260:	68ba      	ldr	r2, [r7, #8]
 8003262:	429a      	cmp	r2, r3
 8003264:	bf0c      	ite	eq
 8003266:	2301      	moveq	r3, #1
 8003268:	2300      	movne	r3, #0
 800326a:	b2db      	uxtb	r3, r3
 800326c:	461a      	mov	r2, r3
 800326e:	79fb      	ldrb	r3, [r7, #7]
 8003270:	429a      	cmp	r2, r3
 8003272:	d0a0      	beq.n	80031b6 <UART_WaitOnFlagUntilTimeout+0x12>
        }
      }
    }
  }
  return HAL_OK;
 8003274:	2300      	movs	r3, #0
}
 8003276:	4618      	mov	r0, r3
 8003278:	3710      	adds	r7, #16
 800327a:	46bd      	mov	sp, r7
 800327c:	bd80      	pop	{r7, pc}

0800327e <UART_EndRxTransfer>:
  * @brief  End ongoing Rx transfer on UART peripheral (following error detection or Reception completion).
  * @param  huart UART handle.
  * @retval None
  */
static void UART_EndRxTransfer(UART_HandleTypeDef *huart)
{
 800327e:	b480      	push	{r7}
 8003280:	b095      	sub	sp, #84	@ 0x54
 8003282:	af00      	add	r7, sp, #0
 8003284:	6078      	str	r0, [r7, #4]
  /* Disable RXNE, PE and ERR (Frame error, noise error, overrun error) interrupts */
#if defined(USART_CR1_FIFOEN)
  ATOMIC_CLEAR_BIT(huart->Instance->CR1, (USART_CR1_RXNEIE_RXFNEIE | USART_CR1_PEIE));
  ATOMIC_CLEAR_BIT(huart->Instance->CR3, (USART_CR3_EIE | USART_CR3_RXFTIE));
#else
  ATOMIC_CLEAR_BIT(huart->Instance->CR1, (USART_CR1_RXNEIE | USART_CR1_PEIE));
 8003286:	687b      	ldr	r3, [r7, #4]
 8003288:	681b      	ldr	r3, [r3, #0]
 800328a:	637b      	str	r3, [r7, #52]	@ 0x34
   __ASM volatile ("ldrex %0, %1" : "=r" (result) : "Q" (*addr) );
 800328c:	6b7b      	ldr	r3, [r7, #52]	@ 0x34
 800328e:	e853 3f00 	ldrex	r3, [r3]
 8003292:	633b      	str	r3, [r7, #48]	@ 0x30
   return(result);
 8003294:	6b3b      	ldr	r3, [r7, #48]	@ 0x30
 8003296:	f423 7390 	bic.w	r3, r3, #288	@ 0x120
 800329a:	64fb      	str	r3, [r7, #76]	@ 0x4c
 800329c:	687b      	ldr	r3, [r7, #4]
 800329e:	681b      	ldr	r3, [r3, #0]
 80032a0:	461a      	mov	r2, r3
 80032a2:	6cfb      	ldr	r3, [r7, #76]	@ 0x4c
 80032a4:	643b      	str	r3, [r7, #64]	@ 0x40
 80032a6:	63fa      	str	r2, [r7, #60]	@ 0x3c
   __ASM volatile ("strex %0, %2, %1" : "=&r" (result), "=Q" (*addr) : "r" (value) );
 80032a8:	6bf9      	ldr	r1, [r7, #60]	@ 0x3c
 80032aa:	6c3a      	ldr	r2, [r7, #64]	@ 0x40
 80032ac:	e841 2300 	strex	r3, r2, [r1]
 80032b0:	63bb      	str	r3, [r7, #56]	@ 0x38
   return(result);
 80032b2:	6bbb      	ldr	r3, [r7, #56]	@ 0x38
 80032b4:	2b00      	cmp	r3, #0
 80032b6:	d1e6      	bne.n	8003286 <UART_EndRxTransfer+0x8>
  ATOMIC_CLEAR_BIT(huart->Instance->CR3, USART_CR3_EIE);
 80032b8:	687b      	ldr	r3, [r7, #4]
 80032ba:	681b      	ldr	r3, [r3, #0]
 80032bc:	3308      	adds	r3, #8
 80032be:	623b      	str	r3, [r7, #32]
   __ASM volatile ("ldrex %0, %1" : "=r" (result) : "Q" (*addr) );
 80032c0:	6a3b      	ldr	r3, [r7, #32]
 80032c2:	e853 3f00 	ldrex	r3, [r3]
 80032c6:	61fb      	str	r3, [r7, #28]
   return(result);
 80032c8:	69fb      	ldr	r3, [r7, #28]
 80032ca:	f023 0301 	bic.w	r3, r3, #1
 80032ce:	64bb      	str	r3, [r7, #72]	@ 0x48
 80032d0:	687b      	ldr	r3, [r7, #4]
 80032d2:	681b      	ldr	r3, [r3, #0]
 80032d4:	3308      	adds	r3, #8
 80032d6:	6cba      	ldr	r2, [r7, #72]	@ 0x48
 80032d8:	62fa      	str	r2, [r7, #44]	@ 0x2c
 80032da:	62bb      	str	r3, [r7, #40]	@ 0x28
   __ASM volatile ("strex %0, %2, %1" : "=&r" (result), "=Q" (*addr) : "r" (value) );
 80032dc:	6ab9      	ldr	r1, [r7, #40]	@ 0x28
 80032de:	6afa      	ldr	r2, [r7, #44]	@ 0x2c
 80032e0:	e841 2300 	strex	r3, r2, [r1]
 80032e4:	627b      	str	r3, [r7, #36]	@ 0x24
   return(result);
 80032e6:	6a7b      	ldr	r3, [r7, #36]	@ 0x24
 80032e8:	2b00      	cmp	r3, #0
 80032ea:	d1e5      	bne.n	80032b8 <UART_EndRxTransfer+0x3a>
#endif /* USART_CR1_FIFOEN */

  /* In case of reception waiting for IDLE event, disable also the IDLE IE interrupt source */
  if (huart->ReceptionType == HAL_UART_RECEPTION_TOIDLE)
 80032ec:	687b      	ldr	r3, [r7, #4]
 80032ee:	6e1b      	ldr	r3, [r3, #96]	@ 0x60
 80032f0:	2b01      	cmp	r3, #1
 80032f2:	d118      	bne.n	8003326 <UART_EndRxTransfer+0xa8>
  {
    ATOMIC_CLEAR_BIT(huart->Instance->CR1, USART_CR1_IDLEIE);
 80032f4:	687b      	ldr	r3, [r7, #4]
 80032f6:	681b      	ldr	r3, [r3, #0]
 80032f8:	60fb      	str	r3, [r7, #12]
   __ASM volatile ("ldrex %0, %1" : "=r" (result) : "Q" (*addr) );
 80032fa:	68fb      	ldr	r3, [r7, #12]
 80032fc:	e853 3f00 	ldrex	r3, [r3]
 8003300:	60bb      	str	r3, [r7, #8]
   return(result);
 8003302:	68bb      	ldr	r3, [r7, #8]
 8003304:	f023 0310 	bic.w	r3, r3, #16
 8003308:	647b      	str	r3, [r7, #68]	@ 0x44
 800330a:	687b      	ldr	r3, [r7, #4]
 800330c:	681b      	ldr	r3, [r3, #0]
 800330e:	461a      	mov	r2, r3
 8003310:	6c7b      	ldr	r3, [r7, #68]	@ 0x44
 8003312:	61bb      	str	r3, [r7, #24]
 8003314:	617a      	str	r2, [r7, #20]
   __ASM volatile ("strex %0, %2, %1" : "=&r" (result), "=Q" (*addr) : "r" (value) );
 8003316:	6979      	ldr	r1, [r7, #20]
 8003318:	69ba      	ldr	r2, [r7, #24]
 800331a:	e841 2300 	strex	r3, r2, [r1]
 800331e:	613b      	str	r3, [r7, #16]
   return(result);
 8003320:	693b      	ldr	r3, [r7, #16]
 8003322:	2b00      	cmp	r3, #0
 8003324:	d1e6      	bne.n	80032f4 <UART_EndRxTransfer+0x76>
  }

  /* At end of Rx process, restore huart->RxState to Ready */
  huart->RxState = HAL_UART_STATE_READY;
 8003326:	687b      	ldr	r3, [r7, #4]
 8003328:	2220      	movs	r2, #32
 800332a:	f8c3 2080 	str.w	r2, [r3, #128]	@ 0x80
  huart->ReceptionType = HAL_UART_RECEPTION_STANDARD;
 800332e:	687b      	ldr	r3, [r7, #4]
 8003330:	2200      	movs	r2, #0
 8003332:	661a      	str	r2, [r3, #96]	@ 0x60

  /* Reset RxIsr function pointer */
  huart->RxISR = NULL;
 8003334:	687b      	ldr	r3, [r7, #4]
 8003336:	2200      	movs	r2, #0
 8003338:	669a      	str	r2, [r3, #104]	@ 0x68
}
 800333a:	bf00      	nop
 800333c:	3754      	adds	r7, #84	@ 0x54
 800333e:	46bd      	mov	sp, r7
 8003340:	f85d 7b04 	ldr.w	r7, [sp], #4
 8003344:	4770      	bx	lr

08003346 <makeFreeRtosPriority>:

extern void xPortSysTickHandler(void);

/* Convert from CMSIS type osPriority to FreeRTOS priority number */
static unsigned portBASE_TYPE makeFreeRtosPriority (osPriority priority)
{
 8003346:	b480      	push	{r7}
 8003348:	b085      	sub	sp, #20
 800334a:	af00      	add	r7, sp, #0
 800334c:	4603      	mov	r3, r0
 800334e:	80fb      	strh	r3, [r7, #6]
  unsigned portBASE_TYPE fpriority = tskIDLE_PRIORITY;
 8003350:	2300      	movs	r3, #0
 8003352:	60fb      	str	r3, [r7, #12]
  
  if (priority != osPriorityError) {
 8003354:	f9b7 3006 	ldrsh.w	r3, [r7, #6]
 8003358:	2b84      	cmp	r3, #132	@ 0x84
 800335a:	d005      	beq.n	8003368 <makeFreeRtosPriority+0x22>
    fpriority += (priority - osPriorityIdle);
 800335c:	f9b7 2006 	ldrsh.w	r2, [r7, #6]
 8003360:	68fb      	ldr	r3, [r7, #12]
 8003362:	4413      	add	r3, r2
 8003364:	3303      	adds	r3, #3
 8003366:	60fb      	str	r3, [r7, #12]
  }
  
  return fpriority;
 8003368:	68fb      	ldr	r3, [r7, #12]
}
 800336a:	4618      	mov	r0, r3
 800336c:	3714      	adds	r7, #20
 800336e:	46bd      	mov	sp, r7
 8003370:	f85d 7b04 	ldr.w	r7, [sp], #4
 8003374:	4770      	bx	lr

08003376 <osKernelStart>:
* @param  argument      pointer that is passed to the thread function as start argument.
* @retval status code that indicates the execution status of the function
* @note   MUST REMAIN UNCHANGED: \b osKernelStart shall be consistent in every CMSIS-RTOS.
*/
osStatus osKernelStart (void)
{
 8003376:	b580      	push	{r7, lr}
 8003378:	af00      	add	r7, sp, #0
  vTaskStartScheduler();
 800337a:	f000 fae5 	bl	8003948 <vTaskStartScheduler>
  
  return osOK;
 800337e:	2300      	movs	r3, #0
}
 8003380:	4618      	mov	r0, r3
 8003382:	bd80      	pop	{r7, pc}

08003384 <osThreadCreate>:
* @param  argument      pointer that is passed to the thread function as start argument.
* @retval thread ID for reference by other functions or NULL in case of error.
* @note   MUST REMAIN UNCHANGED: \b osThreadCreate shall be consistent in every CMSIS-RTOS.
*/
osThreadId osThreadCreate (const osThreadDef_t *thread_def, void *argument)
{
 8003384:	b5f0      	push	{r4, r5, r6, r7, lr}
 8003386:	b089      	sub	sp, #36	@ 0x24
 8003388:	af04      	add	r7, sp, #16
 800338a:	6078      	str	r0, [r7, #4]
 800338c:	6039      	str	r1, [r7, #0]
  TaskHandle_t handle;
  
#if( configSUPPORT_STATIC_ALLOCATION == 1 ) &&  ( configSUPPORT_DYNAMIC_ALLOCATION == 1 )
  if((thread_def->buffer != NULL) && (thread_def->controlblock != NULL)) {
 800338e:	687b      	ldr	r3, [r7, #4]
 8003390:	695b      	ldr	r3, [r3, #20]
 8003392:	2b00      	cmp	r3, #0
 8003394:	d020      	beq.n	80033d8 <osThreadCreate+0x54>
 8003396:	687b      	ldr	r3, [r7, #4]
 8003398:	699b      	ldr	r3, [r3, #24]
 800339a:	2b00      	cmp	r3, #0
 800339c:	d01c      	beq.n	80033d8 <osThreadCreate+0x54>
    handle = xTaskCreateStatic((TaskFunction_t)thread_def->pthread,(const portCHAR *)thread_def->name,
 800339e:	687b      	ldr	r3, [r7, #4]
 80033a0:	685c      	ldr	r4, [r3, #4]
 80033a2:	687b      	ldr	r3, [r7, #4]
 80033a4:	681d      	ldr	r5, [r3, #0]
              thread_def->stacksize, argument, makeFreeRtosPriority(thread_def->tpriority),
 80033a6:	687b      	ldr	r3, [r7, #4]
 80033a8:	691e      	ldr	r6, [r3, #16]
 80033aa:	687b      	ldr	r3, [r7, #4]
 80033ac:	f9b3 3008 	ldrsh.w	r3, [r3, #8]
    handle = xTaskCreateStatic((TaskFunction_t)thread_def->pthread,(const portCHAR *)thread_def->name,
 80033b0:	4618      	mov	r0, r3
 80033b2:	f7ff ffc8 	bl	8003346 <makeFreeRtosPriority>
 80033b6:	4601      	mov	r1, r0
              thread_def->buffer, thread_def->controlblock);
 80033b8:	687b      	ldr	r3, [r7, #4]
 80033ba:	695b      	ldr	r3, [r3, #20]
 80033bc:	687a      	ldr	r2, [r7, #4]
 80033be:	6992      	ldr	r2, [r2, #24]
    handle = xTaskCreateStatic((TaskFunction_t)thread_def->pthread,(const portCHAR *)thread_def->name,
 80033c0:	9202      	str	r2, [sp, #8]
 80033c2:	9301      	str	r3, [sp, #4]
 80033c4:	9100      	str	r1, [sp, #0]
 80033c6:	683b      	ldr	r3, [r7, #0]
 80033c8:	4632      	mov	r2, r6
 80033ca:	4629      	mov	r1, r5
 80033cc:	4620      	mov	r0, r4
 80033ce:	f000 f8ed 	bl	80035ac <xTaskCreateStatic>
 80033d2:	4603      	mov	r3, r0
 80033d4:	60fb      	str	r3, [r7, #12]
 80033d6:	e01c      	b.n	8003412 <osThreadCreate+0x8e>
  }
  else {
    if (xTaskCreate((TaskFunction_t)thread_def->pthread,(const portCHAR *)thread_def->name,
 80033d8:	687b      	ldr	r3, [r7, #4]
 80033da:	685c      	ldr	r4, [r3, #4]
 80033dc:	687b      	ldr	r3, [r7, #4]
 80033de:	681d      	ldr	r5, [r3, #0]
              thread_def->stacksize, argument, makeFreeRtosPriority(thread_def->tpriority),
 80033e0:	687b      	ldr	r3, [r7, #4]
 80033e2:	691b      	ldr	r3, [r3, #16]
    if (xTaskCreate((TaskFunction_t)thread_def->pthread,(const portCHAR *)thread_def->name,
 80033e4:	b29e      	uxth	r6, r3
              thread_def->stacksize, argument, makeFreeRtosPriority(thread_def->tpriority),
 80033e6:	687b      	ldr	r3, [r7, #4]
 80033e8:	f9b3 3008 	ldrsh.w	r3, [r3, #8]
    if (xTaskCreate((TaskFunction_t)thread_def->pthread,(const portCHAR *)thread_def->name,
 80033ec:	4618      	mov	r0, r3
 80033ee:	f7ff ffaa 	bl	8003346 <makeFreeRtosPriority>
 80033f2:	4602      	mov	r2, r0
 80033f4:	f107 030c 	add.w	r3, r7, #12
 80033f8:	9301      	str	r3, [sp, #4]
 80033fa:	9200      	str	r2, [sp, #0]
 80033fc:	683b      	ldr	r3, [r7, #0]
 80033fe:	4632      	mov	r2, r6
 8003400:	4629      	mov	r1, r5
 8003402:	4620      	mov	r0, r4
 8003404:	f000 f932 	bl	800366c <xTaskCreate>
 8003408:	4603      	mov	r3, r0
 800340a:	2b01      	cmp	r3, #1
 800340c:	d001      	beq.n	8003412 <osThreadCreate+0x8e>
              &handle) != pdPASS)  {
      return NULL;
 800340e:	2300      	movs	r3, #0
 8003410:	e000      	b.n	8003414 <osThreadCreate+0x90>
                   &handle) != pdPASS)  {
    return NULL;
  }     
#endif
  
  return handle;
 8003412:	68fb      	ldr	r3, [r7, #12]
}
 8003414:	4618      	mov	r0, r3
 8003416:	3714      	adds	r7, #20
 8003418:	46bd      	mov	sp, r7
 800341a:	bdf0      	pop	{r4, r5, r6, r7, pc}

0800341c <osDelay>:
* @brief   Wait for Timeout (Time Delay)
* @param   millisec      time delay value
* @retval  status code that indicates the execution status of the function.
*/
osStatus osDelay (uint32_t millisec)
{
 800341c:	b580      	push	{r7, lr}
 800341e:	b084      	sub	sp, #16
 8003420:	af00      	add	r7, sp, #0
 8003422:	6078      	str	r0, [r7, #4]
#if INCLUDE_vTaskDelay
  TickType_t ticks = millisec / portTICK_PERIOD_MS;
 8003424:	687b      	ldr	r3, [r7, #4]
 8003426:	60fb      	str	r3, [r7, #12]
  
  vTaskDelay(ticks ? ticks : 1);          /* Minimum delay = 1 tick */
 8003428:	68fb      	ldr	r3, [r7, #12]
 800342a:	2b00      	cmp	r3, #0
 800342c:	d001      	beq.n	8003432 <osDelay+0x16>
 800342e:	68fb      	ldr	r3, [r7, #12]
 8003430:	e000      	b.n	8003434 <osDelay+0x18>
 8003432:	2301      	movs	r3, #1
 8003434:	4618      	mov	r0, r3
 8003436:	f000 fa51 	bl	80038dc <vTaskDelay>
  
  return osOK;
 800343a:	2300      	movs	r3, #0
#else
  (void) millisec;
  
  return osErrorResource;
#endif
}
 800343c:	4618      	mov	r0, r3
 800343e:	3710      	adds	r7, #16
 8003440:	46bd      	mov	sp, r7
 8003442:	bd80      	pop	{r7, pc}

08003444 <vListInitialise>:
/*-----------------------------------------------------------
 * PUBLIC LIST API documented in list.h
 *----------------------------------------------------------*/

void vListInitialise( List_t * const pxList )
{
 8003444:	b480      	push	{r7}
 8003446:	b083      	sub	sp, #12
 8003448:	af00      	add	r7, sp, #0
 800344a:	6078      	str	r0, [r7, #4]
	/* The list structure contains a list item which is used to mark the
	end of the list.  To initialise the list the list end is inserted
	as the only list entry. */
	pxList->pxIndex = ( ListItem_t * ) &( pxList->xListEnd );			/*lint !e826 !e740 !e9087 The mini list structure is used as the list end to save RAM.  This is checked and valid. */
 800344c:	687b      	ldr	r3, [r7, #4]
 800344e:	f103 0208 	add.w	r2, r3, #8
 8003452:	687b      	ldr	r3, [r7, #4]
 8003454:	605a      	str	r2, [r3, #4]

	/* The list end value is the highest possible value in the list to
	ensure it remains at the end of the list. */
	pxList->xListEnd.xItemValue = portMAX_DELAY;
 8003456:	687b      	ldr	r3, [r7, #4]
 8003458:	f04f 32ff 	mov.w	r2, #4294967295
 800345c:	609a      	str	r2, [r3, #8]

	/* The list end next and previous pointers point to itself so we know
	when the list is empty. */
	pxList->xListEnd.pxNext = ( ListItem_t * ) &( pxList->xListEnd );	/*lint !e826 !e740 !e9087 The mini list structure is used as the list end to save RAM.  This is checked and valid. */
 800345e:	687b      	ldr	r3, [r7, #4]
 8003460:	f103 0208 	add.w	r2, r3, #8
 8003464:	687b      	ldr	r3, [r7, #4]
 8003466:	60da      	str	r2, [r3, #12]
	pxList->xListEnd.pxPrevious = ( ListItem_t * ) &( pxList->xListEnd );/*lint !e826 !e740 !e9087 The mini list structure is used as the list end to save RAM.  This is checked and valid. */
 8003468:	687b      	ldr	r3, [r7, #4]
 800346a:	f103 0208 	add.w	r2, r3, #8
 800346e:	687b      	ldr	r3, [r7, #4]
 8003470:	611a      	str	r2, [r3, #16]

	pxList->uxNumberOfItems = ( UBaseType_t ) 0U;
 8003472:	687b      	ldr	r3, [r7, #4]
 8003474:	2200      	movs	r2, #0
 8003476:	601a      	str	r2, [r3, #0]

	/* Write known values into the list if
	configUSE_LIST_DATA_INTEGRITY_CHECK_BYTES is set to 1. */
	listSET_LIST_INTEGRITY_CHECK_1_VALUE( pxList );
	listSET_LIST_INTEGRITY_CHECK_2_VALUE( pxList );
}
 8003478:	bf00      	nop
 800347a:	370c      	adds	r7, #12
 800347c:	46bd      	mov	sp, r7
 800347e:	f85d 7b04 	ldr.w	r7, [sp], #4
 8003482:	4770      	bx	lr

08003484 <vListInitialiseItem>:
/*-----------------------------------------------------------*/

void vListInitialiseItem( ListItem_t * const pxItem )
{
 8003484:	b480      	push	{r7}
 8003486:	b083      	sub	sp, #12
 8003488:	af00      	add	r7, sp, #0
 800348a:	6078      	str	r0, [r7, #4]
	/* Make sure the list item is not recorded as being on a list. */
	pxItem->pxContainer = NULL;
 800348c:	687b      	ldr	r3, [r7, #4]
 800348e:	2200      	movs	r2, #0
 8003490:	611a      	str	r2, [r3, #16]

	/* Write known values into the list item if
	configUSE_LIST_DATA_INTEGRITY_CHECK_BYTES is set to 1. */
	listSET_FIRST_LIST_ITEM_INTEGRITY_CHECK_VALUE( pxItem );
	listSET_SECOND_LIST_ITEM_INTEGRITY_CHECK_VALUE( pxItem );
}
 8003492:	bf00      	nop
 8003494:	370c      	adds	r7, #12
 8003496:	46bd      	mov	sp, r7
 8003498:	f85d 7b04 	ldr.w	r7, [sp], #4
 800349c:	4770      	bx	lr

0800349e <vListInsertEnd>:
/*-----------------------------------------------------------*/

void vListInsertEnd( List_t * const pxList, ListItem_t * const pxNewListItem )
{
 800349e:	b480      	push	{r7}
 80034a0:	b085      	sub	sp, #20
 80034a2:	af00      	add	r7, sp, #0
 80034a4:	6078      	str	r0, [r7, #4]
 80034a6:	6039      	str	r1, [r7, #0]
ListItem_t * const pxIndex = pxList->pxIndex;
 80034a8:	687b      	ldr	r3, [r7, #4]
 80034aa:	685b      	ldr	r3, [r3, #4]
 80034ac:	60fb      	str	r3, [r7, #12]
	listTEST_LIST_ITEM_INTEGRITY( pxNewListItem );

	/* Insert a new list item into pxList, but rather than sort the list,
	makes the new list item the last item to be removed by a call to
	listGET_OWNER_OF_NEXT_ENTRY(). */
	pxNewListItem->pxNext = pxIndex;
 80034ae:	683b      	ldr	r3, [r7, #0]
 80034b0:	68fa      	ldr	r2, [r7, #12]
 80034b2:	605a      	str	r2, [r3, #4]
	pxNewListItem->pxPrevious = pxIndex->pxPrevious;
 80034b4:	68fb      	ldr	r3, [r7, #12]
 80034b6:	689a      	ldr	r2, [r3, #8]
 80034b8:	683b      	ldr	r3, [r7, #0]
 80034ba:	609a      	str	r2, [r3, #8]

	/* Only used during decision coverage testing. */
	mtCOVERAGE_TEST_DELAY();

	pxIndex->pxPrevious->pxNext = pxNewListItem;
 80034bc:	68fb      	ldr	r3, [r7, #12]
 80034be:	689b      	ldr	r3, [r3, #8]
 80034c0:	683a      	ldr	r2, [r7, #0]
 80034c2:	605a      	str	r2, [r3, #4]
	pxIndex->pxPrevious = pxNewListItem;
 80034c4:	68fb      	ldr	r3, [r7, #12]
 80034c6:	683a      	ldr	r2, [r7, #0]
 80034c8:	609a      	str	r2, [r3, #8]

	/* Remember which list the item is in. */
	pxNewListItem->pxContainer = pxList;
 80034ca:	683b      	ldr	r3, [r7, #0]
 80034cc:	687a      	ldr	r2, [r7, #4]
 80034ce:	611a      	str	r2, [r3, #16]

	( pxList->uxNumberOfItems )++;
 80034d0:	687b      	ldr	r3, [r7, #4]
 80034d2:	681b      	ldr	r3, [r3, #0]
 80034d4:	1c5a      	adds	r2, r3, #1
 80034d6:	687b      	ldr	r3, [r7, #4]
 80034d8:	601a      	str	r2, [r3, #0]
}
 80034da:	bf00      	nop
 80034dc:	3714      	adds	r7, #20
 80034de:	46bd      	mov	sp, r7
 80034e0:	f85d 7b04 	ldr.w	r7, [sp], #4
 80034e4:	4770      	bx	lr

080034e6 <vListInsert>:
/*-----------------------------------------------------------*/

void vListInsert( List_t * const pxList, ListItem_t * const pxNewListItem )
{
 80034e6:	b480      	push	{r7}
 80034e8:	b085      	sub	sp, #20
 80034ea:	af00      	add	r7, sp, #0
 80034ec:	6078      	str	r0, [r7, #4]
 80034ee:	6039      	str	r1, [r7, #0]
ListItem_t *pxIterator;
const TickType_t xValueOfInsertion = pxNewListItem->xItemValue;
 80034f0:	683b      	ldr	r3, [r7, #0]
 80034f2:	681b      	ldr	r3, [r3, #0]
 80034f4:	60bb      	str	r3, [r7, #8]
	new list item should be placed after it.  This ensures that TCBs which are
	stored in ready lists (all of which have the same xItemValue value) get a
	share of the CPU.  However, if the xItemValue is the same as the back marker
	the iteration loop below will not end.  Therefore the value is checked
	first, and the algorithm slightly modified if necessary. */
	if( xValueOfInsertion == portMAX_DELAY )
 80034f6:	68bb      	ldr	r3, [r7, #8]
 80034f8:	f1b3 3fff 	cmp.w	r3, #4294967295
 80034fc:	d103      	bne.n	8003506 <vListInsert+0x20>
	{
		pxIterator = pxList->xListEnd.pxPrevious;
 80034fe:	687b      	ldr	r3, [r7, #4]
 8003500:	691b      	ldr	r3, [r3, #16]
 8003502:	60fb      	str	r3, [r7, #12]
 8003504:	e00c      	b.n	8003520 <vListInsert+0x3a>
			4) Using a queue or semaphore before it has been initialised or
			   before the scheduler has been started (are interrupts firing
			   before vTaskStartScheduler() has been called?).
		**********************************************************************/

		for( pxIterator = ( ListItem_t * ) &( pxList->xListEnd ); pxIterator->pxNext->xItemValue <= xValueOfInsertion; pxIterator = pxIterator->pxNext ) /*lint !e826 !e740 !e9087 The mini list structure is used as the list end to save RAM.  This is checked and valid. *//*lint !e440 The iterator moves to a different value, not xValueOfInsertion. */
 8003506:	687b      	ldr	r3, [r7, #4]
 8003508:	3308      	adds	r3, #8
 800350a:	60fb      	str	r3, [r7, #12]
 800350c:	e002      	b.n	8003514 <vListInsert+0x2e>
 800350e:	68fb      	ldr	r3, [r7, #12]
 8003510:	685b      	ldr	r3, [r3, #4]
 8003512:	60fb      	str	r3, [r7, #12]
 8003514:	68fb      	ldr	r3, [r7, #12]
 8003516:	685b      	ldr	r3, [r3, #4]
 8003518:	681b      	ldr	r3, [r3, #0]
 800351a:	68ba      	ldr	r2, [r7, #8]
 800351c:	429a      	cmp	r2, r3
 800351e:	d2f6      	bcs.n	800350e <vListInsert+0x28>
			/* There is nothing to do here, just iterating to the wanted
			insertion position. */
		}
	}

	pxNewListItem->pxNext = pxIterator->pxNext;
 8003520:	68fb      	ldr	r3, [r7, #12]
 8003522:	685a      	ldr	r2, [r3, #4]
 8003524:	683b      	ldr	r3, [r7, #0]
 8003526:	605a      	str	r2, [r3, #4]
	pxNewListItem->pxNext->pxPrevious = pxNewListItem;
 8003528:	683b      	ldr	r3, [r7, #0]
 800352a:	685b      	ldr	r3, [r3, #4]
 800352c:	683a      	ldr	r2, [r7, #0]
 800352e:	609a      	str	r2, [r3, #8]
	pxNewListItem->pxPrevious = pxIterator;
 8003530:	683b      	ldr	r3, [r7, #0]
 8003532:	68fa      	ldr	r2, [r7, #12]
 8003534:	609a      	str	r2, [r3, #8]
	pxIterator->pxNext = pxNewListItem;
 8003536:	68fb      	ldr	r3, [r7, #12]
 8003538:	683a      	ldr	r2, [r7, #0]
 800353a:	605a      	str	r2, [r3, #4]

	/* Remember which list the item is in.  This allows fast removal of the
	item later. */
	pxNewListItem->pxContainer = pxList;
 800353c:	683b      	ldr	r3, [r7, #0]
 800353e:	687a      	ldr	r2, [r7, #4]
 8003540:	611a      	str	r2, [r3, #16]

	( pxList->uxNumberOfItems )++;
 8003542:	687b      	ldr	r3, [r7, #4]
 8003544:	681b      	ldr	r3, [r3, #0]
 8003546:	1c5a      	adds	r2, r3, #1
 8003548:	687b      	ldr	r3, [r7, #4]
 800354a:	601a      	str	r2, [r3, #0]
}
 800354c:	bf00      	nop
 800354e:	3714      	adds	r7, #20
 8003550:	46bd      	mov	sp, r7
 8003552:	f85d 7b04 	ldr.w	r7, [sp], #4
 8003556:	4770      	bx	lr

08003558 <uxListRemove>:
/*-----------------------------------------------------------*/

UBaseType_t uxListRemove( ListItem_t * const pxItemToRemove )
{
 8003558:	b480      	push	{r7}
 800355a:	b085      	sub	sp, #20
 800355c:	af00      	add	r7, sp, #0
 800355e:	6078      	str	r0, [r7, #4]
/* The list item knows which list it is in.  Obtain the list from the list
item. */
List_t * const pxList = pxItemToRemove->pxContainer;
 8003560:	687b      	ldr	r3, [r7, #4]
 8003562:	691b      	ldr	r3, [r3, #16]
 8003564:	60fb      	str	r3, [r7, #12]

	pxItemToRemove->pxNext->pxPrevious = pxItemToRemove->pxPrevious;
 8003566:	687b      	ldr	r3, [r7, #4]
 8003568:	685b      	ldr	r3, [r3, #4]
 800356a:	687a      	ldr	r2, [r7, #4]
 800356c:	6892      	ldr	r2, [r2, #8]
 800356e:	609a      	str	r2, [r3, #8]
	pxItemToRemove->pxPrevious->pxNext = pxItemToRemove->pxNext;
 8003570:	687b      	ldr	r3, [r7, #4]
 8003572:	689b      	ldr	r3, [r3, #8]
 8003574:	687a      	ldr	r2, [r7, #4]
 8003576:	6852      	ldr	r2, [r2, #4]
 8003578:	605a      	str	r2, [r3, #4]

	/* Only used during decision coverage testing. */
	mtCOVERAGE_TEST_DELAY();

	/* Make sure the index is left pointing to a valid item. */
	if( pxList->pxIndex == pxItemToRemove )
 800357a:	68fb      	ldr	r3, [r7, #12]
 800357c:	685b      	ldr	r3, [r3, #4]
 800357e:	687a      	ldr	r2, [r7, #4]
 8003580:	429a      	cmp	r2, r3
 8003582:	d103      	bne.n	800358c <uxListRemove+0x34>
	{
		pxList->pxIndex = pxItemToRemove->pxPrevious;
 8003584:	687b      	ldr	r3, [r7, #4]
 8003586:	689a      	ldr	r2, [r3, #8]
 8003588:	68fb      	ldr	r3, [r7, #12]
 800358a:	605a      	str	r2, [r3, #4]
	else
	{
		mtCOVERAGE_TEST_MARKER();
	}

	pxItemToRemove->pxContainer = NULL;
 800358c:	687b      	ldr	r3, [r7, #4]
 800358e:	2200      	movs	r2, #0
 8003590:	611a      	str	r2, [r3, #16]
	( pxList->uxNumberOfItems )--;
 8003592:	68fb      	ldr	r3, [r7, #12]
 8003594:	681b      	ldr	r3, [r3, #0]
 8003596:	1e5a      	subs	r2, r3, #1
 8003598:	68fb      	ldr	r3, [r7, #12]
 800359a:	601a      	str	r2, [r3, #0]

	return pxList->uxNumberOfItems;
 800359c:	68fb      	ldr	r3, [r7, #12]
 800359e:	681b      	ldr	r3, [r3, #0]
}
 80035a0:	4618      	mov	r0, r3
 80035a2:	3714      	adds	r7, #20
 80035a4:	46bd      	mov	sp, r7
 80035a6:	f85d 7b04 	ldr.w	r7, [sp], #4
 80035aa:	4770      	bx	lr

080035ac <xTaskCreateStatic>:
									const uint32_t ulStackDepth,
									void * const pvParameters,
									UBaseType_t uxPriority,
									StackType_t * const puxStackBuffer,
									StaticTask_t * const pxTaskBuffer )
	{
 80035ac:	b580      	push	{r7, lr}
 80035ae:	b08e      	sub	sp, #56	@ 0x38
 80035b0:	af04      	add	r7, sp, #16
 80035b2:	60f8      	str	r0, [r7, #12]
 80035b4:	60b9      	str	r1, [r7, #8]
 80035b6:	607a      	str	r2, [r7, #4]
 80035b8:	603b      	str	r3, [r7, #0]
	TCB_t *pxNewTCB;
	TaskHandle_t xReturn;

		configASSERT( puxStackBuffer != NULL );
 80035ba:	6b7b      	ldr	r3, [r7, #52]	@ 0x34
 80035bc:	2b00      	cmp	r3, #0
 80035be:	d10b      	bne.n	80035d8 <xTaskCreateStatic+0x2c>

portFORCE_INLINE static void vPortRaiseBASEPRI( void )
{
uint32_t ulNewBASEPRI;

	__asm volatile
 80035c0:	f04f 0350 	mov.w	r3, #80	@ 0x50
 80035c4:	f383 8811 	msr	BASEPRI, r3
 80035c8:	f3bf 8f6f 	isb	sy
 80035cc:	f3bf 8f4f 	dsb	sy
 80035d0:	623b      	str	r3, [r7, #32]
		"	msr basepri, %0											\n" \
		"	isb														\n" \
		"	dsb														\n" \
		:"=r" (ulNewBASEPRI) : "i" ( configMAX_SYSCALL_INTERRUPT_PRIORITY ) : "memory"
	);
}
 80035d2:	bf00      	nop
 80035d4:	bf00      	nop
 80035d6:	e7fd      	b.n	80035d4 <xTaskCreateStatic+0x28>
		configASSERT( pxTaskBuffer != NULL );
 80035d8:	6bbb      	ldr	r3, [r7, #56]	@ 0x38
 80035da:	2b00      	cmp	r3, #0
 80035dc:	d10b      	bne.n	80035f6 <xTaskCreateStatic+0x4a>
	__asm volatile
 80035de:	f04f 0350 	mov.w	r3, #80	@ 0x50
 80035e2:	f383 8811 	msr	BASEPRI, r3
 80035e6:	f3bf 8f6f 	isb	sy
 80035ea:	f3bf 8f4f 	dsb	sy
 80035ee:	61fb      	str	r3, [r7, #28]
}
 80035f0:	bf00      	nop
 80035f2:	bf00      	nop
 80035f4:	e7fd      	b.n	80035f2 <xTaskCreateStatic+0x46>
		#if( configASSERT_DEFINED == 1 )
		{
			/* Sanity check that the size of the structure used to declare a
			variable of type StaticTask_t equals the size of the real task
			structure. */
			volatile size_t xSize = sizeof( StaticTask_t );
 80035f6:	2354      	movs	r3, #84	@ 0x54
 80035f8:	613b      	str	r3, [r7, #16]
			configASSERT( xSize == sizeof( TCB_t ) );
 80035fa:	693b      	ldr	r3, [r7, #16]
 80035fc:	2b54      	cmp	r3, #84	@ 0x54
 80035fe:	d00b      	beq.n	8003618 <xTaskCreateStatic+0x6c>
	__asm volatile
 8003600:	f04f 0350 	mov.w	r3, #80	@ 0x50
 8003604:	f383 8811 	msr	BASEPRI, r3
 8003608:	f3bf 8f6f 	isb	sy
 800360c:	f3bf 8f4f 	dsb	sy
 8003610:	61bb      	str	r3, [r7, #24]
}
 8003612:	bf00      	nop
 8003614:	bf00      	nop
 8003616:	e7fd      	b.n	8003614 <xTaskCreateStatic+0x68>
			( void ) xSize; /* Prevent lint warning when configASSERT() is not used. */
 8003618:	693b      	ldr	r3, [r7, #16]
		}
		#endif /* configASSERT_DEFINED */


		if( ( pxTaskBuffer != NULL ) && ( puxStackBuffer != NULL ) )
 800361a:	6bbb      	ldr	r3, [r7, #56]	@ 0x38
 800361c:	2b00      	cmp	r3, #0
 800361e:	d01e      	beq.n	800365e <xTaskCreateStatic+0xb2>
 8003620:	6b7b      	ldr	r3, [r7, #52]	@ 0x34
 8003622:	2b00      	cmp	r3, #0
 8003624:	d01b      	beq.n	800365e <xTaskCreateStatic+0xb2>
		{
			/* The memory used for the task's TCB and stack are passed into this
			function - use them. */
			pxNewTCB = ( TCB_t * ) pxTaskBuffer; /*lint !e740 !e9087 Unusual cast is ok as the structures are designed to have the same alignment, and the size is checked by an assert. */
 8003626:	6bbb      	ldr	r3, [r7, #56]	@ 0x38
 8003628:	627b      	str	r3, [r7, #36]	@ 0x24
			pxNewTCB->pxStack = ( StackType_t * ) puxStackBuffer;
 800362a:	6a7b      	ldr	r3, [r7, #36]	@ 0x24
 800362c:	6b7a      	ldr	r2, [r7, #52]	@ 0x34
 800362e:	631a      	str	r2, [r3, #48]	@ 0x30

			#if( tskSTATIC_AND_DYNAMIC_ALLOCATION_POSSIBLE != 0 ) /*lint !e731 !e9029 Macro has been consolidated for readability reasons. */
			{
				/* Tasks can be created statically or dynamically, so note this
				task was created statically in case the task is later deleted. */
				pxNewTCB->ucStaticallyAllocated = tskSTATICALLY_ALLOCATED_STACK_AND_TCB;
 8003630:	6a7b      	ldr	r3, [r7, #36]	@ 0x24
 8003632:	2202      	movs	r2, #2
 8003634:	f883 2051 	strb.w	r2, [r3, #81]	@ 0x51
			}
			#endif /* tskSTATIC_AND_DYNAMIC_ALLOCATION_POSSIBLE */

			prvInitialiseNewTask( pxTaskCode, pcName, ulStackDepth, pvParameters, uxPriority, &xReturn, pxNewTCB, NULL );
 8003638:	2300      	movs	r3, #0
 800363a:	9303      	str	r3, [sp, #12]
 800363c:	6a7b      	ldr	r3, [r7, #36]	@ 0x24
 800363e:	9302      	str	r3, [sp, #8]
 8003640:	f107 0314 	add.w	r3, r7, #20
 8003644:	9301      	str	r3, [sp, #4]
 8003646:	6b3b      	ldr	r3, [r7, #48]	@ 0x30
 8003648:	9300      	str	r3, [sp, #0]
 800364a:	683b      	ldr	r3, [r7, #0]
 800364c:	687a      	ldr	r2, [r7, #4]
 800364e:	68b9      	ldr	r1, [r7, #8]
 8003650:	68f8      	ldr	r0, [r7, #12]
 8003652:	f000 f850 	bl	80036f6 <prvInitialiseNewTask>
			prvAddNewTaskToReadyList( pxNewTCB );
 8003656:	6a78      	ldr	r0, [r7, #36]	@ 0x24
 8003658:	f000 f8d6 	bl	8003808 <prvAddNewTaskToReadyList>
 800365c:	e001      	b.n	8003662 <xTaskCreateStatic+0xb6>
		}
		else
		{
			xReturn = NULL;
 800365e:	2300      	movs	r3, #0
 8003660:	617b      	str	r3, [r7, #20]
		}

		return xReturn;
 8003662:	697b      	ldr	r3, [r7, #20]
	}
 8003664:	4618      	mov	r0, r3
 8003666:	3728      	adds	r7, #40	@ 0x28
 8003668:	46bd      	mov	sp, r7
 800366a:	bd80      	pop	{r7, pc}

0800366c <xTaskCreate>:
							const char * const pcName,		/*lint !e971 Unqualified char types are allowed for strings and single characters only. */
							const configSTACK_DEPTH_TYPE usStackDepth,
							void * const pvParameters,
							UBaseType_t uxPriority,
							TaskHandle_t * const pxCreatedTask )
	{
 800366c:	b580      	push	{r7, lr}
 800366e:	b08c      	sub	sp, #48	@ 0x30
 8003670:	af04      	add	r7, sp, #16
 8003672:	60f8      	str	r0, [r7, #12]
 8003674:	60b9      	str	r1, [r7, #8]
 8003676:	603b      	str	r3, [r7, #0]
 8003678:	4613      	mov	r3, r2
 800367a:	80fb      	strh	r3, [r7, #6]
		#else /* portSTACK_GROWTH */
		{
		StackType_t *pxStack;

			/* Allocate space for the stack used by the task being created. */
			pxStack = pvPortMalloc( ( ( ( size_t ) usStackDepth ) * sizeof( StackType_t ) ) ); /*lint !e9079 All values returned by pvPortMalloc() have at least the alignment required by the MCU's stack and this allocation is the stack. */
 800367c:	88fb      	ldrh	r3, [r7, #6]
 800367e:	009b      	lsls	r3, r3, #2
 8003680:	4618      	mov	r0, r3
 8003682:	f000 ff01 	bl	8004488 <pvPortMalloc>
 8003686:	6178      	str	r0, [r7, #20]

			if( pxStack != NULL )
 8003688:	697b      	ldr	r3, [r7, #20]
 800368a:	2b00      	cmp	r3, #0
 800368c:	d00e      	beq.n	80036ac <xTaskCreate+0x40>
			{
				/* Allocate space for the TCB. */
				pxNewTCB = ( TCB_t * ) pvPortMalloc( sizeof( TCB_t ) ); /*lint !e9087 !e9079 All values returned by pvPortMalloc() have at least the alignment required by the MCU's stack, and the first member of TCB_t is always a pointer to the task's stack. */
 800368e:	2054      	movs	r0, #84	@ 0x54
 8003690:	f000 fefa 	bl	8004488 <pvPortMalloc>
 8003694:	61f8      	str	r0, [r7, #28]

				if( pxNewTCB != NULL )
 8003696:	69fb      	ldr	r3, [r7, #28]
 8003698:	2b00      	cmp	r3, #0
 800369a:	d003      	beq.n	80036a4 <xTaskCreate+0x38>
				{
					/* Store the stack location in the TCB. */
					pxNewTCB->pxStack = pxStack;
 800369c:	69fb      	ldr	r3, [r7, #28]
 800369e:	697a      	ldr	r2, [r7, #20]
 80036a0:	631a      	str	r2, [r3, #48]	@ 0x30
 80036a2:	e005      	b.n	80036b0 <xTaskCreate+0x44>
				}
				else
				{
					/* The stack cannot be used as the TCB was not created.  Free
					it again. */
					vPortFree( pxStack );
 80036a4:	6978      	ldr	r0, [r7, #20]
 80036a6:	f000 ffbd 	bl	8004624 <vPortFree>
 80036aa:	e001      	b.n	80036b0 <xTaskCreate+0x44>
				}
			}
			else
			{
				pxNewTCB = NULL;
 80036ac:	2300      	movs	r3, #0
 80036ae:	61fb      	str	r3, [r7, #28]
			}
		}
		#endif /* portSTACK_GROWTH */

		if( pxNewTCB != NULL )
 80036b0:	69fb      	ldr	r3, [r7, #28]
 80036b2:	2b00      	cmp	r3, #0
 80036b4:	d017      	beq.n	80036e6 <xTaskCreate+0x7a>
		{
			#if( tskSTATIC_AND_DYNAMIC_ALLOCATION_POSSIBLE != 0 ) /*lint !e9029 !e731 Macro has been consolidated for readability reasons. */
			{
				/* Tasks can be created statically or dynamically, so note this
				task was created dynamically in case it is later deleted. */
				pxNewTCB->ucStaticallyAllocated = tskDYNAMICALLY_ALLOCATED_STACK_AND_TCB;
 80036b6:	69fb      	ldr	r3, [r7, #28]
 80036b8:	2200      	movs	r2, #0
 80036ba:	f883 2051 	strb.w	r2, [r3, #81]	@ 0x51
			}
			#endif /* tskSTATIC_AND_DYNAMIC_ALLOCATION_POSSIBLE */

			prvInitialiseNewTask( pxTaskCode, pcName, ( uint32_t ) usStackDepth, pvParameters, uxPriority, pxCreatedTask, pxNewTCB, NULL );
 80036be:	88fa      	ldrh	r2, [r7, #6]
 80036c0:	2300      	movs	r3, #0
 80036c2:	9303      	str	r3, [sp, #12]
 80036c4:	69fb      	ldr	r3, [r7, #28]
 80036c6:	9302      	str	r3, [sp, #8]
 80036c8:	6afb      	ldr	r3, [r7, #44]	@ 0x2c
 80036ca:	9301      	str	r3, [sp, #4]
 80036cc:	6abb      	ldr	r3, [r7, #40]	@ 0x28
 80036ce:	9300      	str	r3, [sp, #0]
 80036d0:	683b      	ldr	r3, [r7, #0]
 80036d2:	68b9      	ldr	r1, [r7, #8]
 80036d4:	68f8      	ldr	r0, [r7, #12]
 80036d6:	f000 f80e 	bl	80036f6 <prvInitialiseNewTask>
			prvAddNewTaskToReadyList( pxNewTCB );
 80036da:	69f8      	ldr	r0, [r7, #28]
 80036dc:	f000 f894 	bl	8003808 <prvAddNewTaskToReadyList>
			xReturn = pdPASS;
 80036e0:	2301      	movs	r3, #1
 80036e2:	61bb      	str	r3, [r7, #24]
 80036e4:	e002      	b.n	80036ec <xTaskCreate+0x80>
		}
		else
		{
			xReturn = errCOULD_NOT_ALLOCATE_REQUIRED_MEMORY;
 80036e6:	f04f 33ff 	mov.w	r3, #4294967295
 80036ea:	61bb      	str	r3, [r7, #24]
		}

		return xReturn;
 80036ec:	69bb      	ldr	r3, [r7, #24]
	}
 80036ee:	4618      	mov	r0, r3
 80036f0:	3720      	adds	r7, #32
 80036f2:	46bd      	mov	sp, r7
 80036f4:	bd80      	pop	{r7, pc}

080036f6 <prvInitialiseNewTask>:
									void * const pvParameters,
									UBaseType_t uxPriority,
									TaskHandle_t * const pxCreatedTask,
									TCB_t *pxNewTCB,
									const MemoryRegion_t * const xRegions )
{
 80036f6:	b580      	push	{r7, lr}
 80036f8:	b088      	sub	sp, #32
 80036fa:	af00      	add	r7, sp, #0
 80036fc:	60f8      	str	r0, [r7, #12]
 80036fe:	60b9      	str	r1, [r7, #8]
 8003700:	607a      	str	r2, [r7, #4]
 8003702:	603b      	str	r3, [r7, #0]
	grows from high memory to low (as per the 80x86) or vice versa.
	portSTACK_GROWTH is used to make the result positive or negative as required
	by the port. */
	#if( portSTACK_GROWTH < 0 )
	{
		pxTopOfStack = &( pxNewTCB->pxStack[ ulStackDepth - ( uint32_t ) 1 ] );
 8003704:	6b3b      	ldr	r3, [r7, #48]	@ 0x30
 8003706:	6b1a      	ldr	r2, [r3, #48]	@ 0x30
 8003708:	687b      	ldr	r3, [r7, #4]
 800370a:	f103 4380 	add.w	r3, r3, #1073741824	@ 0x40000000
 800370e:	3b01      	subs	r3, #1
 8003710:	009b      	lsls	r3, r3, #2
 8003712:	4413      	add	r3, r2
 8003714:	61bb      	str	r3, [r7, #24]
		pxTopOfStack = ( StackType_t * ) ( ( ( portPOINTER_SIZE_TYPE ) pxTopOfStack ) & ( ~( ( portPOINTER_SIZE_TYPE ) portBYTE_ALIGNMENT_MASK ) ) ); /*lint !e923 !e9033 !e9078 MISRA exception.  Avoiding casts between pointers and integers is not practical.  Size differences accounted for using portPOINTER_SIZE_TYPE type.  Checked by assert(). */
 8003716:	69bb      	ldr	r3, [r7, #24]
 8003718:	f023 0307 	bic.w	r3, r3, #7
 800371c:	61bb      	str	r3, [r7, #24]

		/* Check the alignment of the calculated top of stack is correct. */
		configASSERT( ( ( ( portPOINTER_SIZE_TYPE ) pxTopOfStack & ( portPOINTER_SIZE_TYPE ) portBYTE_ALIGNMENT_MASK ) == 0UL ) );
 800371e:	69bb      	ldr	r3, [r7, #24]
 8003720:	f003 0307 	and.w	r3, r3, #7
 8003724:	2b00      	cmp	r3, #0
 8003726:	d00b      	beq.n	8003740 <prvInitialiseNewTask+0x4a>
	__asm volatile
 8003728:	f04f 0350 	mov.w	r3, #80	@ 0x50
 800372c:	f383 8811 	msr	BASEPRI, r3
 8003730:	f3bf 8f6f 	isb	sy
 8003734:	f3bf 8f4f 	dsb	sy
 8003738:	617b      	str	r3, [r7, #20]
}
 800373a:	bf00      	nop
 800373c:	bf00      	nop
 800373e:	e7fd      	b.n	800373c <prvInitialiseNewTask+0x46>
		pxNewTCB->pxEndOfStack = pxNewTCB->pxStack + ( ulStackDepth - ( uint32_t ) 1 );
	}
	#endif /* portSTACK_GROWTH */

	/* Store the task name in the TCB. */
	if( pcName != NULL )
 8003740:	68bb      	ldr	r3, [r7, #8]
 8003742:	2b00      	cmp	r3, #0
 8003744:	d01f      	beq.n	8003786 <prvInitialiseNewTask+0x90>
	{
		for( x = ( UBaseType_t ) 0; x < ( UBaseType_t ) configMAX_TASK_NAME_LEN; x++ )
 8003746:	2300      	movs	r3, #0
 8003748:	61fb      	str	r3, [r7, #28]
 800374a:	e012      	b.n	8003772 <prvInitialiseNewTask+0x7c>
		{
			pxNewTCB->pcTaskName[ x ] = pcName[ x ];
 800374c:	68ba      	ldr	r2, [r7, #8]
 800374e:	69fb      	ldr	r3, [r7, #28]
 8003750:	4413      	add	r3, r2
 8003752:	7819      	ldrb	r1, [r3, #0]
 8003754:	6b3a      	ldr	r2, [r7, #48]	@ 0x30
 8003756:	69fb      	ldr	r3, [r7, #28]
 8003758:	4413      	add	r3, r2
 800375a:	3334      	adds	r3, #52	@ 0x34
 800375c:	460a      	mov	r2, r1
 800375e:	701a      	strb	r2, [r3, #0]

			/* Don't copy all configMAX_TASK_NAME_LEN if the string is shorter than
			configMAX_TASK_NAME_LEN characters just in case the memory after the
			string is not accessible (extremely unlikely). */
			if( pcName[ x ] == ( char ) 0x00 )
 8003760:	68ba      	ldr	r2, [r7, #8]
 8003762:	69fb      	ldr	r3, [r7, #28]
 8003764:	4413      	add	r3, r2
 8003766:	781b      	ldrb	r3, [r3, #0]
 8003768:	2b00      	cmp	r3, #0
 800376a:	d006      	beq.n	800377a <prvInitialiseNewTask+0x84>
		for( x = ( UBaseType_t ) 0; x < ( UBaseType_t ) configMAX_TASK_NAME_LEN; x++ )
 800376c:	69fb      	ldr	r3, [r7, #28]
 800376e:	3301      	adds	r3, #1
 8003770:	61fb      	str	r3, [r7, #28]
 8003772:	69fb      	ldr	r3, [r7, #28]
 8003774:	2b0f      	cmp	r3, #15
 8003776:	d9e9      	bls.n	800374c <prvInitialiseNewTask+0x56>
 8003778:	e000      	b.n	800377c <prvInitialiseNewTask+0x86>
			{
				break;
 800377a:	bf00      	nop
			}
		}

		/* Ensure the name string is terminated in the case that the string length
		was greater or equal to configMAX_TASK_NAME_LEN. */
		pxNewTCB->pcTaskName[ configMAX_TASK_NAME_LEN - 1 ] = '\0';
 800377c:	6b3b      	ldr	r3, [r7, #48]	@ 0x30
 800377e:	2200      	movs	r2, #0
 8003780:	f883 2043 	strb.w	r2, [r3, #67]	@ 0x43
 8003784:	e003      	b.n	800378e <prvInitialiseNewTask+0x98>
	}
	else
	{
		/* The task has not been given a name, so just ensure there is a NULL
		terminator when it is read out. */
		pxNewTCB->pcTaskName[ 0 ] = 0x00;
 8003786:	6b3b      	ldr	r3, [r7, #48]	@ 0x30
 8003788:	2200      	movs	r2, #0
 800378a:	f883 2034 	strb.w	r2, [r3, #52]	@ 0x34
	}

	/* This is used as an array index so must ensure it's not too large.  First
	remove the privilege bit if one is present. */
	if( uxPriority >= ( UBaseType_t ) configMAX_PRIORITIES )
 800378e:	6abb      	ldr	r3, [r7, #40]	@ 0x28
 8003790:	2b06      	cmp	r3, #6
 8003792:	d901      	bls.n	8003798 <prvInitialiseNewTask+0xa2>
	{
		uxPriority = ( UBaseType_t ) configMAX_PRIORITIES - ( UBaseType_t ) 1U;
 8003794:	2306      	movs	r3, #6
 8003796:	62bb      	str	r3, [r7, #40]	@ 0x28
	else
	{
		mtCOVERAGE_TEST_MARKER();
	}

	pxNewTCB->uxPriority = uxPriority;
 8003798:	6b3b      	ldr	r3, [r7, #48]	@ 0x30
 800379a:	6aba      	ldr	r2, [r7, #40]	@ 0x28
 800379c:	62da      	str	r2, [r3, #44]	@ 0x2c
	#if ( configUSE_MUTEXES == 1 )
	{
		pxNewTCB->uxBasePriority = uxPriority;
 800379e:	6b3b      	ldr	r3, [r7, #48]	@ 0x30
 80037a0:	6aba      	ldr	r2, [r7, #40]	@ 0x28
 80037a2:	645a      	str	r2, [r3, #68]	@ 0x44
		pxNewTCB->uxMutexesHeld = 0;
 80037a4:	6b3b      	ldr	r3, [r7, #48]	@ 0x30
 80037a6:	2200      	movs	r2, #0
 80037a8:	649a      	str	r2, [r3, #72]	@ 0x48
	}
	#endif /* configUSE_MUTEXES */

	vListInitialiseItem( &( pxNewTCB->xStateListItem ) );
 80037aa:	6b3b      	ldr	r3, [r7, #48]	@ 0x30
 80037ac:	3304      	adds	r3, #4
 80037ae:	4618      	mov	r0, r3
 80037b0:	f7ff fe68 	bl	8003484 <vListInitialiseItem>
	vListInitialiseItem( &( pxNewTCB->xEventListItem ) );
 80037b4:	6b3b      	ldr	r3, [r7, #48]	@ 0x30
 80037b6:	3318      	adds	r3, #24
 80037b8:	4618      	mov	r0, r3
 80037ba:	f7ff fe63 	bl	8003484 <vListInitialiseItem>

	/* Set the pxNewTCB as a link back from the ListItem_t.  This is so we can get
	back to	the containing TCB from a generic item in a list. */
	listSET_LIST_ITEM_OWNER( &( pxNewTCB->xStateListItem ), pxNewTCB );
 80037be:	6b3b      	ldr	r3, [r7, #48]	@ 0x30
 80037c0:	6b3a      	ldr	r2, [r7, #48]	@ 0x30
 80037c2:	611a      	str	r2, [r3, #16]

	/* Event lists are always in priority order. */
	listSET_LIST_ITEM_VALUE( &( pxNewTCB->xEventListItem ), ( TickType_t ) configMAX_PRIORITIES - ( TickType_t ) uxPriority ); /*lint !e961 MISRA exception as the casts are only redundant for some ports. */
 80037c4:	6abb      	ldr	r3, [r7, #40]	@ 0x28
 80037c6:	f1c3 0207 	rsb	r2, r3, #7
 80037ca:	6b3b      	ldr	r3, [r7, #48]	@ 0x30
 80037cc:	619a      	str	r2, [r3, #24]
	listSET_LIST_ITEM_OWNER( &( pxNewTCB->xEventListItem ), pxNewTCB );
 80037ce:	6b3b      	ldr	r3, [r7, #48]	@ 0x30
 80037d0:	6b3a      	ldr	r2, [r7, #48]	@ 0x30
 80037d2:	625a      	str	r2, [r3, #36]	@ 0x24
	}
	#endif

	#if ( configUSE_TASK_NOTIFICATIONS == 1 )
	{
		pxNewTCB->ulNotifiedValue = 0;
 80037d4:	6b3b      	ldr	r3, [r7, #48]	@ 0x30
 80037d6:	2200      	movs	r2, #0
 80037d8:	64da      	str	r2, [r3, #76]	@ 0x4c
		pxNewTCB->ucNotifyState = taskNOT_WAITING_NOTIFICATION;
 80037da:	6b3b      	ldr	r3, [r7, #48]	@ 0x30
 80037dc:	2200      	movs	r2, #0
 80037de:	f883 2050 	strb.w	r2, [r3, #80]	@ 0x50
			}
			#endif /* portSTACK_GROWTH */
		}
		#else /* portHAS_STACK_OVERFLOW_CHECKING */
		{
			pxNewTCB->pxTopOfStack = pxPortInitialiseStack( pxTopOfStack, pxTaskCode, pvParameters );
 80037e2:	683a      	ldr	r2, [r7, #0]
 80037e4:	68f9      	ldr	r1, [r7, #12]
 80037e6:	69b8      	ldr	r0, [r7, #24]
 80037e8:	f000 fc3c 	bl	8004064 <pxPortInitialiseStack>
 80037ec:	4602      	mov	r2, r0
 80037ee:	6b3b      	ldr	r3, [r7, #48]	@ 0x30
 80037f0:	601a      	str	r2, [r3, #0]
		}
		#endif /* portHAS_STACK_OVERFLOW_CHECKING */
	}
	#endif /* portUSING_MPU_WRAPPERS */

	if( pxCreatedTask != NULL )
 80037f2:	6afb      	ldr	r3, [r7, #44]	@ 0x2c
 80037f4:	2b00      	cmp	r3, #0
 80037f6:	d002      	beq.n	80037fe <prvInitialiseNewTask+0x108>
	{
		/* Pass the handle out in an anonymous way.  The handle can be used to
		change the created task's priority, delete the created task, etc.*/
		*pxCreatedTask = ( TaskHandle_t ) pxNewTCB;
 80037f8:	6afb      	ldr	r3, [r7, #44]	@ 0x2c
 80037fa:	6b3a      	ldr	r2, [r7, #48]	@ 0x30
 80037fc:	601a      	str	r2, [r3, #0]
	}
	else
	{
		mtCOVERAGE_TEST_MARKER();
	}
}
 80037fe:	bf00      	nop
 8003800:	3720      	adds	r7, #32
 8003802:	46bd      	mov	sp, r7
 8003804:	bd80      	pop	{r7, pc}
	...

08003808 <prvAddNewTaskToReadyList>:
/*-----------------------------------------------------------*/

static void prvAddNewTaskToReadyList( TCB_t *pxNewTCB )
{
 8003808:	b580      	push	{r7, lr}
 800380a:	b082      	sub	sp, #8
 800380c:	af00      	add	r7, sp, #0
 800380e:	6078      	str	r0, [r7, #4]
	/* Ensure interrupts don't access the task lists while the lists are being
	updated. */
	taskENTER_CRITICAL();
 8003810:	f000 fd5a 	bl	80042c8 <vPortEnterCritical>
	{
		uxCurrentNumberOfTasks++;
 8003814:	4b2a      	ldr	r3, [pc, #168]	@ (80038c0 <prvAddNewTaskToReadyList+0xb8>)
 8003816:	681b      	ldr	r3, [r3, #0]
 8003818:	3301      	adds	r3, #1
 800381a:	4a29      	ldr	r2, [pc, #164]	@ (80038c0 <prvAddNewTaskToReadyList+0xb8>)
 800381c:	6013      	str	r3, [r2, #0]
		if( pxCurrentTCB == NULL )
 800381e:	4b29      	ldr	r3, [pc, #164]	@ (80038c4 <prvAddNewTaskToReadyList+0xbc>)
 8003820:	681b      	ldr	r3, [r3, #0]
 8003822:	2b00      	cmp	r3, #0
 8003824:	d109      	bne.n	800383a <prvAddNewTaskToReadyList+0x32>
		{
			/* There are no other tasks, or all the other tasks are in
			the suspended state - make this the current task. */
			pxCurrentTCB = pxNewTCB;
 8003826:	4a27      	ldr	r2, [pc, #156]	@ (80038c4 <prvAddNewTaskToReadyList+0xbc>)
 8003828:	687b      	ldr	r3, [r7, #4]
 800382a:	6013      	str	r3, [r2, #0]

			if( uxCurrentNumberOfTasks == ( UBaseType_t ) 1 )
 800382c:	4b24      	ldr	r3, [pc, #144]	@ (80038c0 <prvAddNewTaskToReadyList+0xb8>)
 800382e:	681b      	ldr	r3, [r3, #0]
 8003830:	2b01      	cmp	r3, #1
 8003832:	d110      	bne.n	8003856 <prvAddNewTaskToReadyList+0x4e>
			{
				/* This is the first task to be created so do the preliminary
				initialisation required.  We will not recover if this call
				fails, but we will report the failure. */
				prvInitialiseTaskLists();
 8003834:	f000 fad4 	bl	8003de0 <prvInitialiseTaskLists>
 8003838:	e00d      	b.n	8003856 <prvAddNewTaskToReadyList+0x4e>
		else
		{
			/* If the scheduler is not already running, make this task the
			current task if it is the highest priority task to be created
			so far. */
			if( xSchedulerRunning == pdFALSE )
 800383a:	4b23      	ldr	r3, [pc, #140]	@ (80038c8 <prvAddNewTaskToReadyList+0xc0>)
 800383c:	681b      	ldr	r3, [r3, #0]
 800383e:	2b00      	cmp	r3, #0
 8003840:	d109      	bne.n	8003856 <prvAddNewTaskToReadyList+0x4e>
			{
				if( pxCurrentTCB->uxPriority <= pxNewTCB->uxPriority )
 8003842:	4b20      	ldr	r3, [pc, #128]	@ (80038c4 <prvAddNewTaskToReadyList+0xbc>)
 8003844:	681b      	ldr	r3, [r3, #0]
 8003846:	6ada      	ldr	r2, [r3, #44]	@ 0x2c
 8003848:	687b      	ldr	r3, [r7, #4]
 800384a:	6adb      	ldr	r3, [r3, #44]	@ 0x2c
 800384c:	429a      	cmp	r2, r3
 800384e:	d802      	bhi.n	8003856 <prvAddNewTaskToReadyList+0x4e>
				{
					pxCurrentTCB = pxNewTCB;
 8003850:	4a1c      	ldr	r2, [pc, #112]	@ (80038c4 <prvAddNewTaskToReadyList+0xbc>)
 8003852:	687b      	ldr	r3, [r7, #4]
 8003854:	6013      	str	r3, [r2, #0]
			{
				mtCOVERAGE_TEST_MARKER();
			}
		}

		uxTaskNumber++;
 8003856:	4b1d      	ldr	r3, [pc, #116]	@ (80038cc <prvAddNewTaskToReadyList+0xc4>)
 8003858:	681b      	ldr	r3, [r3, #0]
 800385a:	3301      	adds	r3, #1
 800385c:	4a1b      	ldr	r2, [pc, #108]	@ (80038cc <prvAddNewTaskToReadyList+0xc4>)
 800385e:	6013      	str	r3, [r2, #0]
			pxNewTCB->uxTCBNumber = uxTaskNumber;
		}
		#endif /* configUSE_TRACE_FACILITY */
		traceTASK_CREATE( pxNewTCB );

		prvAddTaskToReadyList( pxNewTCB );
 8003860:	687b      	ldr	r3, [r7, #4]
 8003862:	6adb      	ldr	r3, [r3, #44]	@ 0x2c
 8003864:	2201      	movs	r2, #1
 8003866:	409a      	lsls	r2, r3
 8003868:	4b19      	ldr	r3, [pc, #100]	@ (80038d0 <prvAddNewTaskToReadyList+0xc8>)
 800386a:	681b      	ldr	r3, [r3, #0]
 800386c:	4313      	orrs	r3, r2
 800386e:	4a18      	ldr	r2, [pc, #96]	@ (80038d0 <prvAddNewTaskToReadyList+0xc8>)
 8003870:	6013      	str	r3, [r2, #0]
 8003872:	687b      	ldr	r3, [r7, #4]
 8003874:	6ada      	ldr	r2, [r3, #44]	@ 0x2c
 8003876:	4613      	mov	r3, r2
 8003878:	009b      	lsls	r3, r3, #2
 800387a:	4413      	add	r3, r2
 800387c:	009b      	lsls	r3, r3, #2
 800387e:	4a15      	ldr	r2, [pc, #84]	@ (80038d4 <prvAddNewTaskToReadyList+0xcc>)
 8003880:	441a      	add	r2, r3
 8003882:	687b      	ldr	r3, [r7, #4]
 8003884:	3304      	adds	r3, #4
 8003886:	4619      	mov	r1, r3
 8003888:	4610      	mov	r0, r2
 800388a:	f7ff fe08 	bl	800349e <vListInsertEnd>

		portSETUP_TCB( pxNewTCB );
	}
	taskEXIT_CRITICAL();
 800388e:	f000 fd4d 	bl	800432c <vPortExitCritical>

	if( xSchedulerRunning != pdFALSE )
 8003892:	4b0d      	ldr	r3, [pc, #52]	@ (80038c8 <prvAddNewTaskToReadyList+0xc0>)
 8003894:	681b      	ldr	r3, [r3, #0]
 8003896:	2b00      	cmp	r3, #0
 8003898:	d00e      	beq.n	80038b8 <prvAddNewTaskToReadyList+0xb0>
	{
		/* If the created task is of a higher priority than the current task
		then it should run now. */
		if( pxCurrentTCB->uxPriority < pxNewTCB->uxPriority )
 800389a:	4b0a      	ldr	r3, [pc, #40]	@ (80038c4 <prvAddNewTaskToReadyList+0xbc>)
 800389c:	681b      	ldr	r3, [r3, #0]
 800389e:	6ada      	ldr	r2, [r3, #44]	@ 0x2c
 80038a0:	687b      	ldr	r3, [r7, #4]
 80038a2:	6adb      	ldr	r3, [r3, #44]	@ 0x2c
 80038a4:	429a      	cmp	r2, r3
 80038a6:	d207      	bcs.n	80038b8 <prvAddNewTaskToReadyList+0xb0>
		{
			taskYIELD_IF_USING_PREEMPTION();
 80038a8:	4b0b      	ldr	r3, [pc, #44]	@ (80038d8 <prvAddNewTaskToReadyList+0xd0>)
 80038aa:	f04f 5280 	mov.w	r2, #268435456	@ 0x10000000
 80038ae:	601a      	str	r2, [r3, #0]
 80038b0:	f3bf 8f4f 	dsb	sy
 80038b4:	f3bf 8f6f 	isb	sy
	}
	else
	{
		mtCOVERAGE_TEST_MARKER();
	}
}
 80038b8:	bf00      	nop
 80038ba:	3708      	adds	r7, #8
 80038bc:	46bd      	mov	sp, r7
 80038be:	bd80      	pop	{r7, pc}
 80038c0:	20000464 	.word	0x20000464
 80038c4:	20000364 	.word	0x20000364
 80038c8:	20000470 	.word	0x20000470
 80038cc:	20000480 	.word	0x20000480
 80038d0:	2000046c 	.word	0x2000046c
 80038d4:	20000368 	.word	0x20000368
 80038d8:	e000ed04 	.word	0xe000ed04

080038dc <vTaskDelay>:
/*-----------------------------------------------------------*/

#if ( INCLUDE_vTaskDelay == 1 )

	void vTaskDelay( const TickType_t xTicksToDelay )
	{
 80038dc:	b580      	push	{r7, lr}
 80038de:	b084      	sub	sp, #16
 80038e0:	af00      	add	r7, sp, #0
 80038e2:	6078      	str	r0, [r7, #4]
	BaseType_t xAlreadyYielded = pdFALSE;
 80038e4:	2300      	movs	r3, #0
 80038e6:	60fb      	str	r3, [r7, #12]

		/* A delay time of zero just forces a reschedule. */
		if( xTicksToDelay > ( TickType_t ) 0U )
 80038e8:	687b      	ldr	r3, [r7, #4]
 80038ea:	2b00      	cmp	r3, #0
 80038ec:	d018      	beq.n	8003920 <vTaskDelay+0x44>
		{
			configASSERT( uxSchedulerSuspended == 0 );
 80038ee:	4b14      	ldr	r3, [pc, #80]	@ (8003940 <vTaskDelay+0x64>)
 80038f0:	681b      	ldr	r3, [r3, #0]
 80038f2:	2b00      	cmp	r3, #0
 80038f4:	d00b      	beq.n	800390e <vTaskDelay+0x32>
	__asm volatile
 80038f6:	f04f 0350 	mov.w	r3, #80	@ 0x50
 80038fa:	f383 8811 	msr	BASEPRI, r3
 80038fe:	f3bf 8f6f 	isb	sy
 8003902:	f3bf 8f4f 	dsb	sy
 8003906:	60bb      	str	r3, [r7, #8]
}
 8003908:	bf00      	nop
 800390a:	bf00      	nop
 800390c:	e7fd      	b.n	800390a <vTaskDelay+0x2e>
			vTaskSuspendAll();
 800390e:	f000 f87d 	bl	8003a0c <vTaskSuspendAll>
				list or removed from the blocked list until the scheduler
				is resumed.

				This task cannot be in an event list as it is the currently
				executing task. */
				prvAddCurrentTaskToDelayedList( xTicksToDelay, pdFALSE );
 8003912:	2100      	movs	r1, #0
 8003914:	6878      	ldr	r0, [r7, #4]
 8003916:	f000 fb3f 	bl	8003f98 <prvAddCurrentTaskToDelayedList>
			}
			xAlreadyYielded = xTaskResumeAll();
 800391a:	f000 f885 	bl	8003a28 <xTaskResumeAll>
 800391e:	60f8      	str	r0, [r7, #12]
			mtCOVERAGE_TEST_MARKER();
		}

		/* Force a reschedule if xTaskResumeAll has not already done so, we may
		have put ourselves to sleep. */
		if( xAlreadyYielded == pdFALSE )
 8003920:	68fb      	ldr	r3, [r7, #12]
 8003922:	2b00      	cmp	r3, #0
 8003924:	d107      	bne.n	8003936 <vTaskDelay+0x5a>
		{
			portYIELD_WITHIN_API();
 8003926:	4b07      	ldr	r3, [pc, #28]	@ (8003944 <vTaskDelay+0x68>)
 8003928:	f04f 5280 	mov.w	r2, #268435456	@ 0x10000000
 800392c:	601a      	str	r2, [r3, #0]
 800392e:	f3bf 8f4f 	dsb	sy
 8003932:	f3bf 8f6f 	isb	sy
		}
		else
		{
			mtCOVERAGE_TEST_MARKER();
		}
	}
 8003936:	bf00      	nop
 8003938:	3710      	adds	r7, #16
 800393a:	46bd      	mov	sp, r7
 800393c:	bd80      	pop	{r7, pc}
 800393e:	bf00      	nop
 8003940:	2000048c 	.word	0x2000048c
 8003944:	e000ed04 	.word	0xe000ed04

08003948 <vTaskStartScheduler>:

#endif /* ( ( INCLUDE_xTaskResumeFromISR == 1 ) && ( INCLUDE_vTaskSuspend == 1 ) ) */
/*-----------------------------------------------------------*/

void vTaskStartScheduler( void )
{
 8003948:	b580      	push	{r7, lr}
 800394a:	b08a      	sub	sp, #40	@ 0x28
 800394c:	af04      	add	r7, sp, #16
BaseType_t xReturn;

	/* Add the idle task at the lowest priority. */
	#if( configSUPPORT_STATIC_ALLOCATION == 1 )
	{
		StaticTask_t *pxIdleTaskTCBBuffer = NULL;
 800394e:	2300      	movs	r3, #0
 8003950:	60bb      	str	r3, [r7, #8]
		StackType_t *pxIdleTaskStackBuffer = NULL;
 8003952:	2300      	movs	r3, #0
 8003954:	607b      	str	r3, [r7, #4]
		uint32_t ulIdleTaskStackSize;

		/* The Idle task is created using user provided RAM - obtain the
		address of the RAM then create the idle task. */
		vApplicationGetIdleTaskMemory( &pxIdleTaskTCBBuffer, &pxIdleTaskStackBuffer, &ulIdleTaskStackSize );
 8003956:	463a      	mov	r2, r7
 8003958:	1d39      	adds	r1, r7, #4
 800395a:	f107 0308 	add.w	r3, r7, #8
 800395e:	4618      	mov	r0, r3
 8003960:	f7fc fe24 	bl	80005ac <vApplicationGetIdleTaskMemory>
		xIdleTaskHandle = xTaskCreateStatic(	prvIdleTask,
 8003964:	6839      	ldr	r1, [r7, #0]
 8003966:	687b      	ldr	r3, [r7, #4]
 8003968:	68ba      	ldr	r2, [r7, #8]
 800396a:	9202      	str	r2, [sp, #8]
 800396c:	9301      	str	r3, [sp, #4]
 800396e:	2300      	movs	r3, #0
 8003970:	9300      	str	r3, [sp, #0]
 8003972:	2300      	movs	r3, #0
 8003974:	460a      	mov	r2, r1
 8003976:	491f      	ldr	r1, [pc, #124]	@ (80039f4 <vTaskStartScheduler+0xac>)
 8003978:	481f      	ldr	r0, [pc, #124]	@ (80039f8 <vTaskStartScheduler+0xb0>)
 800397a:	f7ff fe17 	bl	80035ac <xTaskCreateStatic>
 800397e:	4603      	mov	r3, r0
 8003980:	4a1e      	ldr	r2, [pc, #120]	@ (80039fc <vTaskStartScheduler+0xb4>)
 8003982:	6013      	str	r3, [r2, #0]
												( void * ) NULL, /*lint !e961.  The cast is not redundant for all compilers. */
												portPRIVILEGE_BIT, /* In effect ( tskIDLE_PRIORITY | portPRIVILEGE_BIT ), but tskIDLE_PRIORITY is zero. */
												pxIdleTaskStackBuffer,
												pxIdleTaskTCBBuffer ); /*lint !e961 MISRA exception, justified as it is not a redundant explicit cast to all supported compilers. */

		if( xIdleTaskHandle != NULL )
 8003984:	4b1d      	ldr	r3, [pc, #116]	@ (80039fc <vTaskStartScheduler+0xb4>)
 8003986:	681b      	ldr	r3, [r3, #0]
 8003988:	2b00      	cmp	r3, #0
 800398a:	d002      	beq.n	8003992 <vTaskStartScheduler+0x4a>
		{
			xReturn = pdPASS;
 800398c:	2301      	movs	r3, #1
 800398e:	617b      	str	r3, [r7, #20]
 8003990:	e001      	b.n	8003996 <vTaskStartScheduler+0x4e>
		}
		else
		{
			xReturn = pdFAIL;
 8003992:	2300      	movs	r3, #0
 8003994:	617b      	str	r3, [r7, #20]
			mtCOVERAGE_TEST_MARKER();
		}
	}
	#endif /* configUSE_TIMERS */

	if( xReturn == pdPASS )
 8003996:	697b      	ldr	r3, [r7, #20]
 8003998:	2b01      	cmp	r3, #1
 800399a:	d116      	bne.n	80039ca <vTaskStartScheduler+0x82>
	__asm volatile
 800399c:	f04f 0350 	mov.w	r3, #80	@ 0x50
 80039a0:	f383 8811 	msr	BASEPRI, r3
 80039a4:	f3bf 8f6f 	isb	sy
 80039a8:	f3bf 8f4f 	dsb	sy
 80039ac:	613b      	str	r3, [r7, #16]
}
 80039ae:	bf00      	nop
			for additional information. */
			_impure_ptr = &( pxCurrentTCB->xNewLib_reent );
		}
		#endif /* configUSE_NEWLIB_REENTRANT */

		xNextTaskUnblockTime = portMAX_DELAY;
 80039b0:	4b13      	ldr	r3, [pc, #76]	@ (8003a00 <vTaskStartScheduler+0xb8>)
 80039b2:	f04f 32ff 	mov.w	r2, #4294967295
 80039b6:	601a      	str	r2, [r3, #0]
		xSchedulerRunning = pdTRUE;
 80039b8:	4b12      	ldr	r3, [pc, #72]	@ (8003a04 <vTaskStartScheduler+0xbc>)
 80039ba:	2201      	movs	r2, #1
 80039bc:	601a      	str	r2, [r3, #0]
		xTickCount = ( TickType_t ) configINITIAL_TICK_COUNT;
 80039be:	4b12      	ldr	r3, [pc, #72]	@ (8003a08 <vTaskStartScheduler+0xc0>)
 80039c0:	2200      	movs	r2, #0
 80039c2:	601a      	str	r2, [r3, #0]

		traceTASK_SWITCHED_IN();

		/* Setting up the timer tick is hardware specific and thus in the
		portable interface. */
		if( xPortStartScheduler() != pdFALSE )
 80039c4:	f000 fbdc 	bl	8004180 <xPortStartScheduler>
	}

	/* Prevent compiler warnings if INCLUDE_xTaskGetIdleTaskHandle is set to 0,
	meaning xIdleTaskHandle is not used anywhere else. */
	( void ) xIdleTaskHandle;
}
 80039c8:	e00f      	b.n	80039ea <vTaskStartScheduler+0xa2>
		configASSERT( xReturn != errCOULD_NOT_ALLOCATE_REQUIRED_MEMORY );
 80039ca:	697b      	ldr	r3, [r7, #20]
 80039cc:	f1b3 3fff 	cmp.w	r3, #4294967295
 80039d0:	d10b      	bne.n	80039ea <vTaskStartScheduler+0xa2>
	__asm volatile
 80039d2:	f04f 0350 	mov.w	r3, #80	@ 0x50
 80039d6:	f383 8811 	msr	BASEPRI, r3
 80039da:	f3bf 8f6f 	isb	sy
 80039de:	f3bf 8f4f 	dsb	sy
 80039e2:	60fb      	str	r3, [r7, #12]
}
 80039e4:	bf00      	nop
 80039e6:	bf00      	nop
 80039e8:	e7fd      	b.n	80039e6 <vTaskStartScheduler+0x9e>
}
 80039ea:	bf00      	nop
 80039ec:	3718      	adds	r7, #24
 80039ee:	46bd      	mov	sp, r7
 80039f0:	bd80      	pop	{r7, pc}
 80039f2:	bf00      	nop
 80039f4:	08005210 	.word	0x08005210
 80039f8:	08003db1 	.word	0x08003db1
 80039fc:	20000488 	.word	0x20000488
 8003a00:	20000484 	.word	0x20000484
 8003a04:	20000470 	.word	0x20000470
 8003a08:	20000468 	.word	0x20000468

08003a0c <vTaskSuspendAll>:
	vPortEndScheduler();
}
/*----------------------------------------------------------*/

void vTaskSuspendAll( void )
{
 8003a0c:	b480      	push	{r7}
 8003a0e:	af00      	add	r7, sp, #0
	do not otherwise exhibit real time behaviour. */
	portSOFTWARE_BARRIER();

	/* The scheduler is suspended if uxSchedulerSuspended is non-zero.  An increment
	is used to allow calls to vTaskSuspendAll() to nest. */
	++uxSchedulerSuspended;
 8003a10:	4b04      	ldr	r3, [pc, #16]	@ (8003a24 <vTaskSuspendAll+0x18>)
 8003a12:	681b      	ldr	r3, [r3, #0]
 8003a14:	3301      	adds	r3, #1
 8003a16:	4a03      	ldr	r2, [pc, #12]	@ (8003a24 <vTaskSuspendAll+0x18>)
 8003a18:	6013      	str	r3, [r2, #0]

	/* Enforces ordering for ports and optimised compilers that may otherwise place
	the above increment elsewhere. */
	portMEMORY_BARRIER();
}
 8003a1a:	bf00      	nop
 8003a1c:	46bd      	mov	sp, r7
 8003a1e:	f85d 7b04 	ldr.w	r7, [sp], #4
 8003a22:	4770      	bx	lr
 8003a24:	2000048c 	.word	0x2000048c

08003a28 <xTaskResumeAll>:

#endif /* configUSE_TICKLESS_IDLE */
/*----------------------------------------------------------*/

BaseType_t xTaskResumeAll( void )
{
 8003a28:	b580      	push	{r7, lr}
 8003a2a:	b084      	sub	sp, #16
 8003a2c:	af00      	add	r7, sp, #0
TCB_t *pxTCB = NULL;
 8003a2e:	2300      	movs	r3, #0
 8003a30:	60fb      	str	r3, [r7, #12]
BaseType_t xAlreadyYielded = pdFALSE;
 8003a32:	2300      	movs	r3, #0
 8003a34:	60bb      	str	r3, [r7, #8]

	/* If uxSchedulerSuspended is zero then this function does not match a
	previous call to vTaskSuspendAll(). */
	configASSERT( uxSchedulerSuspended );
 8003a36:	4b42      	ldr	r3, [pc, #264]	@ (8003b40 <xTaskResumeAll+0x118>)
 8003a38:	681b      	ldr	r3, [r3, #0]
 8003a3a:	2b00      	cmp	r3, #0
 8003a3c:	d10b      	bne.n	8003a56 <xTaskResumeAll+0x2e>
	__asm volatile
 8003a3e:	f04f 0350 	mov.w	r3, #80	@ 0x50
 8003a42:	f383 8811 	msr	BASEPRI, r3
 8003a46:	f3bf 8f6f 	isb	sy
 8003a4a:	f3bf 8f4f 	dsb	sy
 8003a4e:	603b      	str	r3, [r7, #0]
}
 8003a50:	bf00      	nop
 8003a52:	bf00      	nop
 8003a54:	e7fd      	b.n	8003a52 <xTaskResumeAll+0x2a>
	/* It is possible that an ISR caused a task to be removed from an event
	list while the scheduler was suspended.  If this was the case then the
	removed task will have been added to the xPendingReadyList.  Once the
	scheduler has been resumed it is safe to move all the pending ready
	tasks from this list into their appropriate ready list. */
	taskENTER_CRITICAL();
 8003a56:	f000 fc37 	bl	80042c8 <vPortEnterCritical>
	{
		--uxSchedulerSuspended;
 8003a5a:	4b39      	ldr	r3, [pc, #228]	@ (8003b40 <xTaskResumeAll+0x118>)
 8003a5c:	681b      	ldr	r3, [r3, #0]
 8003a5e:	3b01      	subs	r3, #1
 8003a60:	4a37      	ldr	r2, [pc, #220]	@ (8003b40 <xTaskResumeAll+0x118>)
 8003a62:	6013      	str	r3, [r2, #0]

		if( uxSchedulerSuspended == ( UBaseType_t ) pdFALSE )
 8003a64:	4b36      	ldr	r3, [pc, #216]	@ (8003b40 <xTaskResumeAll+0x118>)
 8003a66:	681b      	ldr	r3, [r3, #0]
 8003a68:	2b00      	cmp	r3, #0
 8003a6a:	d161      	bne.n	8003b30 <xTaskResumeAll+0x108>
		{
			if( uxCurrentNumberOfTasks > ( UBaseType_t ) 0U )
 8003a6c:	4b35      	ldr	r3, [pc, #212]	@ (8003b44 <xTaskResumeAll+0x11c>)
 8003a6e:	681b      	ldr	r3, [r3, #0]
 8003a70:	2b00      	cmp	r3, #0
 8003a72:	d05d      	beq.n	8003b30 <xTaskResumeAll+0x108>
			{
				/* Move any readied tasks from the pending list into the
				appropriate ready list. */
				while( listLIST_IS_EMPTY( &xPendingReadyList ) == pdFALSE )
 8003a74:	e02e      	b.n	8003ad4 <xTaskResumeAll+0xac>
				{
					pxTCB = listGET_OWNER_OF_HEAD_ENTRY( ( &xPendingReadyList ) ); /*lint !e9079 void * is used as this macro is used with timers and co-routines too.  Alignment is known to be fine as the type of the pointer stored and retrieved is the same. */
 8003a76:	4b34      	ldr	r3, [pc, #208]	@ (8003b48 <xTaskResumeAll+0x120>)
 8003a78:	68db      	ldr	r3, [r3, #12]
 8003a7a:	68db      	ldr	r3, [r3, #12]
 8003a7c:	60fb      	str	r3, [r7, #12]
					( void ) uxListRemove( &( pxTCB->xEventListItem ) );
 8003a7e:	68fb      	ldr	r3, [r7, #12]
 8003a80:	3318      	adds	r3, #24
 8003a82:	4618      	mov	r0, r3
 8003a84:	f7ff fd68 	bl	8003558 <uxListRemove>
					( void ) uxListRemove( &( pxTCB->xStateListItem ) );
 8003a88:	68fb      	ldr	r3, [r7, #12]
 8003a8a:	3304      	adds	r3, #4
 8003a8c:	4618      	mov	r0, r3
 8003a8e:	f7ff fd63 	bl	8003558 <uxListRemove>
					prvAddTaskToReadyList( pxTCB );
 8003a92:	68fb      	ldr	r3, [r7, #12]
 8003a94:	6adb      	ldr	r3, [r3, #44]	@ 0x2c
 8003a96:	2201      	movs	r2, #1
 8003a98:	409a      	lsls	r2, r3
 8003a9a:	4b2c      	ldr	r3, [pc, #176]	@ (8003b4c <xTaskResumeAll+0x124>)
 8003a9c:	681b      	ldr	r3, [r3, #0]
 8003a9e:	4313      	orrs	r3, r2
 8003aa0:	4a2a      	ldr	r2, [pc, #168]	@ (8003b4c <xTaskResumeAll+0x124>)
 8003aa2:	6013      	str	r3, [r2, #0]
 8003aa4:	68fb      	ldr	r3, [r7, #12]
 8003aa6:	6ada      	ldr	r2, [r3, #44]	@ 0x2c
 8003aa8:	4613      	mov	r3, r2
 8003aaa:	009b      	lsls	r3, r3, #2
 8003aac:	4413      	add	r3, r2
 8003aae:	009b      	lsls	r3, r3, #2
 8003ab0:	4a27      	ldr	r2, [pc, #156]	@ (8003b50 <xTaskResumeAll+0x128>)
 8003ab2:	441a      	add	r2, r3
 8003ab4:	68fb      	ldr	r3, [r7, #12]
 8003ab6:	3304      	adds	r3, #4
 8003ab8:	4619      	mov	r1, r3
 8003aba:	4610      	mov	r0, r2
 8003abc:	f7ff fcef 	bl	800349e <vListInsertEnd>

					/* If the moved task has a priority higher than the current
					task then a yield must be performed. */
					if( pxTCB->uxPriority >= pxCurrentTCB->uxPriority )
 8003ac0:	68fb      	ldr	r3, [r7, #12]
 8003ac2:	6ada      	ldr	r2, [r3, #44]	@ 0x2c
 8003ac4:	4b23      	ldr	r3, [pc, #140]	@ (8003b54 <xTaskResumeAll+0x12c>)
 8003ac6:	681b      	ldr	r3, [r3, #0]
 8003ac8:	6adb      	ldr	r3, [r3, #44]	@ 0x2c
 8003aca:	429a      	cmp	r2, r3
 8003acc:	d302      	bcc.n	8003ad4 <xTaskResumeAll+0xac>
					{
						xYieldPending = pdTRUE;
 8003ace:	4b22      	ldr	r3, [pc, #136]	@ (8003b58 <xTaskResumeAll+0x130>)
 8003ad0:	2201      	movs	r2, #1
 8003ad2:	601a      	str	r2, [r3, #0]
				while( listLIST_IS_EMPTY( &xPendingReadyList ) == pdFALSE )
 8003ad4:	4b1c      	ldr	r3, [pc, #112]	@ (8003b48 <xTaskResumeAll+0x120>)
 8003ad6:	681b      	ldr	r3, [r3, #0]
 8003ad8:	2b00      	cmp	r3, #0
 8003ada:	d1cc      	bne.n	8003a76 <xTaskResumeAll+0x4e>
					{
						mtCOVERAGE_TEST_MARKER();
					}
				}

				if( pxTCB != NULL )
 8003adc:	68fb      	ldr	r3, [r7, #12]
 8003ade:	2b00      	cmp	r3, #0
 8003ae0:	d001      	beq.n	8003ae6 <xTaskResumeAll+0xbe>
					which may have prevented the next unblock time from being
					re-calculated, in which case re-calculate it now.  Mainly
					important for low power tickless implementations, where
					this can prevent an unnecessary exit from low power
					state. */
					prvResetNextTaskUnblockTime();
 8003ae2:	f000 fa1b 	bl	8003f1c <prvResetNextTaskUnblockTime>
				/* If any ticks occurred while the scheduler was suspended then
				they should be processed now.  This ensures the tick count does
				not	slip, and that any delayed tasks are resumed at the correct
				time. */
				{
					TickType_t xPendedCounts = xPendedTicks; /* Non-volatile copy. */
 8003ae6:	4b1d      	ldr	r3, [pc, #116]	@ (8003b5c <xTaskResumeAll+0x134>)
 8003ae8:	681b      	ldr	r3, [r3, #0]
 8003aea:	607b      	str	r3, [r7, #4]

					if( xPendedCounts > ( TickType_t ) 0U )
 8003aec:	687b      	ldr	r3, [r7, #4]
 8003aee:	2b00      	cmp	r3, #0
 8003af0:	d010      	beq.n	8003b14 <xTaskResumeAll+0xec>
					{
						do
						{
							if( xTaskIncrementTick() != pdFALSE )
 8003af2:	f000 f837 	bl	8003b64 <xTaskIncrementTick>
 8003af6:	4603      	mov	r3, r0
 8003af8:	2b00      	cmp	r3, #0
 8003afa:	d002      	beq.n	8003b02 <xTaskResumeAll+0xda>
							{
								xYieldPending = pdTRUE;
 8003afc:	4b16      	ldr	r3, [pc, #88]	@ (8003b58 <xTaskResumeAll+0x130>)
 8003afe:	2201      	movs	r2, #1
 8003b00:	601a      	str	r2, [r3, #0]
							}
							else
							{
								mtCOVERAGE_TEST_MARKER();
							}
							--xPendedCounts;
 8003b02:	687b      	ldr	r3, [r7, #4]
 8003b04:	3b01      	subs	r3, #1
 8003b06:	607b      	str	r3, [r7, #4]
						} while( xPendedCounts > ( TickType_t ) 0U );
 8003b08:	687b      	ldr	r3, [r7, #4]
 8003b0a:	2b00      	cmp	r3, #0
 8003b0c:	d1f1      	bne.n	8003af2 <xTaskResumeAll+0xca>

						xPendedTicks = 0;
 8003b0e:	4b13      	ldr	r3, [pc, #76]	@ (8003b5c <xTaskResumeAll+0x134>)
 8003b10:	2200      	movs	r2, #0
 8003b12:	601a      	str	r2, [r3, #0]
					{
						mtCOVERAGE_TEST_MARKER();
					}
				}

				if( xYieldPending != pdFALSE )
 8003b14:	4b10      	ldr	r3, [pc, #64]	@ (8003b58 <xTaskResumeAll+0x130>)
 8003b16:	681b      	ldr	r3, [r3, #0]
 8003b18:	2b00      	cmp	r3, #0
 8003b1a:	d009      	beq.n	8003b30 <xTaskResumeAll+0x108>
				{
					#if( configUSE_PREEMPTION != 0 )
					{
						xAlreadyYielded = pdTRUE;
 8003b1c:	2301      	movs	r3, #1
 8003b1e:	60bb      	str	r3, [r7, #8]
					}
					#endif
					taskYIELD_IF_USING_PREEMPTION();
 8003b20:	4b0f      	ldr	r3, [pc, #60]	@ (8003b60 <xTaskResumeAll+0x138>)
 8003b22:	f04f 5280 	mov.w	r2, #268435456	@ 0x10000000
 8003b26:	601a      	str	r2, [r3, #0]
 8003b28:	f3bf 8f4f 	dsb	sy
 8003b2c:	f3bf 8f6f 	isb	sy
		else
		{
			mtCOVERAGE_TEST_MARKER();
		}
	}
	taskEXIT_CRITICAL();
 8003b30:	f000 fbfc 	bl	800432c <vPortExitCritical>

	return xAlreadyYielded;
 8003b34:	68bb      	ldr	r3, [r7, #8]
}
 8003b36:	4618      	mov	r0, r3
 8003b38:	3710      	adds	r7, #16
 8003b3a:	46bd      	mov	sp, r7
 8003b3c:	bd80      	pop	{r7, pc}
 8003b3e:	bf00      	nop
 8003b40:	2000048c 	.word	0x2000048c
 8003b44:	20000464 	.word	0x20000464
 8003b48:	20000424 	.word	0x20000424
 8003b4c:	2000046c 	.word	0x2000046c
 8003b50:	20000368 	.word	0x20000368
 8003b54:	20000364 	.word	0x20000364
 8003b58:	20000478 	.word	0x20000478
 8003b5c:	20000474 	.word	0x20000474
 8003b60:	e000ed04 	.word	0xe000ed04

08003b64 <xTaskIncrementTick>:

#endif /* INCLUDE_xTaskAbortDelay */
/*----------------------------------------------------------*/

BaseType_t xTaskIncrementTick( void )
{
 8003b64:	b580      	push	{r7, lr}
 8003b66:	b086      	sub	sp, #24
 8003b68:	af00      	add	r7, sp, #0
TCB_t * pxTCB;
TickType_t xItemValue;
BaseType_t xSwitchRequired = pdFALSE;
 8003b6a:	2300      	movs	r3, #0
 8003b6c:	617b      	str	r3, [r7, #20]

	/* Called by the portable layer each time a tick interrupt occurs.
	Increments the tick then checks to see if the new tick value will cause any
	tasks to be unblocked. */
	traceTASK_INCREMENT_TICK( xTickCount );
	if( uxSchedulerSuspended == ( UBaseType_t ) pdFALSE )
 8003b6e:	4b4f      	ldr	r3, [pc, #316]	@ (8003cac <xTaskIncrementTick+0x148>)
 8003b70:	681b      	ldr	r3, [r3, #0]
 8003b72:	2b00      	cmp	r3, #0
 8003b74:	f040 808f 	bne.w	8003c96 <xTaskIncrementTick+0x132>
	{
		/* Minor optimisation.  The tick count cannot change in this
		block. */
		const TickType_t xConstTickCount = xTickCount + ( TickType_t ) 1;
 8003b78:	4b4d      	ldr	r3, [pc, #308]	@ (8003cb0 <xTaskIncrementTick+0x14c>)
 8003b7a:	681b      	ldr	r3, [r3, #0]
 8003b7c:	3301      	adds	r3, #1
 8003b7e:	613b      	str	r3, [r7, #16]

		/* Increment the RTOS tick, switching the delayed and overflowed
		delayed lists if it wraps to 0. */
		xTickCount = xConstTickCount;
 8003b80:	4a4b      	ldr	r2, [pc, #300]	@ (8003cb0 <xTaskIncrementTick+0x14c>)
 8003b82:	693b      	ldr	r3, [r7, #16]
 8003b84:	6013      	str	r3, [r2, #0]

		if( xConstTickCount == ( TickType_t ) 0U ) /*lint !e774 'if' does not always evaluate to false as it is looking for an overflow. */
 8003b86:	693b      	ldr	r3, [r7, #16]
 8003b88:	2b00      	cmp	r3, #0
 8003b8a:	d121      	bne.n	8003bd0 <xTaskIncrementTick+0x6c>
		{
			taskSWITCH_DELAYED_LISTS();
 8003b8c:	4b49      	ldr	r3, [pc, #292]	@ (8003cb4 <xTaskIncrementTick+0x150>)
 8003b8e:	681b      	ldr	r3, [r3, #0]
 8003b90:	681b      	ldr	r3, [r3, #0]
 8003b92:	2b00      	cmp	r3, #0
 8003b94:	d00b      	beq.n	8003bae <xTaskIncrementTick+0x4a>
	__asm volatile
 8003b96:	f04f 0350 	mov.w	r3, #80	@ 0x50
 8003b9a:	f383 8811 	msr	BASEPRI, r3
 8003b9e:	f3bf 8f6f 	isb	sy
 8003ba2:	f3bf 8f4f 	dsb	sy
 8003ba6:	603b      	str	r3, [r7, #0]
}
 8003ba8:	bf00      	nop
 8003baa:	bf00      	nop
 8003bac:	e7fd      	b.n	8003baa <xTaskIncrementTick+0x46>
 8003bae:	4b41      	ldr	r3, [pc, #260]	@ (8003cb4 <xTaskIncrementTick+0x150>)
 8003bb0:	681b      	ldr	r3, [r3, #0]
 8003bb2:	60fb      	str	r3, [r7, #12]
 8003bb4:	4b40      	ldr	r3, [pc, #256]	@ (8003cb8 <xTaskIncrementTick+0x154>)
 8003bb6:	681b      	ldr	r3, [r3, #0]
 8003bb8:	4a3e      	ldr	r2, [pc, #248]	@ (8003cb4 <xTaskIncrementTick+0x150>)
 8003bba:	6013      	str	r3, [r2, #0]
 8003bbc:	4a3e      	ldr	r2, [pc, #248]	@ (8003cb8 <xTaskIncrementTick+0x154>)
 8003bbe:	68fb      	ldr	r3, [r7, #12]
 8003bc0:	6013      	str	r3, [r2, #0]
 8003bc2:	4b3e      	ldr	r3, [pc, #248]	@ (8003cbc <xTaskIncrementTick+0x158>)
 8003bc4:	681b      	ldr	r3, [r3, #0]
 8003bc6:	3301      	adds	r3, #1
 8003bc8:	4a3c      	ldr	r2, [pc, #240]	@ (8003cbc <xTaskIncrementTick+0x158>)
 8003bca:	6013      	str	r3, [r2, #0]
 8003bcc:	f000 f9a6 	bl	8003f1c <prvResetNextTaskUnblockTime>

		/* See if this tick has made a timeout expire.  Tasks are stored in
		the	queue in the order of their wake time - meaning once one task
		has been found whose block time has not expired there is no need to
		look any further down the list. */
		if( xConstTickCount >= xNextTaskUnblockTime )
 8003bd0:	4b3b      	ldr	r3, [pc, #236]	@ (8003cc0 <xTaskIncrementTick+0x15c>)
 8003bd2:	681b      	ldr	r3, [r3, #0]
 8003bd4:	693a      	ldr	r2, [r7, #16]
 8003bd6:	429a      	cmp	r2, r3
 8003bd8:	d348      	bcc.n	8003c6c <xTaskIncrementTick+0x108>
		{
			for( ;; )
			{
				if( listLIST_IS_EMPTY( pxDelayedTaskList ) != pdFALSE )
 8003bda:	4b36      	ldr	r3, [pc, #216]	@ (8003cb4 <xTaskIncrementTick+0x150>)
 8003bdc:	681b      	ldr	r3, [r3, #0]
 8003bde:	681b      	ldr	r3, [r3, #0]
 8003be0:	2b00      	cmp	r3, #0
 8003be2:	d104      	bne.n	8003bee <xTaskIncrementTick+0x8a>
					/* The delayed list is empty.  Set xNextTaskUnblockTime
					to the maximum possible value so it is extremely
					unlikely that the
					if( xTickCount >= xNextTaskUnblockTime ) test will pass
					next time through. */
					xNextTaskUnblockTime = portMAX_DELAY; /*lint !e961 MISRA exception as the casts are only redundant for some ports. */
 8003be4:	4b36      	ldr	r3, [pc, #216]	@ (8003cc0 <xTaskIncrementTick+0x15c>)
 8003be6:	f04f 32ff 	mov.w	r2, #4294967295
 8003bea:	601a      	str	r2, [r3, #0]
					break;
 8003bec:	e03e      	b.n	8003c6c <xTaskIncrementTick+0x108>
				{
					/* The delayed list is not empty, get the value of the
					item at the head of the delayed list.  This is the time
					at which the task at the head of the delayed list must
					be removed from the Blocked state. */
					pxTCB = listGET_OWNER_OF_HEAD_ENTRY( pxDelayedTaskList ); /*lint !e9079 void * is used as this macro is used with timers and co-routines too.  Alignment is known to be fine as the type of the pointer stored and retrieved is the same. */
 8003bee:	4b31      	ldr	r3, [pc, #196]	@ (8003cb4 <xTaskIncrementTick+0x150>)
 8003bf0:	681b      	ldr	r3, [r3, #0]
 8003bf2:	68db      	ldr	r3, [r3, #12]
 8003bf4:	68db      	ldr	r3, [r3, #12]
 8003bf6:	60bb      	str	r3, [r7, #8]
					xItemValue = listGET_LIST_ITEM_VALUE( &( pxTCB->xStateListItem ) );
 8003bf8:	68bb      	ldr	r3, [r7, #8]
 8003bfa:	685b      	ldr	r3, [r3, #4]
 8003bfc:	607b      	str	r3, [r7, #4]

					if( xConstTickCount < xItemValue )
 8003bfe:	693a      	ldr	r2, [r7, #16]
 8003c00:	687b      	ldr	r3, [r7, #4]
 8003c02:	429a      	cmp	r2, r3
 8003c04:	d203      	bcs.n	8003c0e <xTaskIncrementTick+0xaa>
						/* It is not time to unblock this item yet, but the
						item value is the time at which the task at the head
						of the blocked list must be removed from the Blocked
						state -	so record the item value in
						xNextTaskUnblockTime. */
						xNextTaskUnblockTime = xItemValue;
 8003c06:	4a2e      	ldr	r2, [pc, #184]	@ (8003cc0 <xTaskIncrementTick+0x15c>)
 8003c08:	687b      	ldr	r3, [r7, #4]
 8003c0a:	6013      	str	r3, [r2, #0]
						break; /*lint !e9011 Code structure here is deedmed easier to understand with multiple breaks. */
 8003c0c:	e02e      	b.n	8003c6c <xTaskIncrementTick+0x108>
					{
						mtCOVERAGE_TEST_MARKER();
					}

					/* It is time to remove the item from the Blocked state. */
					( void ) uxListRemove( &( pxTCB->xStateListItem ) );
 8003c0e:	68bb      	ldr	r3, [r7, #8]
 8003c10:	3304      	adds	r3, #4
 8003c12:	4618      	mov	r0, r3
 8003c14:	f7ff fca0 	bl	8003558 <uxListRemove>

					/* Is the task waiting on an event also?  If so remove
					it from the event list. */
					if( listLIST_ITEM_CONTAINER( &( pxTCB->xEventListItem ) ) != NULL )
 8003c18:	68bb      	ldr	r3, [r7, #8]
 8003c1a:	6a9b      	ldr	r3, [r3, #40]	@ 0x28
 8003c1c:	2b00      	cmp	r3, #0
 8003c1e:	d004      	beq.n	8003c2a <xTaskIncrementTick+0xc6>
					{
						( void ) uxListRemove( &( pxTCB->xEventListItem ) );
 8003c20:	68bb      	ldr	r3, [r7, #8]
 8003c22:	3318      	adds	r3, #24
 8003c24:	4618      	mov	r0, r3
 8003c26:	f7ff fc97 	bl	8003558 <uxListRemove>
						mtCOVERAGE_TEST_MARKER();
					}

					/* Place the unblocked task into the appropriate ready
					list. */
					prvAddTaskToReadyList( pxTCB );
 8003c2a:	68bb      	ldr	r3, [r7, #8]
 8003c2c:	6adb      	ldr	r3, [r3, #44]	@ 0x2c
 8003c2e:	2201      	movs	r2, #1
 8003c30:	409a      	lsls	r2, r3
 8003c32:	4b24      	ldr	r3, [pc, #144]	@ (8003cc4 <xTaskIncrementTick+0x160>)
 8003c34:	681b      	ldr	r3, [r3, #0]
 8003c36:	4313      	orrs	r3, r2
 8003c38:	4a22      	ldr	r2, [pc, #136]	@ (8003cc4 <xTaskIncrementTick+0x160>)
 8003c3a:	6013      	str	r3, [r2, #0]
 8003c3c:	68bb      	ldr	r3, [r7, #8]
 8003c3e:	6ada      	ldr	r2, [r3, #44]	@ 0x2c
 8003c40:	4613      	mov	r3, r2
 8003c42:	009b      	lsls	r3, r3, #2
 8003c44:	4413      	add	r3, r2
 8003c46:	009b      	lsls	r3, r3, #2
 8003c48:	4a1f      	ldr	r2, [pc, #124]	@ (8003cc8 <xTaskIncrementTick+0x164>)
 8003c4a:	441a      	add	r2, r3
 8003c4c:	68bb      	ldr	r3, [r7, #8]
 8003c4e:	3304      	adds	r3, #4
 8003c50:	4619      	mov	r1, r3
 8003c52:	4610      	mov	r0, r2
 8003c54:	f7ff fc23 	bl	800349e <vListInsertEnd>
					{
						/* Preemption is on, but a context switch should
						only be performed if the unblocked task has a
						priority that is equal to or higher than the
						currently executing task. */
						if( pxTCB->uxPriority >= pxCurrentTCB->uxPriority )
 8003c58:	68bb      	ldr	r3, [r7, #8]
 8003c5a:	6ada      	ldr	r2, [r3, #44]	@ 0x2c
 8003c5c:	4b1b      	ldr	r3, [pc, #108]	@ (8003ccc <xTaskIncrementTick+0x168>)
 8003c5e:	681b      	ldr	r3, [r3, #0]
 8003c60:	6adb      	ldr	r3, [r3, #44]	@ 0x2c
 8003c62:	429a      	cmp	r2, r3
 8003c64:	d3b9      	bcc.n	8003bda <xTaskIncrementTick+0x76>
						{
							xSwitchRequired = pdTRUE;
 8003c66:	2301      	movs	r3, #1
 8003c68:	617b      	str	r3, [r7, #20]
				if( listLIST_IS_EMPTY( pxDelayedTaskList ) != pdFALSE )
 8003c6a:	e7b6      	b.n	8003bda <xTaskIncrementTick+0x76>
		/* Tasks of equal priority to the currently running task will share
		processing time (time slice) if preemption is on, and the application
		writer has not explicitly turned time slicing off. */
		#if ( ( configUSE_PREEMPTION == 1 ) && ( configUSE_TIME_SLICING == 1 ) )
		{
			if( listCURRENT_LIST_LENGTH( &( pxReadyTasksLists[ pxCurrentTCB->uxPriority ] ) ) > ( UBaseType_t ) 1 )
 8003c6c:	4b17      	ldr	r3, [pc, #92]	@ (8003ccc <xTaskIncrementTick+0x168>)
 8003c6e:	681b      	ldr	r3, [r3, #0]
 8003c70:	6ada      	ldr	r2, [r3, #44]	@ 0x2c
 8003c72:	4915      	ldr	r1, [pc, #84]	@ (8003cc8 <xTaskIncrementTick+0x164>)
 8003c74:	4613      	mov	r3, r2
 8003c76:	009b      	lsls	r3, r3, #2
 8003c78:	4413      	add	r3, r2
 8003c7a:	009b      	lsls	r3, r3, #2
 8003c7c:	440b      	add	r3, r1
 8003c7e:	681b      	ldr	r3, [r3, #0]
 8003c80:	2b01      	cmp	r3, #1
 8003c82:	d901      	bls.n	8003c88 <xTaskIncrementTick+0x124>
			{
				xSwitchRequired = pdTRUE;
 8003c84:	2301      	movs	r3, #1
 8003c86:	617b      	str	r3, [r7, #20]
		}
		#endif /* configUSE_TICK_HOOK */

		#if ( configUSE_PREEMPTION == 1 )
		{
			if( xYieldPending != pdFALSE )
 8003c88:	4b11      	ldr	r3, [pc, #68]	@ (8003cd0 <xTaskIncrementTick+0x16c>)
 8003c8a:	681b      	ldr	r3, [r3, #0]
 8003c8c:	2b00      	cmp	r3, #0
 8003c8e:	d007      	beq.n	8003ca0 <xTaskIncrementTick+0x13c>
			{
				xSwitchRequired = pdTRUE;
 8003c90:	2301      	movs	r3, #1
 8003c92:	617b      	str	r3, [r7, #20]
 8003c94:	e004      	b.n	8003ca0 <xTaskIncrementTick+0x13c>
		}
		#endif /* configUSE_PREEMPTION */
	}
	else
	{
		++xPendedTicks;
 8003c96:	4b0f      	ldr	r3, [pc, #60]	@ (8003cd4 <xTaskIncrementTick+0x170>)
 8003c98:	681b      	ldr	r3, [r3, #0]
 8003c9a:	3301      	adds	r3, #1
 8003c9c:	4a0d      	ldr	r2, [pc, #52]	@ (8003cd4 <xTaskIncrementTick+0x170>)
 8003c9e:	6013      	str	r3, [r2, #0]
			vApplicationTickHook();
		}
		#endif
	}

	return xSwitchRequired;
 8003ca0:	697b      	ldr	r3, [r7, #20]
}
 8003ca2:	4618      	mov	r0, r3
 8003ca4:	3718      	adds	r7, #24
 8003ca6:	46bd      	mov	sp, r7
 8003ca8:	bd80      	pop	{r7, pc}
 8003caa:	bf00      	nop
 8003cac:	2000048c 	.word	0x2000048c
 8003cb0:	20000468 	.word	0x20000468
 8003cb4:	2000041c 	.word	0x2000041c
 8003cb8:	20000420 	.word	0x20000420
 8003cbc:	2000047c 	.word	0x2000047c
 8003cc0:	20000484 	.word	0x20000484
 8003cc4:	2000046c 	.word	0x2000046c
 8003cc8:	20000368 	.word	0x20000368
 8003ccc:	20000364 	.word	0x20000364
 8003cd0:	20000478 	.word	0x20000478
 8003cd4:	20000474 	.word	0x20000474

08003cd8 <vTaskSwitchContext>:

#endif /* configUSE_APPLICATION_TASK_TAG */
/*-----------------------------------------------------------*/

void vTaskSwitchContext( void )
{
 8003cd8:	b580      	push	{r7, lr}
 8003cda:	b086      	sub	sp, #24
 8003cdc:	af00      	add	r7, sp, #0
	if( uxSchedulerSuspended != ( UBaseType_t ) pdFALSE )
 8003cde:	4b2f      	ldr	r3, [pc, #188]	@ (8003d9c <vTaskSwitchContext+0xc4>)
 8003ce0:	681b      	ldr	r3, [r3, #0]
 8003ce2:	2b00      	cmp	r3, #0
 8003ce4:	d003      	beq.n	8003cee <vTaskSwitchContext+0x16>
	{
		/* The scheduler is currently suspended - do not allow a context
		switch. */
		xYieldPending = pdTRUE;
 8003ce6:	4b2e      	ldr	r3, [pc, #184]	@ (8003da0 <vTaskSwitchContext+0xc8>)
 8003ce8:	2201      	movs	r2, #1
 8003cea:	601a      	str	r2, [r3, #0]
			for additional information. */
			_impure_ptr = &( pxCurrentTCB->xNewLib_reent );
		}
		#endif /* configUSE_NEWLIB_REENTRANT */
	}
}
 8003cec:	e051      	b.n	8003d92 <vTaskSwitchContext+0xba>
		xYieldPending = pdFALSE;
 8003cee:	4b2c      	ldr	r3, [pc, #176]	@ (8003da0 <vTaskSwitchContext+0xc8>)
 8003cf0:	2200      	movs	r2, #0
 8003cf2:	601a      	str	r2, [r3, #0]
		taskCHECK_FOR_STACK_OVERFLOW();
 8003cf4:	4b2b      	ldr	r3, [pc, #172]	@ (8003da4 <vTaskSwitchContext+0xcc>)
 8003cf6:	681b      	ldr	r3, [r3, #0]
 8003cf8:	681a      	ldr	r2, [r3, #0]
 8003cfa:	4b2a      	ldr	r3, [pc, #168]	@ (8003da4 <vTaskSwitchContext+0xcc>)
 8003cfc:	681b      	ldr	r3, [r3, #0]
 8003cfe:	6b1b      	ldr	r3, [r3, #48]	@ 0x30
 8003d00:	429a      	cmp	r2, r3
 8003d02:	d808      	bhi.n	8003d16 <vTaskSwitchContext+0x3e>
 8003d04:	4b27      	ldr	r3, [pc, #156]	@ (8003da4 <vTaskSwitchContext+0xcc>)
 8003d06:	681a      	ldr	r2, [r3, #0]
 8003d08:	4b26      	ldr	r3, [pc, #152]	@ (8003da4 <vTaskSwitchContext+0xcc>)
 8003d0a:	681b      	ldr	r3, [r3, #0]
 8003d0c:	3334      	adds	r3, #52	@ 0x34
 8003d0e:	4619      	mov	r1, r3
 8003d10:	4610      	mov	r0, r2
 8003d12:	f7fc fc65 	bl	80005e0 <vApplicationStackOverflowHook>
		taskSELECT_HIGHEST_PRIORITY_TASK(); /*lint !e9079 void * is used as this macro is used with timers and co-routines too.  Alignment is known to be fine as the type of the pointer stored and retrieved is the same. */
 8003d16:	4b24      	ldr	r3, [pc, #144]	@ (8003da8 <vTaskSwitchContext+0xd0>)
 8003d18:	681b      	ldr	r3, [r3, #0]
 8003d1a:	60fb      	str	r3, [r7, #12]
		__asm volatile ( "clz %0, %1" : "=r" ( ucReturn ) : "r" ( ulBitmap ) : "memory" );
 8003d1c:	68fb      	ldr	r3, [r7, #12]
 8003d1e:	fab3 f383 	clz	r3, r3
 8003d22:	72fb      	strb	r3, [r7, #11]
		return ucReturn;
 8003d24:	7afb      	ldrb	r3, [r7, #11]
 8003d26:	f1c3 031f 	rsb	r3, r3, #31
 8003d2a:	617b      	str	r3, [r7, #20]
 8003d2c:	491f      	ldr	r1, [pc, #124]	@ (8003dac <vTaskSwitchContext+0xd4>)
 8003d2e:	697a      	ldr	r2, [r7, #20]
 8003d30:	4613      	mov	r3, r2
 8003d32:	009b      	lsls	r3, r3, #2
 8003d34:	4413      	add	r3, r2
 8003d36:	009b      	lsls	r3, r3, #2
 8003d38:	440b      	add	r3, r1
 8003d3a:	681b      	ldr	r3, [r3, #0]
 8003d3c:	2b00      	cmp	r3, #0
 8003d3e:	d10b      	bne.n	8003d58 <vTaskSwitchContext+0x80>
	__asm volatile
 8003d40:	f04f 0350 	mov.w	r3, #80	@ 0x50
 8003d44:	f383 8811 	msr	BASEPRI, r3
 8003d48:	f3bf 8f6f 	isb	sy
 8003d4c:	f3bf 8f4f 	dsb	sy
 8003d50:	607b      	str	r3, [r7, #4]
}
 8003d52:	bf00      	nop
 8003d54:	bf00      	nop
 8003d56:	e7fd      	b.n	8003d54 <vTaskSwitchContext+0x7c>
 8003d58:	697a      	ldr	r2, [r7, #20]
 8003d5a:	4613      	mov	r3, r2
 8003d5c:	009b      	lsls	r3, r3, #2
 8003d5e:	4413      	add	r3, r2
 8003d60:	009b      	lsls	r3, r3, #2
 8003d62:	4a12      	ldr	r2, [pc, #72]	@ (8003dac <vTaskSwitchContext+0xd4>)
 8003d64:	4413      	add	r3, r2
 8003d66:	613b      	str	r3, [r7, #16]
 8003d68:	693b      	ldr	r3, [r7, #16]
 8003d6a:	685b      	ldr	r3, [r3, #4]
 8003d6c:	685a      	ldr	r2, [r3, #4]
 8003d6e:	693b      	ldr	r3, [r7, #16]
 8003d70:	605a      	str	r2, [r3, #4]
 8003d72:	693b      	ldr	r3, [r7, #16]
 8003d74:	685a      	ldr	r2, [r3, #4]
 8003d76:	693b      	ldr	r3, [r7, #16]
 8003d78:	3308      	adds	r3, #8
 8003d7a:	429a      	cmp	r2, r3
 8003d7c:	d104      	bne.n	8003d88 <vTaskSwitchContext+0xb0>
 8003d7e:	693b      	ldr	r3, [r7, #16]
 8003d80:	685b      	ldr	r3, [r3, #4]
 8003d82:	685a      	ldr	r2, [r3, #4]
 8003d84:	693b      	ldr	r3, [r7, #16]
 8003d86:	605a      	str	r2, [r3, #4]
 8003d88:	693b      	ldr	r3, [r7, #16]
 8003d8a:	685b      	ldr	r3, [r3, #4]
 8003d8c:	68db      	ldr	r3, [r3, #12]
 8003d8e:	4a05      	ldr	r2, [pc, #20]	@ (8003da4 <vTaskSwitchContext+0xcc>)
 8003d90:	6013      	str	r3, [r2, #0]
}
 8003d92:	bf00      	nop
 8003d94:	3718      	adds	r7, #24
 8003d96:	46bd      	mov	sp, r7
 8003d98:	bd80      	pop	{r7, pc}
 8003d9a:	bf00      	nop
 8003d9c:	2000048c 	.word	0x2000048c
 8003da0:	20000478 	.word	0x20000478
 8003da4:	20000364 	.word	0x20000364
 8003da8:	2000046c 	.word	0x2000046c
 8003dac:	20000368 	.word	0x20000368

08003db0 <prvIdleTask>:
 *
 * void prvIdleTask( void *pvParameters );
 *
 */
static portTASK_FUNCTION( prvIdleTask, pvParameters )
{
 8003db0:	b580      	push	{r7, lr}
 8003db2:	b082      	sub	sp, #8
 8003db4:	af00      	add	r7, sp, #0
 8003db6:	6078      	str	r0, [r7, #4]

	for( ;; )
	{
		/* See if any tasks have deleted themselves - if so then the idle task
		is responsible for freeing the deleted task's TCB and stack. */
		prvCheckTasksWaitingTermination();
 8003db8:	f000 f852 	bl	8003e60 <prvCheckTasksWaitingTermination>

			A critical region is not required here as we are just reading from
			the list, and an occasional incorrect value will not matter.  If
			the ready list at the idle priority contains more than one task
			then a task other than the idle task is ready to execute. */
			if( listCURRENT_LIST_LENGTH( &( pxReadyTasksLists[ tskIDLE_PRIORITY ] ) ) > ( UBaseType_t ) 1 )
 8003dbc:	4b06      	ldr	r3, [pc, #24]	@ (8003dd8 <prvIdleTask+0x28>)
 8003dbe:	681b      	ldr	r3, [r3, #0]
 8003dc0:	2b01      	cmp	r3, #1
 8003dc2:	d9f9      	bls.n	8003db8 <prvIdleTask+0x8>
			{
				taskYIELD();
 8003dc4:	4b05      	ldr	r3, [pc, #20]	@ (8003ddc <prvIdleTask+0x2c>)
 8003dc6:	f04f 5280 	mov.w	r2, #268435456	@ 0x10000000
 8003dca:	601a      	str	r2, [r3, #0]
 8003dcc:	f3bf 8f4f 	dsb	sy
 8003dd0:	f3bf 8f6f 	isb	sy
		prvCheckTasksWaitingTermination();
 8003dd4:	e7f0      	b.n	8003db8 <prvIdleTask+0x8>
 8003dd6:	bf00      	nop
 8003dd8:	20000368 	.word	0x20000368
 8003ddc:	e000ed04 	.word	0xe000ed04

08003de0 <prvInitialiseTaskLists>:

#endif /* portUSING_MPU_WRAPPERS */
/*-----------------------------------------------------------*/

static void prvInitialiseTaskLists( void )
{
 8003de0:	b580      	push	{r7, lr}
 8003de2:	b082      	sub	sp, #8
 8003de4:	af00      	add	r7, sp, #0
UBaseType_t uxPriority;

	for( uxPriority = ( UBaseType_t ) 0U; uxPriority < ( UBaseType_t ) configMAX_PRIORITIES; uxPriority++ )
 8003de6:	2300      	movs	r3, #0
 8003de8:	607b      	str	r3, [r7, #4]
 8003dea:	e00c      	b.n	8003e06 <prvInitialiseTaskLists+0x26>
	{
		vListInitialise( &( pxReadyTasksLists[ uxPriority ] ) );
 8003dec:	687a      	ldr	r2, [r7, #4]
 8003dee:	4613      	mov	r3, r2
 8003df0:	009b      	lsls	r3, r3, #2
 8003df2:	4413      	add	r3, r2
 8003df4:	009b      	lsls	r3, r3, #2
 8003df6:	4a12      	ldr	r2, [pc, #72]	@ (8003e40 <prvInitialiseTaskLists+0x60>)
 8003df8:	4413      	add	r3, r2
 8003dfa:	4618      	mov	r0, r3
 8003dfc:	f7ff fb22 	bl	8003444 <vListInitialise>
	for( uxPriority = ( UBaseType_t ) 0U; uxPriority < ( UBaseType_t ) configMAX_PRIORITIES; uxPriority++ )
 8003e00:	687b      	ldr	r3, [r7, #4]
 8003e02:	3301      	adds	r3, #1
 8003e04:	607b      	str	r3, [r7, #4]
 8003e06:	687b      	ldr	r3, [r7, #4]
 8003e08:	2b06      	cmp	r3, #6
 8003e0a:	d9ef      	bls.n	8003dec <prvInitialiseTaskLists+0xc>
	}

	vListInitialise( &xDelayedTaskList1 );
 8003e0c:	480d      	ldr	r0, [pc, #52]	@ (8003e44 <prvInitialiseTaskLists+0x64>)
 8003e0e:	f7ff fb19 	bl	8003444 <vListInitialise>
	vListInitialise( &xDelayedTaskList2 );
 8003e12:	480d      	ldr	r0, [pc, #52]	@ (8003e48 <prvInitialiseTaskLists+0x68>)
 8003e14:	f7ff fb16 	bl	8003444 <vListInitialise>
	vListInitialise( &xPendingReadyList );
 8003e18:	480c      	ldr	r0, [pc, #48]	@ (8003e4c <prvInitialiseTaskLists+0x6c>)
 8003e1a:	f7ff fb13 	bl	8003444 <vListInitialise>

	#if ( INCLUDE_vTaskDelete == 1 )
	{
		vListInitialise( &xTasksWaitingTermination );
 8003e1e:	480c      	ldr	r0, [pc, #48]	@ (8003e50 <prvInitialiseTaskLists+0x70>)
 8003e20:	f7ff fb10 	bl	8003444 <vListInitialise>
	}
	#endif /* INCLUDE_vTaskDelete */

	#if ( INCLUDE_vTaskSuspend == 1 )
	{
		vListInitialise( &xSuspendedTaskList );
 8003e24:	480b      	ldr	r0, [pc, #44]	@ (8003e54 <prvInitialiseTaskLists+0x74>)
 8003e26:	f7ff fb0d 	bl	8003444 <vListInitialise>
	}
	#endif /* INCLUDE_vTaskSuspend */

	/* Start with pxDelayedTaskList using list1 and the pxOverflowDelayedTaskList
	using list2. */
	pxDelayedTaskList = &xDelayedTaskList1;
 8003e2a:	4b0b      	ldr	r3, [pc, #44]	@ (8003e58 <prvInitialiseTaskLists+0x78>)
 8003e2c:	4a05      	ldr	r2, [pc, #20]	@ (8003e44 <prvInitialiseTaskLists+0x64>)
 8003e2e:	601a      	str	r2, [r3, #0]
	pxOverflowDelayedTaskList = &xDelayedTaskList2;
 8003e30:	4b0a      	ldr	r3, [pc, #40]	@ (8003e5c <prvInitialiseTaskLists+0x7c>)
 8003e32:	4a05      	ldr	r2, [pc, #20]	@ (8003e48 <prvInitialiseTaskLists+0x68>)
 8003e34:	601a      	str	r2, [r3, #0]
}
 8003e36:	bf00      	nop
 8003e38:	3708      	adds	r7, #8
 8003e3a:	46bd      	mov	sp, r7
 8003e3c:	bd80      	pop	{r7, pc}
 8003e3e:	bf00      	nop
 8003e40:	20000368 	.word	0x20000368
 8003e44:	200003f4 	.word	0x200003f4
 8003e48:	20000408 	.word	0x20000408
 8003e4c:	20000424 	.word	0x20000424
 8003e50:	20000438 	.word	0x20000438
 8003e54:	20000450 	.word	0x20000450
 8003e58:	2000041c 	.word	0x2000041c
 8003e5c:	20000420 	.word	0x20000420

08003e60 <prvCheckTasksWaitingTermination>:
/*-----------------------------------------------------------*/

static void prvCheckTasksWaitingTermination( void )
{
 8003e60:	b580      	push	{r7, lr}
 8003e62:	b082      	sub	sp, #8
 8003e64:	af00      	add	r7, sp, #0
	{
		TCB_t *pxTCB;

		/* uxDeletedTasksWaitingCleanUp is used to prevent taskENTER_CRITICAL()
		being called too often in the idle task. */
		while( uxDeletedTasksWaitingCleanUp > ( UBaseType_t ) 0U )
 8003e66:	e019      	b.n	8003e9c <prvCheckTasksWaitingTermination+0x3c>
		{
			taskENTER_CRITICAL();
 8003e68:	f000 fa2e 	bl	80042c8 <vPortEnterCritical>
			{
				pxTCB = listGET_OWNER_OF_HEAD_ENTRY( ( &xTasksWaitingTermination ) ); /*lint !e9079 void * is used as this macro is used with timers and co-routines too.  Alignment is known to be fine as the type of the pointer stored and retrieved is the same. */
 8003e6c:	4b10      	ldr	r3, [pc, #64]	@ (8003eb0 <prvCheckTasksWaitingTermination+0x50>)
 8003e6e:	68db      	ldr	r3, [r3, #12]
 8003e70:	68db      	ldr	r3, [r3, #12]
 8003e72:	607b      	str	r3, [r7, #4]
				( void ) uxListRemove( &( pxTCB->xStateListItem ) );
 8003e74:	687b      	ldr	r3, [r7, #4]
 8003e76:	3304      	adds	r3, #4
 8003e78:	4618      	mov	r0, r3
 8003e7a:	f7ff fb6d 	bl	8003558 <uxListRemove>
				--uxCurrentNumberOfTasks;
 8003e7e:	4b0d      	ldr	r3, [pc, #52]	@ (8003eb4 <prvCheckTasksWaitingTermination+0x54>)
 8003e80:	681b      	ldr	r3, [r3, #0]
 8003e82:	3b01      	subs	r3, #1
 8003e84:	4a0b      	ldr	r2, [pc, #44]	@ (8003eb4 <prvCheckTasksWaitingTermination+0x54>)
 8003e86:	6013      	str	r3, [r2, #0]
				--uxDeletedTasksWaitingCleanUp;
 8003e88:	4b0b      	ldr	r3, [pc, #44]	@ (8003eb8 <prvCheckTasksWaitingTermination+0x58>)
 8003e8a:	681b      	ldr	r3, [r3, #0]
 8003e8c:	3b01      	subs	r3, #1
 8003e8e:	4a0a      	ldr	r2, [pc, #40]	@ (8003eb8 <prvCheckTasksWaitingTermination+0x58>)
 8003e90:	6013      	str	r3, [r2, #0]
			}
			taskEXIT_CRITICAL();
 8003e92:	f000 fa4b 	bl	800432c <vPortExitCritical>

			prvDeleteTCB( pxTCB );
 8003e96:	6878      	ldr	r0, [r7, #4]
 8003e98:	f000 f810 	bl	8003ebc <prvDeleteTCB>
		while( uxDeletedTasksWaitingCleanUp > ( UBaseType_t ) 0U )
 8003e9c:	4b06      	ldr	r3, [pc, #24]	@ (8003eb8 <prvCheckTasksWaitingTermination+0x58>)
 8003e9e:	681b      	ldr	r3, [r3, #0]
 8003ea0:	2b00      	cmp	r3, #0
 8003ea2:	d1e1      	bne.n	8003e68 <prvCheckTasksWaitingTermination+0x8>
		}
	}
	#endif /* INCLUDE_vTaskDelete */
}
 8003ea4:	bf00      	nop
 8003ea6:	bf00      	nop
 8003ea8:	3708      	adds	r7, #8
 8003eaa:	46bd      	mov	sp, r7
 8003eac:	bd80      	pop	{r7, pc}
 8003eae:	bf00      	nop
 8003eb0:	20000438 	.word	0x20000438
 8003eb4:	20000464 	.word	0x20000464
 8003eb8:	2000044c 	.word	0x2000044c

08003ebc <prvDeleteTCB>:
/*-----------------------------------------------------------*/

#if ( INCLUDE_vTaskDelete == 1 )

	static void prvDeleteTCB( TCB_t *pxTCB )
	{
 8003ebc:	b580      	push	{r7, lr}
 8003ebe:	b084      	sub	sp, #16
 8003ec0:	af00      	add	r7, sp, #0
 8003ec2:	6078      	str	r0, [r7, #4]
		#elif( tskSTATIC_AND_DYNAMIC_ALLOCATION_POSSIBLE != 0 ) /*lint !e731 !e9029 Macro has been consolidated for readability reasons. */
		{
			/* The task could have been allocated statically or dynamically, so
			check what was statically allocated before trying to free the
			memory. */
			if( pxTCB->ucStaticallyAllocated == tskDYNAMICALLY_ALLOCATED_STACK_AND_TCB )
 8003ec4:	687b      	ldr	r3, [r7, #4]
 8003ec6:	f893 3051 	ldrb.w	r3, [r3, #81]	@ 0x51
 8003eca:	2b00      	cmp	r3, #0
 8003ecc:	d108      	bne.n	8003ee0 <prvDeleteTCB+0x24>
			{
				/* Both the stack and TCB were allocated dynamically, so both
				must be freed. */
				vPortFree( pxTCB->pxStack );
 8003ece:	687b      	ldr	r3, [r7, #4]
 8003ed0:	6b1b      	ldr	r3, [r3, #48]	@ 0x30
 8003ed2:	4618      	mov	r0, r3
 8003ed4:	f000 fba6 	bl	8004624 <vPortFree>
				vPortFree( pxTCB );
 8003ed8:	6878      	ldr	r0, [r7, #4]
 8003eda:	f000 fba3 	bl	8004624 <vPortFree>
				configASSERT( pxTCB->ucStaticallyAllocated == tskSTATICALLY_ALLOCATED_STACK_AND_TCB	);
				mtCOVERAGE_TEST_MARKER();
			}
		}
		#endif /* configSUPPORT_DYNAMIC_ALLOCATION */
	}
 8003ede:	e019      	b.n	8003f14 <prvDeleteTCB+0x58>
			else if( pxTCB->ucStaticallyAllocated == tskSTATICALLY_ALLOCATED_STACK_ONLY )
 8003ee0:	687b      	ldr	r3, [r7, #4]
 8003ee2:	f893 3051 	ldrb.w	r3, [r3, #81]	@ 0x51
 8003ee6:	2b01      	cmp	r3, #1
 8003ee8:	d103      	bne.n	8003ef2 <prvDeleteTCB+0x36>
				vPortFree( pxTCB );
 8003eea:	6878      	ldr	r0, [r7, #4]
 8003eec:	f000 fb9a 	bl	8004624 <vPortFree>
	}
 8003ef0:	e010      	b.n	8003f14 <prvDeleteTCB+0x58>
				configASSERT( pxTCB->ucStaticallyAllocated == tskSTATICALLY_ALLOCATED_STACK_AND_TCB	);
 8003ef2:	687b      	ldr	r3, [r7, #4]
 8003ef4:	f893 3051 	ldrb.w	r3, [r3, #81]	@ 0x51
 8003ef8:	2b02      	cmp	r3, #2
 8003efa:	d00b      	beq.n	8003f14 <prvDeleteTCB+0x58>
	__asm volatile
 8003efc:	f04f 0350 	mov.w	r3, #80	@ 0x50
 8003f00:	f383 8811 	msr	BASEPRI, r3
 8003f04:	f3bf 8f6f 	isb	sy
 8003f08:	f3bf 8f4f 	dsb	sy
 8003f0c:	60fb      	str	r3, [r7, #12]
}
 8003f0e:	bf00      	nop
 8003f10:	bf00      	nop
 8003f12:	e7fd      	b.n	8003f10 <prvDeleteTCB+0x54>
	}
 8003f14:	bf00      	nop
 8003f16:	3710      	adds	r7, #16
 8003f18:	46bd      	mov	sp, r7
 8003f1a:	bd80      	pop	{r7, pc}

08003f1c <prvResetNextTaskUnblockTime>:

#endif /* INCLUDE_vTaskDelete */
/*-----------------------------------------------------------*/

static void prvResetNextTaskUnblockTime( void )
{
 8003f1c:	b480      	push	{r7}
 8003f1e:	b083      	sub	sp, #12
 8003f20:	af00      	add	r7, sp, #0
TCB_t *pxTCB;

	if( listLIST_IS_EMPTY( pxDelayedTaskList ) != pdFALSE )
 8003f22:	4b0c      	ldr	r3, [pc, #48]	@ (8003f54 <prvResetNextTaskUnblockTime+0x38>)
 8003f24:	681b      	ldr	r3, [r3, #0]
 8003f26:	681b      	ldr	r3, [r3, #0]
 8003f28:	2b00      	cmp	r3, #0
 8003f2a:	d104      	bne.n	8003f36 <prvResetNextTaskUnblockTime+0x1a>
	{
		/* The new current delayed list is empty.  Set xNextTaskUnblockTime to
		the maximum possible value so it is	extremely unlikely that the
		if( xTickCount >= xNextTaskUnblockTime ) test will pass until
		there is an item in the delayed list. */
		xNextTaskUnblockTime = portMAX_DELAY;
 8003f2c:	4b0a      	ldr	r3, [pc, #40]	@ (8003f58 <prvResetNextTaskUnblockTime+0x3c>)
 8003f2e:	f04f 32ff 	mov.w	r2, #4294967295
 8003f32:	601a      	str	r2, [r3, #0]
		which the task at the head of the delayed list should be removed
		from the Blocked state. */
		( pxTCB ) = listGET_OWNER_OF_HEAD_ENTRY( pxDelayedTaskList ); /*lint !e9079 void * is used as this macro is used with timers and co-routines too.  Alignment is known to be fine as the type of the pointer stored and retrieved is the same. */
		xNextTaskUnblockTime = listGET_LIST_ITEM_VALUE( &( ( pxTCB )->xStateListItem ) );
	}
}
 8003f34:	e008      	b.n	8003f48 <prvResetNextTaskUnblockTime+0x2c>
		( pxTCB ) = listGET_OWNER_OF_HEAD_ENTRY( pxDelayedTaskList ); /*lint !e9079 void * is used as this macro is used with timers and co-routines too.  Alignment is known to be fine as the type of the pointer stored and retrieved is the same. */
 8003f36:	4b07      	ldr	r3, [pc, #28]	@ (8003f54 <prvResetNextTaskUnblockTime+0x38>)
 8003f38:	681b      	ldr	r3, [r3, #0]
 8003f3a:	68db      	ldr	r3, [r3, #12]
 8003f3c:	68db      	ldr	r3, [r3, #12]
 8003f3e:	607b      	str	r3, [r7, #4]
		xNextTaskUnblockTime = listGET_LIST_ITEM_VALUE( &( ( pxTCB )->xStateListItem ) );
 8003f40:	687b      	ldr	r3, [r7, #4]
 8003f42:	685b      	ldr	r3, [r3, #4]
 8003f44:	4a04      	ldr	r2, [pc, #16]	@ (8003f58 <prvResetNextTaskUnblockTime+0x3c>)
 8003f46:	6013      	str	r3, [r2, #0]
}
 8003f48:	bf00      	nop
 8003f4a:	370c      	adds	r7, #12
 8003f4c:	46bd      	mov	sp, r7
 8003f4e:	f85d 7b04 	ldr.w	r7, [sp], #4
 8003f52:	4770      	bx	lr
 8003f54:	2000041c 	.word	0x2000041c
 8003f58:	20000484 	.word	0x20000484

08003f5c <xTaskGetSchedulerState>:
/*-----------------------------------------------------------*/

#if ( ( INCLUDE_xTaskGetSchedulerState == 1 ) || ( configUSE_TIMERS == 1 ) )

	BaseType_t xTaskGetSchedulerState( void )
	{
 8003f5c:	b480      	push	{r7}
 8003f5e:	b083      	sub	sp, #12
 8003f60:	af00      	add	r7, sp, #0
	BaseType_t xReturn;

		if( xSchedulerRunning == pdFALSE )
 8003f62:	4b0b      	ldr	r3, [pc, #44]	@ (8003f90 <xTaskGetSchedulerState+0x34>)
 8003f64:	681b      	ldr	r3, [r3, #0]
 8003f66:	2b00      	cmp	r3, #0
 8003f68:	d102      	bne.n	8003f70 <xTaskGetSchedulerState+0x14>
		{
			xReturn = taskSCHEDULER_NOT_STARTED;
 8003f6a:	2301      	movs	r3, #1
 8003f6c:	607b      	str	r3, [r7, #4]
 8003f6e:	e008      	b.n	8003f82 <xTaskGetSchedulerState+0x26>
		}
		else
		{
			if( uxSchedulerSuspended == ( UBaseType_t ) pdFALSE )
 8003f70:	4b08      	ldr	r3, [pc, #32]	@ (8003f94 <xTaskGetSchedulerState+0x38>)
 8003f72:	681b      	ldr	r3, [r3, #0]
 8003f74:	2b00      	cmp	r3, #0
 8003f76:	d102      	bne.n	8003f7e <xTaskGetSchedulerState+0x22>
			{
				xReturn = taskSCHEDULER_RUNNING;
 8003f78:	2302      	movs	r3, #2
 8003f7a:	607b      	str	r3, [r7, #4]
 8003f7c:	e001      	b.n	8003f82 <xTaskGetSchedulerState+0x26>
			}
			else
			{
				xReturn = taskSCHEDULER_SUSPENDED;
 8003f7e:	2300      	movs	r3, #0
 8003f80:	607b      	str	r3, [r7, #4]
			}
		}

		return xReturn;
 8003f82:	687b      	ldr	r3, [r7, #4]
	}
 8003f84:	4618      	mov	r0, r3
 8003f86:	370c      	adds	r7, #12
 8003f88:	46bd      	mov	sp, r7
 8003f8a:	f85d 7b04 	ldr.w	r7, [sp], #4
 8003f8e:	4770      	bx	lr
 8003f90:	20000470 	.word	0x20000470
 8003f94:	2000048c 	.word	0x2000048c

08003f98 <prvAddCurrentTaskToDelayedList>:

#endif
/*-----------------------------------------------------------*/

static void prvAddCurrentTaskToDelayedList( TickType_t xTicksToWait, const BaseType_t xCanBlockIndefinitely )
{
 8003f98:	b580      	push	{r7, lr}
 8003f9a:	b084      	sub	sp, #16
 8003f9c:	af00      	add	r7, sp, #0
 8003f9e:	6078      	str	r0, [r7, #4]
 8003fa0:	6039      	str	r1, [r7, #0]
TickType_t xTimeToWake;
const TickType_t xConstTickCount = xTickCount;
 8003fa2:	4b29      	ldr	r3, [pc, #164]	@ (8004048 <prvAddCurrentTaskToDelayedList+0xb0>)
 8003fa4:	681b      	ldr	r3, [r3, #0]
 8003fa6:	60fb      	str	r3, [r7, #12]
	}
	#endif

	/* Remove the task from the ready list before adding it to the blocked list
	as the same list item is used for both lists. */
	if( uxListRemove( &( pxCurrentTCB->xStateListItem ) ) == ( UBaseType_t ) 0 )
 8003fa8:	4b28      	ldr	r3, [pc, #160]	@ (800404c <prvAddCurrentTaskToDelayedList+0xb4>)
 8003faa:	681b      	ldr	r3, [r3, #0]
 8003fac:	3304      	adds	r3, #4
 8003fae:	4618      	mov	r0, r3
 8003fb0:	f7ff fad2 	bl	8003558 <uxListRemove>
 8003fb4:	4603      	mov	r3, r0
 8003fb6:	2b00      	cmp	r3, #0
 8003fb8:	d10b      	bne.n	8003fd2 <prvAddCurrentTaskToDelayedList+0x3a>
	{
		/* The current task must be in a ready list, so there is no need to
		check, and the port reset macro can be called directly. */
		portRESET_READY_PRIORITY( pxCurrentTCB->uxPriority, uxTopReadyPriority ); /*lint !e931 pxCurrentTCB cannot change as it is the calling task.  pxCurrentTCB->uxPriority and uxTopReadyPriority cannot change as called with scheduler suspended or in a critical section. */
 8003fba:	4b24      	ldr	r3, [pc, #144]	@ (800404c <prvAddCurrentTaskToDelayedList+0xb4>)
 8003fbc:	681b      	ldr	r3, [r3, #0]
 8003fbe:	6adb      	ldr	r3, [r3, #44]	@ 0x2c
 8003fc0:	2201      	movs	r2, #1
 8003fc2:	fa02 f303 	lsl.w	r3, r2, r3
 8003fc6:	43da      	mvns	r2, r3
 8003fc8:	4b21      	ldr	r3, [pc, #132]	@ (8004050 <prvAddCurrentTaskToDelayedList+0xb8>)
 8003fca:	681b      	ldr	r3, [r3, #0]
 8003fcc:	4013      	ands	r3, r2
 8003fce:	4a20      	ldr	r2, [pc, #128]	@ (8004050 <prvAddCurrentTaskToDelayedList+0xb8>)
 8003fd0:	6013      	str	r3, [r2, #0]
		mtCOVERAGE_TEST_MARKER();
	}

	#if ( INCLUDE_vTaskSuspend == 1 )
	{
		if( ( xTicksToWait == portMAX_DELAY ) && ( xCanBlockIndefinitely != pdFALSE ) )
 8003fd2:	687b      	ldr	r3, [r7, #4]
 8003fd4:	f1b3 3fff 	cmp.w	r3, #4294967295
 8003fd8:	d10a      	bne.n	8003ff0 <prvAddCurrentTaskToDelayedList+0x58>
 8003fda:	683b      	ldr	r3, [r7, #0]
 8003fdc:	2b00      	cmp	r3, #0
 8003fde:	d007      	beq.n	8003ff0 <prvAddCurrentTaskToDelayedList+0x58>
		{
			/* Add the task to the suspended task list instead of a delayed task
			list to ensure it is not woken by a timing event.  It will block
			indefinitely. */
			vListInsertEnd( &xSuspendedTaskList, &( pxCurrentTCB->xStateListItem ) );
 8003fe0:	4b1a      	ldr	r3, [pc, #104]	@ (800404c <prvAddCurrentTaskToDelayedList+0xb4>)
 8003fe2:	681b      	ldr	r3, [r3, #0]
 8003fe4:	3304      	adds	r3, #4
 8003fe6:	4619      	mov	r1, r3
 8003fe8:	481a      	ldr	r0, [pc, #104]	@ (8004054 <prvAddCurrentTaskToDelayedList+0xbc>)
 8003fea:	f7ff fa58 	bl	800349e <vListInsertEnd>

		/* Avoid compiler warning when INCLUDE_vTaskSuspend is not 1. */
		( void ) xCanBlockIndefinitely;
	}
	#endif /* INCLUDE_vTaskSuspend */
}
 8003fee:	e026      	b.n	800403e <prvAddCurrentTaskToDelayedList+0xa6>
			xTimeToWake = xConstTickCount + xTicksToWait;
 8003ff0:	68fa      	ldr	r2, [r7, #12]
 8003ff2:	687b      	ldr	r3, [r7, #4]
 8003ff4:	4413      	add	r3, r2
 8003ff6:	60bb      	str	r3, [r7, #8]
			listSET_LIST_ITEM_VALUE( &( pxCurrentTCB->xStateListItem ), xTimeToWake );
 8003ff8:	4b14      	ldr	r3, [pc, #80]	@ (800404c <prvAddCurrentTaskToDelayedList+0xb4>)
 8003ffa:	681b      	ldr	r3, [r3, #0]
 8003ffc:	68ba      	ldr	r2, [r7, #8]
 8003ffe:	605a      	str	r2, [r3, #4]
			if( xTimeToWake < xConstTickCount )
 8004000:	68ba      	ldr	r2, [r7, #8]
 8004002:	68fb      	ldr	r3, [r7, #12]
 8004004:	429a      	cmp	r2, r3
 8004006:	d209      	bcs.n	800401c <prvAddCurrentTaskToDelayedList+0x84>
				vListInsert( pxOverflowDelayedTaskList, &( pxCurrentTCB->xStateListItem ) );
 8004008:	4b13      	ldr	r3, [pc, #76]	@ (8004058 <prvAddCurrentTaskToDelayedList+0xc0>)
 800400a:	681a      	ldr	r2, [r3, #0]
 800400c:	4b0f      	ldr	r3, [pc, #60]	@ (800404c <prvAddCurrentTaskToDelayedList+0xb4>)
 800400e:	681b      	ldr	r3, [r3, #0]
 8004010:	3304      	adds	r3, #4
 8004012:	4619      	mov	r1, r3
 8004014:	4610      	mov	r0, r2
 8004016:	f7ff fa66 	bl	80034e6 <vListInsert>
}
 800401a:	e010      	b.n	800403e <prvAddCurrentTaskToDelayedList+0xa6>
				vListInsert( pxDelayedTaskList, &( pxCurrentTCB->xStateListItem ) );
 800401c:	4b0f      	ldr	r3, [pc, #60]	@ (800405c <prvAddCurrentTaskToDelayedList+0xc4>)
 800401e:	681a      	ldr	r2, [r3, #0]
 8004020:	4b0a      	ldr	r3, [pc, #40]	@ (800404c <prvAddCurrentTaskToDelayedList+0xb4>)
 8004022:	681b      	ldr	r3, [r3, #0]
 8004024:	3304      	adds	r3, #4
 8004026:	4619      	mov	r1, r3
 8004028:	4610      	mov	r0, r2
 800402a:	f7ff fa5c 	bl	80034e6 <vListInsert>
				if( xTimeToWake < xNextTaskUnblockTime )
 800402e:	4b0c      	ldr	r3, [pc, #48]	@ (8004060 <prvAddCurrentTaskToDelayedList+0xc8>)
 8004030:	681b      	ldr	r3, [r3, #0]
 8004032:	68ba      	ldr	r2, [r7, #8]
 8004034:	429a      	cmp	r2, r3
 8004036:	d202      	bcs.n	800403e <prvAddCurrentTaskToDelayedList+0xa6>
					xNextTaskUnblockTime = xTimeToWake;
 8004038:	4a09      	ldr	r2, [pc, #36]	@ (8004060 <prvAddCurrentTaskToDelayedList+0xc8>)
 800403a:	68bb      	ldr	r3, [r7, #8]
 800403c:	6013      	str	r3, [r2, #0]
}
 800403e:	bf00      	nop
 8004040:	3710      	adds	r7, #16
 8004042:	46bd      	mov	sp, r7
 8004044:	bd80      	pop	{r7, pc}
 8004046:	bf00      	nop
 8004048:	20000468 	.word	0x20000468
 800404c:	20000364 	.word	0x20000364
 8004050:	2000046c 	.word	0x2000046c
 8004054:	20000450 	.word	0x20000450
 8004058:	20000420 	.word	0x20000420
 800405c:	2000041c 	.word	0x2000041c
 8004060:	20000484 	.word	0x20000484

08004064 <pxPortInitialiseStack>:

/*
 * See header file for description.
 */
StackType_t *pxPortInitialiseStack( StackType_t *pxTopOfStack, TaskFunction_t pxCode, void *pvParameters )
{
 8004064:	b480      	push	{r7}
 8004066:	b085      	sub	sp, #20
 8004068:	af00      	add	r7, sp, #0
 800406a:	60f8      	str	r0, [r7, #12]
 800406c:	60b9      	str	r1, [r7, #8]
 800406e:	607a      	str	r2, [r7, #4]
	/* Simulate the stack frame as it would be created by a context switch
	interrupt. */

	/* Offset added to account for the way the MCU uses the stack on entry/exit
	of interrupts, and to ensure alignment. */
	pxTopOfStack--;
 8004070:	68fb      	ldr	r3, [r7, #12]
 8004072:	3b04      	subs	r3, #4
 8004074:	60fb      	str	r3, [r7, #12]

	*pxTopOfStack = portINITIAL_XPSR;	/* xPSR */
 8004076:	68fb      	ldr	r3, [r7, #12]
 8004078:	f04f 7280 	mov.w	r2, #16777216	@ 0x1000000
 800407c:	601a      	str	r2, [r3, #0]
	pxTopOfStack--;
 800407e:	68fb      	ldr	r3, [r7, #12]
 8004080:	3b04      	subs	r3, #4
 8004082:	60fb      	str	r3, [r7, #12]
	*pxTopOfStack = ( ( StackType_t ) pxCode ) & portSTART_ADDRESS_MASK;	/* PC */
 8004084:	68bb      	ldr	r3, [r7, #8]
 8004086:	f023 0201 	bic.w	r2, r3, #1
 800408a:	68fb      	ldr	r3, [r7, #12]
 800408c:	601a      	str	r2, [r3, #0]
	pxTopOfStack--;
 800408e:	68fb      	ldr	r3, [r7, #12]
 8004090:	3b04      	subs	r3, #4
 8004092:	60fb      	str	r3, [r7, #12]
	*pxTopOfStack = ( StackType_t ) portTASK_RETURN_ADDRESS;	/* LR */
 8004094:	4a0c      	ldr	r2, [pc, #48]	@ (80040c8 <pxPortInitialiseStack+0x64>)
 8004096:	68fb      	ldr	r3, [r7, #12]
 8004098:	601a      	str	r2, [r3, #0]

	/* Save code space by skipping register initialisation. */
	pxTopOfStack -= 5;	/* R12, R3, R2 and R1. */
 800409a:	68fb      	ldr	r3, [r7, #12]
 800409c:	3b14      	subs	r3, #20
 800409e:	60fb      	str	r3, [r7, #12]
	*pxTopOfStack = ( StackType_t ) pvParameters;	/* R0 */
 80040a0:	687a      	ldr	r2, [r7, #4]
 80040a2:	68fb      	ldr	r3, [r7, #12]
 80040a4:	601a      	str	r2, [r3, #0]

	/* A save method is being used that requires each task to maintain its
	own exec return value. */
	pxTopOfStack--;
 80040a6:	68fb      	ldr	r3, [r7, #12]
 80040a8:	3b04      	subs	r3, #4
 80040aa:	60fb      	str	r3, [r7, #12]
	*pxTopOfStack = portINITIAL_EXC_RETURN;
 80040ac:	68fb      	ldr	r3, [r7, #12]
 80040ae:	f06f 0202 	mvn.w	r2, #2
 80040b2:	601a      	str	r2, [r3, #0]

	pxTopOfStack -= 8;	/* R11, R10, R9, R8, R7, R6, R5 and R4. */
 80040b4:	68fb      	ldr	r3, [r7, #12]
 80040b6:	3b20      	subs	r3, #32
 80040b8:	60fb      	str	r3, [r7, #12]

	return pxTopOfStack;
 80040ba:	68fb      	ldr	r3, [r7, #12]
}
 80040bc:	4618      	mov	r0, r3
 80040be:	3714      	adds	r7, #20
 80040c0:	46bd      	mov	sp, r7
 80040c2:	f85d 7b04 	ldr.w	r7, [sp], #4
 80040c6:	4770      	bx	lr
 80040c8:	080040cd 	.word	0x080040cd

080040cc <prvTaskExitError>:
/*-----------------------------------------------------------*/

static void prvTaskExitError( void )
{
 80040cc:	b480      	push	{r7}
 80040ce:	b085      	sub	sp, #20
 80040d0:	af00      	add	r7, sp, #0
volatile uint32_t ulDummy = 0;
 80040d2:	2300      	movs	r3, #0
 80040d4:	607b      	str	r3, [r7, #4]
	its caller as there is nothing to return to.  If a task wants to exit it
	should instead call vTaskDelete( NULL ).

	Artificially force an assert() to be triggered if configASSERT() is
	defined, then stop here so application writers can catch the error. */
	configASSERT( uxCriticalNesting == ~0UL );
 80040d6:	4b13      	ldr	r3, [pc, #76]	@ (8004124 <prvTaskExitError+0x58>)
 80040d8:	681b      	ldr	r3, [r3, #0]
 80040da:	f1b3 3fff 	cmp.w	r3, #4294967295
 80040de:	d00b      	beq.n	80040f8 <prvTaskExitError+0x2c>
	__asm volatile
 80040e0:	f04f 0350 	mov.w	r3, #80	@ 0x50
 80040e4:	f383 8811 	msr	BASEPRI, r3
 80040e8:	f3bf 8f6f 	isb	sy
 80040ec:	f3bf 8f4f 	dsb	sy
 80040f0:	60fb      	str	r3, [r7, #12]
}
 80040f2:	bf00      	nop
 80040f4:	bf00      	nop
 80040f6:	e7fd      	b.n	80040f4 <prvTaskExitError+0x28>
	__asm volatile
 80040f8:	f04f 0350 	mov.w	r3, #80	@ 0x50
 80040fc:	f383 8811 	msr	BASEPRI, r3
 8004100:	f3bf 8f6f 	isb	sy
 8004104:	f3bf 8f4f 	dsb	sy
 8004108:	60bb      	str	r3, [r7, #8]
}
 800410a:	bf00      	nop
	portDISABLE_INTERRUPTS();
	while( ulDummy == 0 )
 800410c:	bf00      	nop
 800410e:	687b      	ldr	r3, [r7, #4]
 8004110:	2b00      	cmp	r3, #0
 8004112:	d0fc      	beq.n	800410e <prvTaskExitError+0x42>
		about code appearing after this function is called - making ulDummy
		volatile makes the compiler think the function could return and
		therefore not output an 'unreachable code' warning for code that appears
		after it. */
	}
}
 8004114:	bf00      	nop
 8004116:	bf00      	nop
 8004118:	3714      	adds	r7, #20
 800411a:	46bd      	mov	sp, r7
 800411c:	f85d 7b04 	ldr.w	r7, [sp], #4
 8004120:	4770      	bx	lr
 8004122:	bf00      	nop
 8004124:	2000000c 	.word	0x2000000c
	...

08004130 <SVC_Handler>:
/*-----------------------------------------------------------*/

void vPortSVCHandler( void )
{
	__asm volatile (
 8004130:	4b07      	ldr	r3, [pc, #28]	@ (8004150 <pxCurrentTCBConst2>)
 8004132:	6819      	ldr	r1, [r3, #0]
 8004134:	6808      	ldr	r0, [r1, #0]
 8004136:	e8b0 4ff0 	ldmia.w	r0!, {r4, r5, r6, r7, r8, r9, sl, fp, lr}
 800413a:	f380 8809 	msr	PSP, r0
 800413e:	f3bf 8f6f 	isb	sy
 8004142:	f04f 0000 	mov.w	r0, #0
 8004146:	f380 8811 	msr	BASEPRI, r0
 800414a:	4770      	bx	lr
 800414c:	f3af 8000 	nop.w

08004150 <pxCurrentTCBConst2>:
 8004150:	20000364 	.word	0x20000364
					"	bx r14							\n"
					"									\n"
					"	.align 4						\n"
					"pxCurrentTCBConst2: .word pxCurrentTCB				\n"
				);
}
 8004154:	bf00      	nop
 8004156:	bf00      	nop

08004158 <prvPortStartFirstTask>:
{
	/* Start the first task.  This also clears the bit that indicates the FPU is
	in use in case the FPU was used before the scheduler was started - which
	would otherwise result in the unnecessary leaving of space in the SVC stack
	for lazy saving of FPU registers. */
	__asm volatile(
 8004158:	4808      	ldr	r0, [pc, #32]	@ (800417c <prvPortStartFirstTask+0x24>)
 800415a:	6800      	ldr	r0, [r0, #0]
 800415c:	6800      	ldr	r0, [r0, #0]
 800415e:	f380 8808 	msr	MSP, r0
 8004162:	f04f 0000 	mov.w	r0, #0
 8004166:	f380 8814 	msr	CONTROL, r0
 800416a:	b662      	cpsie	i
 800416c:	b661      	cpsie	f
 800416e:	f3bf 8f4f 	dsb	sy
 8004172:	f3bf 8f6f 	isb	sy
 8004176:	df00      	svc	0
 8004178:	bf00      	nop
					" dsb					\n"
					" isb					\n"
					" svc 0					\n" /* System call to start first task. */
					" nop					\n"
				);
}
 800417a:	bf00      	nop
 800417c:	e000ed08 	.word	0xe000ed08

08004180 <xPortStartScheduler>:

/*
 * See header file for description.
 */
BaseType_t xPortStartScheduler( void )
{
 8004180:	b580      	push	{r7, lr}
 8004182:	b086      	sub	sp, #24
 8004184:	af00      	add	r7, sp, #0
	configASSERT( configMAX_SYSCALL_INTERRUPT_PRIORITY );

	/* This port can be used on all revisions of the Cortex-M7 core other than
	the r0p1 parts.  r0p1 parts should use the port from the
	/source/portable/GCC/ARM_CM7/r0p1 directory. */
	configASSERT( portCPUID != portCORTEX_M7_r0p1_ID );
 8004186:	4b47      	ldr	r3, [pc, #284]	@ (80042a4 <xPortStartScheduler+0x124>)
 8004188:	681b      	ldr	r3, [r3, #0]
 800418a:	4a47      	ldr	r2, [pc, #284]	@ (80042a8 <xPortStartScheduler+0x128>)
 800418c:	4293      	cmp	r3, r2
 800418e:	d10b      	bne.n	80041a8 <xPortStartScheduler+0x28>
	__asm volatile
 8004190:	f04f 0350 	mov.w	r3, #80	@ 0x50
 8004194:	f383 8811 	msr	BASEPRI, r3
 8004198:	f3bf 8f6f 	isb	sy
 800419c:	f3bf 8f4f 	dsb	sy
 80041a0:	60fb      	str	r3, [r7, #12]
}
 80041a2:	bf00      	nop
 80041a4:	bf00      	nop
 80041a6:	e7fd      	b.n	80041a4 <xPortStartScheduler+0x24>
	configASSERT( portCPUID != portCORTEX_M7_r0p0_ID );
 80041a8:	4b3e      	ldr	r3, [pc, #248]	@ (80042a4 <xPortStartScheduler+0x124>)
 80041aa:	681b      	ldr	r3, [r3, #0]
 80041ac:	4a3f      	ldr	r2, [pc, #252]	@ (80042ac <xPortStartScheduler+0x12c>)
 80041ae:	4293      	cmp	r3, r2
 80041b0:	d10b      	bne.n	80041ca <xPortStartScheduler+0x4a>
	__asm volatile
 80041b2:	f04f 0350 	mov.w	r3, #80	@ 0x50
 80041b6:	f383 8811 	msr	BASEPRI, r3
 80041ba:	f3bf 8f6f 	isb	sy
 80041be:	f3bf 8f4f 	dsb	sy
 80041c2:	613b      	str	r3, [r7, #16]
}
 80041c4:	bf00      	nop
 80041c6:	bf00      	nop
 80041c8:	e7fd      	b.n	80041c6 <xPortStartScheduler+0x46>

	#if( configASSERT_DEFINED == 1 )
	{
		volatile uint32_t ulOriginalPriority;
		volatile uint8_t * const pucFirstUserPriorityRegister = ( volatile uint8_t * const ) ( portNVIC_IP_REGISTERS_OFFSET_16 + portFIRST_USER_INTERRUPT_NUMBER );
 80041ca:	4b39      	ldr	r3, [pc, #228]	@ (80042b0 <xPortStartScheduler+0x130>)
 80041cc:	617b      	str	r3, [r7, #20]
		functions can be called.  ISR safe functions are those that end in
		"FromISR".  FreeRTOS maintains separate thread and ISR API functions to
		ensure interrupt entry is as fast and simple as possible.

		Save the interrupt priority value that is about to be clobbered. */
		ulOriginalPriority = *pucFirstUserPriorityRegister;
 80041ce:	697b      	ldr	r3, [r7, #20]
 80041d0:	781b      	ldrb	r3, [r3, #0]
 80041d2:	b2db      	uxtb	r3, r3
 80041d4:	607b      	str	r3, [r7, #4]

		/* Determine the number of priority bits available.  First write to all
		possible bits. */
		*pucFirstUserPriorityRegister = portMAX_8_BIT_VALUE;
 80041d6:	697b      	ldr	r3, [r7, #20]
 80041d8:	22ff      	movs	r2, #255	@ 0xff
 80041da:	701a      	strb	r2, [r3, #0]

		/* Read the value back to see how many bits stuck. */
		ucMaxPriorityValue = *pucFirstUserPriorityRegister;
 80041dc:	697b      	ldr	r3, [r7, #20]
 80041de:	781b      	ldrb	r3, [r3, #0]
 80041e0:	b2db      	uxtb	r3, r3
 80041e2:	70fb      	strb	r3, [r7, #3]

		/* Use the same mask on the maximum system call priority. */
		ucMaxSysCallPriority = configMAX_SYSCALL_INTERRUPT_PRIORITY & ucMaxPriorityValue;
 80041e4:	78fb      	ldrb	r3, [r7, #3]
 80041e6:	b2db      	uxtb	r3, r3
 80041e8:	f003 0350 	and.w	r3, r3, #80	@ 0x50
 80041ec:	b2da      	uxtb	r2, r3
 80041ee:	4b31      	ldr	r3, [pc, #196]	@ (80042b4 <xPortStartScheduler+0x134>)
 80041f0:	701a      	strb	r2, [r3, #0]

		/* Calculate the maximum acceptable priority group value for the number
		of bits read back. */
		ulMaxPRIGROUPValue = portMAX_PRIGROUP_BITS;
 80041f2:	4b31      	ldr	r3, [pc, #196]	@ (80042b8 <xPortStartScheduler+0x138>)
 80041f4:	2207      	movs	r2, #7
 80041f6:	601a      	str	r2, [r3, #0]
		while( ( ucMaxPriorityValue & portTOP_BIT_OF_BYTE ) == portTOP_BIT_OF_BYTE )
 80041f8:	e009      	b.n	800420e <xPortStartScheduler+0x8e>
		{
			ulMaxPRIGROUPValue--;
 80041fa:	4b2f      	ldr	r3, [pc, #188]	@ (80042b8 <xPortStartScheduler+0x138>)
 80041fc:	681b      	ldr	r3, [r3, #0]
 80041fe:	3b01      	subs	r3, #1
 8004200:	4a2d      	ldr	r2, [pc, #180]	@ (80042b8 <xPortStartScheduler+0x138>)
 8004202:	6013      	str	r3, [r2, #0]
			ucMaxPriorityValue <<= ( uint8_t ) 0x01;
 8004204:	78fb      	ldrb	r3, [r7, #3]
 8004206:	b2db      	uxtb	r3, r3
 8004208:	005b      	lsls	r3, r3, #1
 800420a:	b2db      	uxtb	r3, r3
 800420c:	70fb      	strb	r3, [r7, #3]
		while( ( ucMaxPriorityValue & portTOP_BIT_OF_BYTE ) == portTOP_BIT_OF_BYTE )
 800420e:	78fb      	ldrb	r3, [r7, #3]
 8004210:	b2db      	uxtb	r3, r3
 8004212:	f003 0380 	and.w	r3, r3, #128	@ 0x80
 8004216:	2b80      	cmp	r3, #128	@ 0x80
 8004218:	d0ef      	beq.n	80041fa <xPortStartScheduler+0x7a>
		#ifdef configPRIO_BITS
		{
			/* Check the FreeRTOS configuration that defines the number of
			priority bits matches the number of priority bits actually queried
			from the hardware. */
			configASSERT( ( portMAX_PRIGROUP_BITS - ulMaxPRIGROUPValue ) == configPRIO_BITS );
 800421a:	4b27      	ldr	r3, [pc, #156]	@ (80042b8 <xPortStartScheduler+0x138>)
 800421c:	681b      	ldr	r3, [r3, #0]
 800421e:	f1c3 0307 	rsb	r3, r3, #7
 8004222:	2b04      	cmp	r3, #4
 8004224:	d00b      	beq.n	800423e <xPortStartScheduler+0xbe>
	__asm volatile
 8004226:	f04f 0350 	mov.w	r3, #80	@ 0x50
 800422a:	f383 8811 	msr	BASEPRI, r3
 800422e:	f3bf 8f6f 	isb	sy
 8004232:	f3bf 8f4f 	dsb	sy
 8004236:	60bb      	str	r3, [r7, #8]
}
 8004238:	bf00      	nop
 800423a:	bf00      	nop
 800423c:	e7fd      	b.n	800423a <xPortStartScheduler+0xba>
		}
		#endif

		/* Shift the priority group value back to its position within the AIRCR
		register. */
		ulMaxPRIGROUPValue <<= portPRIGROUP_SHIFT;
 800423e:	4b1e      	ldr	r3, [pc, #120]	@ (80042b8 <xPortStartScheduler+0x138>)
 8004240:	681b      	ldr	r3, [r3, #0]
 8004242:	021b      	lsls	r3, r3, #8
 8004244:	4a1c      	ldr	r2, [pc, #112]	@ (80042b8 <xPortStartScheduler+0x138>)
 8004246:	6013      	str	r3, [r2, #0]
		ulMaxPRIGROUPValue &= portPRIORITY_GROUP_MASK;
 8004248:	4b1b      	ldr	r3, [pc, #108]	@ (80042b8 <xPortStartScheduler+0x138>)
 800424a:	681b      	ldr	r3, [r3, #0]
 800424c:	f403 63e0 	and.w	r3, r3, #1792	@ 0x700
 8004250:	4a19      	ldr	r2, [pc, #100]	@ (80042b8 <xPortStartScheduler+0x138>)
 8004252:	6013      	str	r3, [r2, #0]

		/* Restore the clobbered interrupt priority register to its original
		value. */
		*pucFirstUserPriorityRegister = ulOriginalPriority;
 8004254:	687b      	ldr	r3, [r7, #4]
 8004256:	b2da      	uxtb	r2, r3
 8004258:	697b      	ldr	r3, [r7, #20]
 800425a:	701a      	strb	r2, [r3, #0]
	}
	#endif /* conifgASSERT_DEFINED */

	/* Make PendSV and SysTick the lowest priority interrupts. */
	portNVIC_SYSPRI2_REG |= portNVIC_PENDSV_PRI;
 800425c:	4b17      	ldr	r3, [pc, #92]	@ (80042bc <xPortStartScheduler+0x13c>)
 800425e:	681b      	ldr	r3, [r3, #0]
 8004260:	4a16      	ldr	r2, [pc, #88]	@ (80042bc <xPortStartScheduler+0x13c>)
 8004262:	f443 0370 	orr.w	r3, r3, #15728640	@ 0xf00000
 8004266:	6013      	str	r3, [r2, #0]
	portNVIC_SYSPRI2_REG |= portNVIC_SYSTICK_PRI;
 8004268:	4b14      	ldr	r3, [pc, #80]	@ (80042bc <xPortStartScheduler+0x13c>)
 800426a:	681b      	ldr	r3, [r3, #0]
 800426c:	4a13      	ldr	r2, [pc, #76]	@ (80042bc <xPortStartScheduler+0x13c>)
 800426e:	f043 4370 	orr.w	r3, r3, #4026531840	@ 0xf0000000
 8004272:	6013      	str	r3, [r2, #0]

	/* Start the timer that generates the tick ISR.  Interrupts are disabled
	here already. */
	vPortSetupTimerInterrupt();
 8004274:	f000 f8da 	bl	800442c <vPortSetupTimerInterrupt>

	/* Initialise the critical nesting count ready for the first task. */
	uxCriticalNesting = 0;
 8004278:	4b11      	ldr	r3, [pc, #68]	@ (80042c0 <xPortStartScheduler+0x140>)
 800427a:	2200      	movs	r2, #0
 800427c:	601a      	str	r2, [r3, #0]

	/* Ensure the VFP is enabled - it should be anyway. */
	vPortEnableVFP();
 800427e:	f000 f8f9 	bl	8004474 <vPortEnableVFP>

	/* Lazy save always. */
	*( portFPCCR ) |= portASPEN_AND_LSPEN_BITS;
 8004282:	4b10      	ldr	r3, [pc, #64]	@ (80042c4 <xPortStartScheduler+0x144>)
 8004284:	681b      	ldr	r3, [r3, #0]
 8004286:	4a0f      	ldr	r2, [pc, #60]	@ (80042c4 <xPortStartScheduler+0x144>)
 8004288:	f043 4340 	orr.w	r3, r3, #3221225472	@ 0xc0000000
 800428c:	6013      	str	r3, [r2, #0]

	/* Start the first task. */
	prvPortStartFirstTask();
 800428e:	f7ff ff63 	bl	8004158 <prvPortStartFirstTask>
	exit error function to prevent compiler warnings about a static function
	not being called in the case that the application writer overrides this
	functionality by defining configTASK_RETURN_ADDRESS.  Call
	vTaskSwitchContext() so link time optimisation does not remove the
	symbol. */
	vTaskSwitchContext();
 8004292:	f7ff fd21 	bl	8003cd8 <vTaskSwitchContext>
	prvTaskExitError();
 8004296:	f7ff ff19 	bl	80040cc <prvTaskExitError>

	/* Should not get here! */
	return 0;
 800429a:	2300      	movs	r3, #0
}
 800429c:	4618      	mov	r0, r3
 800429e:	3718      	adds	r7, #24
 80042a0:	46bd      	mov	sp, r7
 80042a2:	bd80      	pop	{r7, pc}
 80042a4:	e000ed00 	.word	0xe000ed00
 80042a8:	410fc271 	.word	0x410fc271
 80042ac:	410fc270 	.word	0x410fc270
 80042b0:	e000e400 	.word	0xe000e400
 80042b4:	20000490 	.word	0x20000490
 80042b8:	20000494 	.word	0x20000494
 80042bc:	e000ed20 	.word	0xe000ed20
 80042c0:	2000000c 	.word	0x2000000c
 80042c4:	e000ef34 	.word	0xe000ef34

080042c8 <vPortEnterCritical>:
	configASSERT( uxCriticalNesting == 1000UL );
}
/*-----------------------------------------------------------*/

void vPortEnterCritical( void )
{
 80042c8:	b480      	push	{r7}
 80042ca:	b083      	sub	sp, #12
 80042cc:	af00      	add	r7, sp, #0
	__asm volatile
 80042ce:	f04f 0350 	mov.w	r3, #80	@ 0x50
 80042d2:	f383 8811 	msr	BASEPRI, r3
 80042d6:	f3bf 8f6f 	isb	sy
 80042da:	f3bf 8f4f 	dsb	sy
 80042de:	607b      	str	r3, [r7, #4]
}
 80042e0:	bf00      	nop
	portDISABLE_INTERRUPTS();
	uxCriticalNesting++;
 80042e2:	4b10      	ldr	r3, [pc, #64]	@ (8004324 <vPortEnterCritical+0x5c>)
 80042e4:	681b      	ldr	r3, [r3, #0]
 80042e6:	3301      	adds	r3, #1
 80042e8:	4a0e      	ldr	r2, [pc, #56]	@ (8004324 <vPortEnterCritical+0x5c>)
 80042ea:	6013      	str	r3, [r2, #0]
	/* This is not the interrupt safe version of the enter critical function so
	assert() if it is being called from an interrupt context.  Only API
	functions that end in "FromISR" can be used in an interrupt.  Only assert if
	the critical nesting count is 1 to protect against recursive calls if the
	assert function also uses a critical section. */
	if( uxCriticalNesting == 1 )
 80042ec:	4b0d      	ldr	r3, [pc, #52]	@ (8004324 <vPortEnterCritical+0x5c>)
 80042ee:	681b      	ldr	r3, [r3, #0]
 80042f0:	2b01      	cmp	r3, #1
 80042f2:	d110      	bne.n	8004316 <vPortEnterCritical+0x4e>
	{
		configASSERT( ( portNVIC_INT_CTRL_REG & portVECTACTIVE_MASK ) == 0 );
 80042f4:	4b0c      	ldr	r3, [pc, #48]	@ (8004328 <vPortEnterCritical+0x60>)
 80042f6:	681b      	ldr	r3, [r3, #0]
 80042f8:	b2db      	uxtb	r3, r3
 80042fa:	2b00      	cmp	r3, #0
 80042fc:	d00b      	beq.n	8004316 <vPortEnterCritical+0x4e>
	__asm volatile
 80042fe:	f04f 0350 	mov.w	r3, #80	@ 0x50
 8004302:	f383 8811 	msr	BASEPRI, r3
 8004306:	f3bf 8f6f 	isb	sy
 800430a:	f3bf 8f4f 	dsb	sy
 800430e:	603b      	str	r3, [r7, #0]
}
 8004310:	bf00      	nop
 8004312:	bf00      	nop
 8004314:	e7fd      	b.n	8004312 <vPortEnterCritical+0x4a>
	}
}
 8004316:	bf00      	nop
 8004318:	370c      	adds	r7, #12
 800431a:	46bd      	mov	sp, r7
 800431c:	f85d 7b04 	ldr.w	r7, [sp], #4
 8004320:	4770      	bx	lr
 8004322:	bf00      	nop
 8004324:	2000000c 	.word	0x2000000c
 8004328:	e000ed04 	.word	0xe000ed04

0800432c <vPortExitCritical>:
/*-----------------------------------------------------------*/

void vPortExitCritical( void )
{
 800432c:	b480      	push	{r7}
 800432e:	b083      	sub	sp, #12
 8004330:	af00      	add	r7, sp, #0
	configASSERT( uxCriticalNesting );
 8004332:	4b12      	ldr	r3, [pc, #72]	@ (800437c <vPortExitCritical+0x50>)
 8004334:	681b      	ldr	r3, [r3, #0]
 8004336:	2b00      	cmp	r3, #0
 8004338:	d10b      	bne.n	8004352 <vPortExitCritical+0x26>
	__asm volatile
 800433a:	f04f 0350 	mov.w	r3, #80	@ 0x50
 800433e:	f383 8811 	msr	BASEPRI, r3
 8004342:	f3bf 8f6f 	isb	sy
 8004346:	f3bf 8f4f 	dsb	sy
 800434a:	607b      	str	r3, [r7, #4]
}
 800434c:	bf00      	nop
 800434e:	bf00      	nop
 8004350:	e7fd      	b.n	800434e <vPortExitCritical+0x22>
	uxCriticalNesting--;
 8004352:	4b0a      	ldr	r3, [pc, #40]	@ (800437c <vPortExitCritical+0x50>)
 8004354:	681b      	ldr	r3, [r3, #0]
 8004356:	3b01      	subs	r3, #1
 8004358:	4a08      	ldr	r2, [pc, #32]	@ (800437c <vPortExitCritical+0x50>)
 800435a:	6013      	str	r3, [r2, #0]
	if( uxCriticalNesting == 0 )
 800435c:	4b07      	ldr	r3, [pc, #28]	@ (800437c <vPortExitCritical+0x50>)
 800435e:	681b      	ldr	r3, [r3, #0]
 8004360:	2b00      	cmp	r3, #0
 8004362:	d105      	bne.n	8004370 <vPortExitCritical+0x44>
 8004364:	2300      	movs	r3, #0
 8004366:	603b      	str	r3, [r7, #0]
}
/*-----------------------------------------------------------*/

portFORCE_INLINE static void vPortSetBASEPRI( uint32_t ulNewMaskValue )
{
	__asm volatile
 8004368:	683b      	ldr	r3, [r7, #0]
 800436a:	f383 8811 	msr	BASEPRI, r3
	(
		"	msr basepri, %0	" :: "r" ( ulNewMaskValue ) : "memory"
	);
}
 800436e:	bf00      	nop
	{
		portENABLE_INTERRUPTS();
	}
}
 8004370:	bf00      	nop
 8004372:	370c      	adds	r7, #12
 8004374:	46bd      	mov	sp, r7
 8004376:	f85d 7b04 	ldr.w	r7, [sp], #4
 800437a:	4770      	bx	lr
 800437c:	2000000c 	.word	0x2000000c

08004380 <PendSV_Handler>:

void xPortPendSVHandler( void )
{
	/* This is a naked function. */

	__asm volatile
 8004380:	f3ef 8009 	mrs	r0, PSP
 8004384:	f3bf 8f6f 	isb	sy
 8004388:	4b15      	ldr	r3, [pc, #84]	@ (80043e0 <pxCurrentTCBConst>)
 800438a:	681a      	ldr	r2, [r3, #0]
 800438c:	f01e 0f10 	tst.w	lr, #16
 8004390:	bf08      	it	eq
 8004392:	ed20 8a10 	vstmdbeq	r0!, {s16-s31}
 8004396:	e920 4ff0 	stmdb	r0!, {r4, r5, r6, r7, r8, r9, sl, fp, lr}
 800439a:	6010      	str	r0, [r2, #0]
 800439c:	e92d 0009 	stmdb	sp!, {r0, r3}
 80043a0:	f04f 0050 	mov.w	r0, #80	@ 0x50
 80043a4:	f380 8811 	msr	BASEPRI, r0
 80043a8:	f3bf 8f4f 	dsb	sy
 80043ac:	f3bf 8f6f 	isb	sy
 80043b0:	f7ff fc92 	bl	8003cd8 <vTaskSwitchContext>
 80043b4:	f04f 0000 	mov.w	r0, #0
 80043b8:	f380 8811 	msr	BASEPRI, r0
 80043bc:	bc09      	pop	{r0, r3}
 80043be:	6819      	ldr	r1, [r3, #0]
 80043c0:	6808      	ldr	r0, [r1, #0]
 80043c2:	e8b0 4ff0 	ldmia.w	r0!, {r4, r5, r6, r7, r8, r9, sl, fp, lr}
 80043c6:	f01e 0f10 	tst.w	lr, #16
 80043ca:	bf08      	it	eq
 80043cc:	ecb0 8a10 	vldmiaeq	r0!, {s16-s31}
 80043d0:	f380 8809 	msr	PSP, r0
 80043d4:	f3bf 8f6f 	isb	sy
 80043d8:	4770      	bx	lr
 80043da:	bf00      	nop
 80043dc:	f3af 8000 	nop.w

080043e0 <pxCurrentTCBConst>:
 80043e0:	20000364 	.word	0x20000364
	"										\n"
	"	.align 4							\n"
	"pxCurrentTCBConst: .word pxCurrentTCB	\n"
	::"i"(configMAX_SYSCALL_INTERRUPT_PRIORITY)
	);
}
 80043e4:	bf00      	nop
 80043e6:	bf00      	nop

080043e8 <xPortSysTickHandler>:
/*-----------------------------------------------------------*/

void xPortSysTickHandler( void )
{
 80043e8:	b580      	push	{r7, lr}
 80043ea:	b082      	sub	sp, #8
 80043ec:	af00      	add	r7, sp, #0
	__asm volatile
 80043ee:	f04f 0350 	mov.w	r3, #80	@ 0x50
 80043f2:	f383 8811 	msr	BASEPRI, r3
 80043f6:	f3bf 8f6f 	isb	sy
 80043fa:	f3bf 8f4f 	dsb	sy
 80043fe:	607b      	str	r3, [r7, #4]
}
 8004400:	bf00      	nop
	save and then restore the interrupt mask value as its value is already
	known. */
	portDISABLE_INTERRUPTS();
	{
		/* Increment the RTOS tick. */
		if( xTaskIncrementTick() != pdFALSE )
 8004402:	f7ff fbaf 	bl	8003b64 <xTaskIncrementTick>
 8004406:	4603      	mov	r3, r0
 8004408:	2b00      	cmp	r3, #0
 800440a:	d003      	beq.n	8004414 <xPortSysTickHandler+0x2c>
		{
			/* A context switch is required.  Context switching is performed in
			the PendSV interrupt.  Pend the PendSV interrupt. */
			portNVIC_INT_CTRL_REG = portNVIC_PENDSVSET_BIT;
 800440c:	4b06      	ldr	r3, [pc, #24]	@ (8004428 <xPortSysTickHandler+0x40>)
 800440e:	f04f 5280 	mov.w	r2, #268435456	@ 0x10000000
 8004412:	601a      	str	r2, [r3, #0]
 8004414:	2300      	movs	r3, #0
 8004416:	603b      	str	r3, [r7, #0]
	__asm volatile
 8004418:	683b      	ldr	r3, [r7, #0]
 800441a:	f383 8811 	msr	BASEPRI, r3
}
 800441e:	bf00      	nop
		}
	}
	portENABLE_INTERRUPTS();
}
 8004420:	bf00      	nop
 8004422:	3708      	adds	r7, #8
 8004424:	46bd      	mov	sp, r7
 8004426:	bd80      	pop	{r7, pc}
 8004428:	e000ed04 	.word	0xe000ed04

0800442c <vPortSetupTimerInterrupt>:
/*
 * Setup the systick timer to generate the tick interrupts at the required
 * frequency.
 */
__attribute__(( weak )) void vPortSetupTimerInterrupt( void )
{
 800442c:	b480      	push	{r7}
 800442e:	af00      	add	r7, sp, #0
		ulStoppedTimerCompensation = portMISSED_COUNTS_FACTOR / ( configCPU_CLOCK_HZ / configSYSTICK_CLOCK_HZ );
	}
	#endif /* configUSE_TICKLESS_IDLE */

	/* Stop and clear the SysTick. */
	portNVIC_SYSTICK_CTRL_REG = 0UL;
 8004430:	4b0b      	ldr	r3, [pc, #44]	@ (8004460 <vPortSetupTimerInterrupt+0x34>)
 8004432:	2200      	movs	r2, #0
 8004434:	601a      	str	r2, [r3, #0]
	portNVIC_SYSTICK_CURRENT_VALUE_REG = 0UL;
 8004436:	4b0b      	ldr	r3, [pc, #44]	@ (8004464 <vPortSetupTimerInterrupt+0x38>)
 8004438:	2200      	movs	r2, #0
 800443a:	601a      	str	r2, [r3, #0]

	/* Configure SysTick to interrupt at the requested rate. */
	portNVIC_SYSTICK_LOAD_REG = ( configSYSTICK_CLOCK_HZ / configTICK_RATE_HZ ) - 1UL;
 800443c:	4b0a      	ldr	r3, [pc, #40]	@ (8004468 <vPortSetupTimerInterrupt+0x3c>)
 800443e:	681b      	ldr	r3, [r3, #0]
 8004440:	4a0a      	ldr	r2, [pc, #40]	@ (800446c <vPortSetupTimerInterrupt+0x40>)
 8004442:	fba2 2303 	umull	r2, r3, r2, r3
 8004446:	099b      	lsrs	r3, r3, #6
 8004448:	4a09      	ldr	r2, [pc, #36]	@ (8004470 <vPortSetupTimerInterrupt+0x44>)
 800444a:	3b01      	subs	r3, #1
 800444c:	6013      	str	r3, [r2, #0]
	portNVIC_SYSTICK_CTRL_REG = ( portNVIC_SYSTICK_CLK_BIT | portNVIC_SYSTICK_INT_BIT | portNVIC_SYSTICK_ENABLE_BIT );
 800444e:	4b04      	ldr	r3, [pc, #16]	@ (8004460 <vPortSetupTimerInterrupt+0x34>)
 8004450:	2207      	movs	r2, #7
 8004452:	601a      	str	r2, [r3, #0]
}
 8004454:	bf00      	nop
 8004456:	46bd      	mov	sp, r7
 8004458:	f85d 7b04 	ldr.w	r7, [sp], #4
 800445c:	4770      	bx	lr
 800445e:	bf00      	nop
 8004460:	e000e010 	.word	0xe000e010
 8004464:	e000e018 	.word	0xe000e018
 8004468:	20000000 	.word	0x20000000
 800446c:	10624dd3 	.word	0x10624dd3
 8004470:	e000e014 	.word	0xe000e014

08004474 <vPortEnableVFP>:
/*-----------------------------------------------------------*/

/* This is a naked function. */
static void vPortEnableVFP( void )
{
	__asm volatile
 8004474:	f8df 000c 	ldr.w	r0, [pc, #12]	@ 8004484 <vPortEnableVFP+0x10>
 8004478:	6801      	ldr	r1, [r0, #0]
 800447a:	f441 0170 	orr.w	r1, r1, #15728640	@ 0xf00000
 800447e:	6001      	str	r1, [r0, #0]
 8004480:	4770      	bx	lr
		"								\n"
		"	orr r1, r1, #( 0xf << 20 )	\n" /* Enable CP10 and CP11 coprocessors, then save back. */
		"	str r1, [r0]				\n"
		"	bx r14						"
	);
}
 8004482:	bf00      	nop
 8004484:	e000ed88 	.word	0xe000ed88

08004488 <pvPortMalloc>:
static size_t xBlockAllocatedBit = 0;

/*-----------------------------------------------------------*/

void *pvPortMalloc( size_t xWantedSize )
{
 8004488:	b580      	push	{r7, lr}
 800448a:	b08a      	sub	sp, #40	@ 0x28
 800448c:	af00      	add	r7, sp, #0
 800448e:	6078      	str	r0, [r7, #4]
BlockLink_t *pxBlock, *pxPreviousBlock, *pxNewBlockLink;
void *pvReturn = NULL;
 8004490:	2300      	movs	r3, #0
 8004492:	61fb      	str	r3, [r7, #28]

	vTaskSuspendAll();
 8004494:	f7ff faba 	bl	8003a0c <vTaskSuspendAll>
	{
		/* If this is the first call to malloc then the heap will require
		initialisation to setup the list of free blocks. */
		if( pxEnd == NULL )
 8004498:	4b5c      	ldr	r3, [pc, #368]	@ (800460c <pvPortMalloc+0x184>)
 800449a:	681b      	ldr	r3, [r3, #0]
 800449c:	2b00      	cmp	r3, #0
 800449e:	d101      	bne.n	80044a4 <pvPortMalloc+0x1c>
		{
			prvHeapInit();
 80044a0:	f000 f924 	bl	80046ec <prvHeapInit>

		/* Check the requested block size is not so large that the top bit is
		set.  The top bit of the block size member of the BlockLink_t structure
		is used to determine who owns the block - the application or the
		kernel, so it must be free. */
		if( ( xWantedSize & xBlockAllocatedBit ) == 0 )
 80044a4:	4b5a      	ldr	r3, [pc, #360]	@ (8004610 <pvPortMalloc+0x188>)
 80044a6:	681a      	ldr	r2, [r3, #0]
 80044a8:	687b      	ldr	r3, [r7, #4]
 80044aa:	4013      	ands	r3, r2
 80044ac:	2b00      	cmp	r3, #0
 80044ae:	f040 8095 	bne.w	80045dc <pvPortMalloc+0x154>
		{
			/* The wanted size is increased so it can contain a BlockLink_t
			structure in addition to the requested amount of bytes. */
			if( xWantedSize > 0 )
 80044b2:	687b      	ldr	r3, [r7, #4]
 80044b4:	2b00      	cmp	r3, #0
 80044b6:	d01e      	beq.n	80044f6 <pvPortMalloc+0x6e>
			{
				xWantedSize += xHeapStructSize;
 80044b8:	2208      	movs	r2, #8
 80044ba:	687b      	ldr	r3, [r7, #4]
 80044bc:	4413      	add	r3, r2
 80044be:	607b      	str	r3, [r7, #4]

				/* Ensure that blocks are always aligned to the required number
				of bytes. */
				if( ( xWantedSize & portBYTE_ALIGNMENT_MASK ) != 0x00 )
 80044c0:	687b      	ldr	r3, [r7, #4]
 80044c2:	f003 0307 	and.w	r3, r3, #7
 80044c6:	2b00      	cmp	r3, #0
 80044c8:	d015      	beq.n	80044f6 <pvPortMalloc+0x6e>
				{
					/* Byte alignment required. */
					xWantedSize += ( portBYTE_ALIGNMENT - ( xWantedSize & portBYTE_ALIGNMENT_MASK ) );
 80044ca:	687b      	ldr	r3, [r7, #4]
 80044cc:	f023 0307 	bic.w	r3, r3, #7
 80044d0:	3308      	adds	r3, #8
 80044d2:	607b      	str	r3, [r7, #4]
					configASSERT( ( xWantedSize & portBYTE_ALIGNMENT_MASK ) == 0 );
 80044d4:	687b      	ldr	r3, [r7, #4]
 80044d6:	f003 0307 	and.w	r3, r3, #7
 80044da:	2b00      	cmp	r3, #0
 80044dc:	d00b      	beq.n	80044f6 <pvPortMalloc+0x6e>
	__asm volatile
 80044de:	f04f 0350 	mov.w	r3, #80	@ 0x50
 80044e2:	f383 8811 	msr	BASEPRI, r3
 80044e6:	f3bf 8f6f 	isb	sy
 80044ea:	f3bf 8f4f 	dsb	sy
 80044ee:	617b      	str	r3, [r7, #20]
}
 80044f0:	bf00      	nop
 80044f2:	bf00      	nop
 80044f4:	e7fd      	b.n	80044f2 <pvPortMalloc+0x6a>
			else
			{
				mtCOVERAGE_TEST_MARKER();
			}

			if( ( xWantedSize > 0 ) && ( xWantedSize <= xFreeBytesRemaining ) )
 80044f6:	687b      	ldr	r3, [r7, #4]
 80044f8:	2b00      	cmp	r3, #0
 80044fa:	d06f      	beq.n	80045dc <pvPortMalloc+0x154>
 80044fc:	4b45      	ldr	r3, [pc, #276]	@ (8004614 <pvPortMalloc+0x18c>)
 80044fe:	681b      	ldr	r3, [r3, #0]
 8004500:	687a      	ldr	r2, [r7, #4]
 8004502:	429a      	cmp	r2, r3
 8004504:	d86a      	bhi.n	80045dc <pvPortMalloc+0x154>
			{
				/* Traverse the list from the start	(lowest address) block until
				one	of adequate size is found. */
				pxPreviousBlock = &xStart;
 8004506:	4b44      	ldr	r3, [pc, #272]	@ (8004618 <pvPortMalloc+0x190>)
 8004508:	623b      	str	r3, [r7, #32]
				pxBlock = xStart.pxNextFreeBlock;
 800450a:	4b43      	ldr	r3, [pc, #268]	@ (8004618 <pvPortMalloc+0x190>)
 800450c:	681b      	ldr	r3, [r3, #0]
 800450e:	627b      	str	r3, [r7, #36]	@ 0x24
				while( ( pxBlock->xBlockSize < xWantedSize ) && ( pxBlock->pxNextFreeBlock != NULL ) )
 8004510:	e004      	b.n	800451c <pvPortMalloc+0x94>
				{
					pxPreviousBlock = pxBlock;
 8004512:	6a7b      	ldr	r3, [r7, #36]	@ 0x24
 8004514:	623b      	str	r3, [r7, #32]
					pxBlock = pxBlock->pxNextFreeBlock;
 8004516:	6a7b      	ldr	r3, [r7, #36]	@ 0x24
 8004518:	681b      	ldr	r3, [r3, #0]
 800451a:	627b      	str	r3, [r7, #36]	@ 0x24
				while( ( pxBlock->xBlockSize < xWantedSize ) && ( pxBlock->pxNextFreeBlock != NULL ) )
 800451c:	6a7b      	ldr	r3, [r7, #36]	@ 0x24
 800451e:	685b      	ldr	r3, [r3, #4]
 8004520:	687a      	ldr	r2, [r7, #4]
 8004522:	429a      	cmp	r2, r3
 8004524:	d903      	bls.n	800452e <pvPortMalloc+0xa6>
 8004526:	6a7b      	ldr	r3, [r7, #36]	@ 0x24
 8004528:	681b      	ldr	r3, [r3, #0]
 800452a:	2b00      	cmp	r3, #0
 800452c:	d1f1      	bne.n	8004512 <pvPortMalloc+0x8a>
				}

				/* If the end marker was reached then a block of adequate size
				was	not found. */
				if( pxBlock != pxEnd )
 800452e:	4b37      	ldr	r3, [pc, #220]	@ (800460c <pvPortMalloc+0x184>)
 8004530:	681b      	ldr	r3, [r3, #0]
 8004532:	6a7a      	ldr	r2, [r7, #36]	@ 0x24
 8004534:	429a      	cmp	r2, r3
 8004536:	d051      	beq.n	80045dc <pvPortMalloc+0x154>
				{
					/* Return the memory space pointed to - jumping over the
					BlockLink_t structure at its start. */
					pvReturn = ( void * ) ( ( ( uint8_t * ) pxPreviousBlock->pxNextFreeBlock ) + xHeapStructSize );
 8004538:	6a3b      	ldr	r3, [r7, #32]
 800453a:	681b      	ldr	r3, [r3, #0]
 800453c:	2208      	movs	r2, #8
 800453e:	4413      	add	r3, r2
 8004540:	61fb      	str	r3, [r7, #28]

					/* This block is being returned for use so must be taken out
					of the list of free blocks. */
					pxPreviousBlock->pxNextFreeBlock = pxBlock->pxNextFreeBlock;
 8004542:	6a7b      	ldr	r3, [r7, #36]	@ 0x24
 8004544:	681a      	ldr	r2, [r3, #0]
 8004546:	6a3b      	ldr	r3, [r7, #32]
 8004548:	601a      	str	r2, [r3, #0]

					/* If the block is larger than required it can be split into
					two. */
					if( ( pxBlock->xBlockSize - xWantedSize ) > heapMINIMUM_BLOCK_SIZE )
 800454a:	6a7b      	ldr	r3, [r7, #36]	@ 0x24
 800454c:	685a      	ldr	r2, [r3, #4]
 800454e:	687b      	ldr	r3, [r7, #4]
 8004550:	1ad2      	subs	r2, r2, r3
 8004552:	2308      	movs	r3, #8
 8004554:	005b      	lsls	r3, r3, #1
 8004556:	429a      	cmp	r2, r3
 8004558:	d920      	bls.n	800459c <pvPortMalloc+0x114>
					{
						/* This block is to be split into two.  Create a new
						block following the number of bytes requested. The void
						cast is used to prevent byte alignment warnings from the
						compiler. */
						pxNewBlockLink = ( void * ) ( ( ( uint8_t * ) pxBlock ) + xWantedSize );
 800455a:	6a7a      	ldr	r2, [r7, #36]	@ 0x24
 800455c:	687b      	ldr	r3, [r7, #4]
 800455e:	4413      	add	r3, r2
 8004560:	61bb      	str	r3, [r7, #24]
						configASSERT( ( ( ( size_t ) pxNewBlockLink ) & portBYTE_ALIGNMENT_MASK ) == 0 );
 8004562:	69bb      	ldr	r3, [r7, #24]
 8004564:	f003 0307 	and.w	r3, r3, #7
 8004568:	2b00      	cmp	r3, #0
 800456a:	d00b      	beq.n	8004584 <pvPortMalloc+0xfc>
	__asm volatile
 800456c:	f04f 0350 	mov.w	r3, #80	@ 0x50
 8004570:	f383 8811 	msr	BASEPRI, r3
 8004574:	f3bf 8f6f 	isb	sy
 8004578:	f3bf 8f4f 	dsb	sy
 800457c:	613b      	str	r3, [r7, #16]
}
 800457e:	bf00      	nop
 8004580:	bf00      	nop
 8004582:	e7fd      	b.n	8004580 <pvPortMalloc+0xf8>

						/* Calculate the sizes of two blocks split from the
						single block. */
						pxNewBlockLink->xBlockSize = pxBlock->xBlockSize - xWantedSize;
 8004584:	6a7b      	ldr	r3, [r7, #36]	@ 0x24
 8004586:	685a      	ldr	r2, [r3, #4]
 8004588:	687b      	ldr	r3, [r7, #4]
 800458a:	1ad2      	subs	r2, r2, r3
 800458c:	69bb      	ldr	r3, [r7, #24]
 800458e:	605a      	str	r2, [r3, #4]
						pxBlock->xBlockSize = xWantedSize;
 8004590:	6a7b      	ldr	r3, [r7, #36]	@ 0x24
 8004592:	687a      	ldr	r2, [r7, #4]
 8004594:	605a      	str	r2, [r3, #4]

						/* Insert the new block into the list of free blocks. */
						prvInsertBlockIntoFreeList( pxNewBlockLink );
 8004596:	69b8      	ldr	r0, [r7, #24]
 8004598:	f000 f90a 	bl	80047b0 <prvInsertBlockIntoFreeList>
					else
					{
						mtCOVERAGE_TEST_MARKER();
					}

					xFreeBytesRemaining -= pxBlock->xBlockSize;
 800459c:	4b1d      	ldr	r3, [pc, #116]	@ (8004614 <pvPortMalloc+0x18c>)
 800459e:	681a      	ldr	r2, [r3, #0]
 80045a0:	6a7b      	ldr	r3, [r7, #36]	@ 0x24
 80045a2:	685b      	ldr	r3, [r3, #4]
 80045a4:	1ad3      	subs	r3, r2, r3
 80045a6:	4a1b      	ldr	r2, [pc, #108]	@ (8004614 <pvPortMalloc+0x18c>)
 80045a8:	6013      	str	r3, [r2, #0]

					if( xFreeBytesRemaining < xMinimumEverFreeBytesRemaining )
 80045aa:	4b1a      	ldr	r3, [pc, #104]	@ (8004614 <pvPortMalloc+0x18c>)
 80045ac:	681a      	ldr	r2, [r3, #0]
 80045ae:	4b1b      	ldr	r3, [pc, #108]	@ (800461c <pvPortMalloc+0x194>)
 80045b0:	681b      	ldr	r3, [r3, #0]
 80045b2:	429a      	cmp	r2, r3
 80045b4:	d203      	bcs.n	80045be <pvPortMalloc+0x136>
					{
						xMinimumEverFreeBytesRemaining = xFreeBytesRemaining;
 80045b6:	4b17      	ldr	r3, [pc, #92]	@ (8004614 <pvPortMalloc+0x18c>)
 80045b8:	681b      	ldr	r3, [r3, #0]
 80045ba:	4a18      	ldr	r2, [pc, #96]	@ (800461c <pvPortMalloc+0x194>)
 80045bc:	6013      	str	r3, [r2, #0]
						mtCOVERAGE_TEST_MARKER();
					}

					/* The block is being returned - it is allocated and owned
					by the application and has no "next" block. */
					pxBlock->xBlockSize |= xBlockAllocatedBit;
 80045be:	6a7b      	ldr	r3, [r7, #36]	@ 0x24
 80045c0:	685a      	ldr	r2, [r3, #4]
 80045c2:	4b13      	ldr	r3, [pc, #76]	@ (8004610 <pvPortMalloc+0x188>)
 80045c4:	681b      	ldr	r3, [r3, #0]
 80045c6:	431a      	orrs	r2, r3
 80045c8:	6a7b      	ldr	r3, [r7, #36]	@ 0x24
 80045ca:	605a      	str	r2, [r3, #4]
					pxBlock->pxNextFreeBlock = NULL;
 80045cc:	6a7b      	ldr	r3, [r7, #36]	@ 0x24
 80045ce:	2200      	movs	r2, #0
 80045d0:	601a      	str	r2, [r3, #0]
					xNumberOfSuccessfulAllocations++;
 80045d2:	4b13      	ldr	r3, [pc, #76]	@ (8004620 <pvPortMalloc+0x198>)
 80045d4:	681b      	ldr	r3, [r3, #0]
 80045d6:	3301      	adds	r3, #1
 80045d8:	4a11      	ldr	r2, [pc, #68]	@ (8004620 <pvPortMalloc+0x198>)
 80045da:	6013      	str	r3, [r2, #0]
			mtCOVERAGE_TEST_MARKER();
		}

		traceMALLOC( pvReturn, xWantedSize );
	}
	( void ) xTaskResumeAll();
 80045dc:	f7ff fa24 	bl	8003a28 <xTaskResumeAll>
			mtCOVERAGE_TEST_MARKER();
		}
	}
	#endif

	configASSERT( ( ( ( size_t ) pvReturn ) & ( size_t ) portBYTE_ALIGNMENT_MASK ) == 0 );
 80045e0:	69fb      	ldr	r3, [r7, #28]
 80045e2:	f003 0307 	and.w	r3, r3, #7
 80045e6:	2b00      	cmp	r3, #0
 80045e8:	d00b      	beq.n	8004602 <pvPortMalloc+0x17a>
	__asm volatile
 80045ea:	f04f 0350 	mov.w	r3, #80	@ 0x50
 80045ee:	f383 8811 	msr	BASEPRI, r3
 80045f2:	f3bf 8f6f 	isb	sy
 80045f6:	f3bf 8f4f 	dsb	sy
 80045fa:	60fb      	str	r3, [r7, #12]
}
 80045fc:	bf00      	nop
 80045fe:	bf00      	nop
 8004600:	e7fd      	b.n	80045fe <pvPortMalloc+0x176>
	return pvReturn;
 8004602:	69fb      	ldr	r3, [r7, #28]
}
 8004604:	4618      	mov	r0, r3
 8004606:	3728      	adds	r7, #40	@ 0x28
 8004608:	46bd      	mov	sp, r7
 800460a:	bd80      	pop	{r7, pc}
 800460c:	20001058 	.word	0x20001058
 8004610:	2000106c 	.word	0x2000106c
 8004614:	2000105c 	.word	0x2000105c
 8004618:	20001050 	.word	0x20001050
 800461c:	20001060 	.word	0x20001060
 8004620:	20001064 	.word	0x20001064

08004624 <vPortFree>:
/*-----------------------------------------------------------*/

void vPortFree( void *pv )
{
 8004624:	b580      	push	{r7, lr}
 8004626:	b086      	sub	sp, #24
 8004628:	af00      	add	r7, sp, #0
 800462a:	6078      	str	r0, [r7, #4]
uint8_t *puc = ( uint8_t * ) pv;
 800462c:	687b      	ldr	r3, [r7, #4]
 800462e:	617b      	str	r3, [r7, #20]
BlockLink_t *pxLink;

	if( pv != NULL )
 8004630:	687b      	ldr	r3, [r7, #4]
 8004632:	2b00      	cmp	r3, #0
 8004634:	d04f      	beq.n	80046d6 <vPortFree+0xb2>
	{
		/* The memory being freed will have an BlockLink_t structure immediately
		before it. */
		puc -= xHeapStructSize;
 8004636:	2308      	movs	r3, #8
 8004638:	425b      	negs	r3, r3
 800463a:	697a      	ldr	r2, [r7, #20]
 800463c:	4413      	add	r3, r2
 800463e:	617b      	str	r3, [r7, #20]

		/* This casting is to keep the compiler from issuing warnings. */
		pxLink = ( void * ) puc;
 8004640:	697b      	ldr	r3, [r7, #20]
 8004642:	613b      	str	r3, [r7, #16]

		/* Check the block is actually allocated. */
		configASSERT( ( pxLink->xBlockSize & xBlockAllocatedBit ) != 0 );
 8004644:	693b      	ldr	r3, [r7, #16]
 8004646:	685a      	ldr	r2, [r3, #4]
 8004648:	4b25      	ldr	r3, [pc, #148]	@ (80046e0 <vPortFree+0xbc>)
 800464a:	681b      	ldr	r3, [r3, #0]
 800464c:	4013      	ands	r3, r2
 800464e:	2b00      	cmp	r3, #0
 8004650:	d10b      	bne.n	800466a <vPortFree+0x46>
	__asm volatile
 8004652:	f04f 0350 	mov.w	r3, #80	@ 0x50
 8004656:	f383 8811 	msr	BASEPRI, r3
 800465a:	f3bf 8f6f 	isb	sy
 800465e:	f3bf 8f4f 	dsb	sy
 8004662:	60fb      	str	r3, [r7, #12]
}
 8004664:	bf00      	nop
 8004666:	bf00      	nop
 8004668:	e7fd      	b.n	8004666 <vPortFree+0x42>
		configASSERT( pxLink->pxNextFreeBlock == NULL );
 800466a:	693b      	ldr	r3, [r7, #16]
 800466c:	681b      	ldr	r3, [r3, #0]
 800466e:	2b00      	cmp	r3, #0
 8004670:	d00b      	beq.n	800468a <vPortFree+0x66>
	__asm volatile
 8004672:	f04f 0350 	mov.w	r3, #80	@ 0x50
 8004676:	f383 8811 	msr	BASEPRI, r3
 800467a:	f3bf 8f6f 	isb	sy
 800467e:	f3bf 8f4f 	dsb	sy
 8004682:	60bb      	str	r3, [r7, #8]
}
 8004684:	bf00      	nop
 8004686:	bf00      	nop
 8004688:	e7fd      	b.n	8004686 <vPortFree+0x62>

		if( ( pxLink->xBlockSize & xBlockAllocatedBit ) != 0 )
 800468a:	693b      	ldr	r3, [r7, #16]
 800468c:	685a      	ldr	r2, [r3, #4]
 800468e:	4b14      	ldr	r3, [pc, #80]	@ (80046e0 <vPortFree+0xbc>)
 8004690:	681b      	ldr	r3, [r3, #0]
 8004692:	4013      	ands	r3, r2
 8004694:	2b00      	cmp	r3, #0
 8004696:	d01e      	beq.n	80046d6 <vPortFree+0xb2>
		{
			if( pxLink->pxNextFreeBlock == NULL )
 8004698:	693b      	ldr	r3, [r7, #16]
 800469a:	681b      	ldr	r3, [r3, #0]
 800469c:	2b00      	cmp	r3, #0
 800469e:	d11a      	bne.n	80046d6 <vPortFree+0xb2>
			{
				/* The block is being returned to the heap - it is no longer
				allocated. */
				pxLink->xBlockSize &= ~xBlockAllocatedBit;
 80046a0:	693b      	ldr	r3, [r7, #16]
 80046a2:	685a      	ldr	r2, [r3, #4]
 80046a4:	4b0e      	ldr	r3, [pc, #56]	@ (80046e0 <vPortFree+0xbc>)
 80046a6:	681b      	ldr	r3, [r3, #0]
 80046a8:	43db      	mvns	r3, r3
 80046aa:	401a      	ands	r2, r3
 80046ac:	693b      	ldr	r3, [r7, #16]
 80046ae:	605a      	str	r2, [r3, #4]

				vTaskSuspendAll();
 80046b0:	f7ff f9ac 	bl	8003a0c <vTaskSuspendAll>
				{
					/* Add this block to the list of free blocks. */
					xFreeBytesRemaining += pxLink->xBlockSize;
 80046b4:	693b      	ldr	r3, [r7, #16]
 80046b6:	685a      	ldr	r2, [r3, #4]
 80046b8:	4b0a      	ldr	r3, [pc, #40]	@ (80046e4 <vPortFree+0xc0>)
 80046ba:	681b      	ldr	r3, [r3, #0]
 80046bc:	4413      	add	r3, r2
 80046be:	4a09      	ldr	r2, [pc, #36]	@ (80046e4 <vPortFree+0xc0>)
 80046c0:	6013      	str	r3, [r2, #0]
					traceFREE( pv, pxLink->xBlockSize );
					prvInsertBlockIntoFreeList( ( ( BlockLink_t * ) pxLink ) );
 80046c2:	6938      	ldr	r0, [r7, #16]
 80046c4:	f000 f874 	bl	80047b0 <prvInsertBlockIntoFreeList>
					xNumberOfSuccessfulFrees++;
 80046c8:	4b07      	ldr	r3, [pc, #28]	@ (80046e8 <vPortFree+0xc4>)
 80046ca:	681b      	ldr	r3, [r3, #0]
 80046cc:	3301      	adds	r3, #1
 80046ce:	4a06      	ldr	r2, [pc, #24]	@ (80046e8 <vPortFree+0xc4>)
 80046d0:	6013      	str	r3, [r2, #0]
				}
				( void ) xTaskResumeAll();
 80046d2:	f7ff f9a9 	bl	8003a28 <xTaskResumeAll>
		else
		{
			mtCOVERAGE_TEST_MARKER();
		}
	}
}
 80046d6:	bf00      	nop
 80046d8:	3718      	adds	r7, #24
 80046da:	46bd      	mov	sp, r7
 80046dc:	bd80      	pop	{r7, pc}
 80046de:	bf00      	nop
 80046e0:	2000106c 	.word	0x2000106c
 80046e4:	2000105c 	.word	0x2000105c
 80046e8:	20001068 	.word	0x20001068

080046ec <prvHeapInit>:
	/* This just exists to keep the linker quiet. */
}
/*-----------------------------------------------------------*/

static void prvHeapInit( void )
{
 80046ec:	b480      	push	{r7}
 80046ee:	b085      	sub	sp, #20
 80046f0:	af00      	add	r7, sp, #0
BlockLink_t *pxFirstFreeBlock;
uint8_t *pucAlignedHeap;
size_t uxAddress;
size_t xTotalHeapSize = configTOTAL_HEAP_SIZE;
 80046f2:	f640 33b8 	movw	r3, #3000	@ 0xbb8
 80046f6:	60bb      	str	r3, [r7, #8]

	/* Ensure the heap starts on a correctly aligned boundary. */
	uxAddress = ( size_t ) ucHeap;
 80046f8:	4b27      	ldr	r3, [pc, #156]	@ (8004798 <prvHeapInit+0xac>)
 80046fa:	60fb      	str	r3, [r7, #12]

	if( ( uxAddress & portBYTE_ALIGNMENT_MASK ) != 0 )
 80046fc:	68fb      	ldr	r3, [r7, #12]
 80046fe:	f003 0307 	and.w	r3, r3, #7
 8004702:	2b00      	cmp	r3, #0
 8004704:	d00c      	beq.n	8004720 <prvHeapInit+0x34>
	{
		uxAddress += ( portBYTE_ALIGNMENT - 1 );
 8004706:	68fb      	ldr	r3, [r7, #12]
 8004708:	3307      	adds	r3, #7
 800470a:	60fb      	str	r3, [r7, #12]
		uxAddress &= ~( ( size_t ) portBYTE_ALIGNMENT_MASK );
 800470c:	68fb      	ldr	r3, [r7, #12]
 800470e:	f023 0307 	bic.w	r3, r3, #7
 8004712:	60fb      	str	r3, [r7, #12]
		xTotalHeapSize -= uxAddress - ( size_t ) ucHeap;
 8004714:	68ba      	ldr	r2, [r7, #8]
 8004716:	68fb      	ldr	r3, [r7, #12]
 8004718:	1ad3      	subs	r3, r2, r3
 800471a:	4a1f      	ldr	r2, [pc, #124]	@ (8004798 <prvHeapInit+0xac>)
 800471c:	4413      	add	r3, r2
 800471e:	60bb      	str	r3, [r7, #8]
	}

	pucAlignedHeap = ( uint8_t * ) uxAddress;
 8004720:	68fb      	ldr	r3, [r7, #12]
 8004722:	607b      	str	r3, [r7, #4]

	/* xStart is used to hold a pointer to the first item in the list of free
	blocks.  The void cast is used to prevent compiler warnings. */
	xStart.pxNextFreeBlock = ( void * ) pucAlignedHeap;
 8004724:	4a1d      	ldr	r2, [pc, #116]	@ (800479c <prvHeapInit+0xb0>)
 8004726:	687b      	ldr	r3, [r7, #4]
 8004728:	6013      	str	r3, [r2, #0]
	xStart.xBlockSize = ( size_t ) 0;
 800472a:	4b1c      	ldr	r3, [pc, #112]	@ (800479c <prvHeapInit+0xb0>)
 800472c:	2200      	movs	r2, #0
 800472e:	605a      	str	r2, [r3, #4]

	/* pxEnd is used to mark the end of the list of free blocks and is inserted
	at the end of the heap space. */
	uxAddress = ( ( size_t ) pucAlignedHeap ) + xTotalHeapSize;
 8004730:	687b      	ldr	r3, [r7, #4]
 8004732:	68ba      	ldr	r2, [r7, #8]
 8004734:	4413      	add	r3, r2
 8004736:	60fb      	str	r3, [r7, #12]
	uxAddress -= xHeapStructSize;
 8004738:	2208      	movs	r2, #8
 800473a:	68fb      	ldr	r3, [r7, #12]
 800473c:	1a9b      	subs	r3, r3, r2
 800473e:	60fb      	str	r3, [r7, #12]
	uxAddress &= ~( ( size_t ) portBYTE_ALIGNMENT_MASK );
 8004740:	68fb      	ldr	r3, [r7, #12]
 8004742:	f023 0307 	bic.w	r3, r3, #7
 8004746:	60fb      	str	r3, [r7, #12]
	pxEnd = ( void * ) uxAddress;
 8004748:	68fb      	ldr	r3, [r7, #12]
 800474a:	4a15      	ldr	r2, [pc, #84]	@ (80047a0 <prvHeapInit+0xb4>)
 800474c:	6013      	str	r3, [r2, #0]
	pxEnd->xBlockSize = 0;
 800474e:	4b14      	ldr	r3, [pc, #80]	@ (80047a0 <prvHeapInit+0xb4>)
 8004750:	681b      	ldr	r3, [r3, #0]
 8004752:	2200      	movs	r2, #0
 8004754:	605a      	str	r2, [r3, #4]
	pxEnd->pxNextFreeBlock = NULL;
 8004756:	4b12      	ldr	r3, [pc, #72]	@ (80047a0 <prvHeapInit+0xb4>)
 8004758:	681b      	ldr	r3, [r3, #0]
 800475a:	2200      	movs	r2, #0
 800475c:	601a      	str	r2, [r3, #0]

	/* To start with there is a single free block that is sized to take up the
	entire heap space, minus the space taken by pxEnd. */
	pxFirstFreeBlock = ( void * ) pucAlignedHeap;
 800475e:	687b      	ldr	r3, [r7, #4]
 8004760:	603b      	str	r3, [r7, #0]
	pxFirstFreeBlock->xBlockSize = uxAddress - ( size_t ) pxFirstFreeBlock;
 8004762:	683b      	ldr	r3, [r7, #0]
 8004764:	68fa      	ldr	r2, [r7, #12]
 8004766:	1ad2      	subs	r2, r2, r3
 8004768:	683b      	ldr	r3, [r7, #0]
 800476a:	605a      	str	r2, [r3, #4]
	pxFirstFreeBlock->pxNextFreeBlock = pxEnd;
 800476c:	4b0c      	ldr	r3, [pc, #48]	@ (80047a0 <prvHeapInit+0xb4>)
 800476e:	681a      	ldr	r2, [r3, #0]
 8004770:	683b      	ldr	r3, [r7, #0]
 8004772:	601a      	str	r2, [r3, #0]

	/* Only one block exists - and it covers the entire usable heap space. */
	xMinimumEverFreeBytesRemaining = pxFirstFreeBlock->xBlockSize;
 8004774:	683b      	ldr	r3, [r7, #0]
 8004776:	685b      	ldr	r3, [r3, #4]
 8004778:	4a0a      	ldr	r2, [pc, #40]	@ (80047a4 <prvHeapInit+0xb8>)
 800477a:	6013      	str	r3, [r2, #0]
	xFreeBytesRemaining = pxFirstFreeBlock->xBlockSize;
 800477c:	683b      	ldr	r3, [r7, #0]
 800477e:	685b      	ldr	r3, [r3, #4]
 8004780:	4a09      	ldr	r2, [pc, #36]	@ (80047a8 <prvHeapInit+0xbc>)
 8004782:	6013      	str	r3, [r2, #0]

	/* Work out the position of the top bit in a size_t variable. */
	xBlockAllocatedBit = ( ( size_t ) 1 ) << ( ( sizeof( size_t ) * heapBITS_PER_BYTE ) - 1 );
 8004784:	4b09      	ldr	r3, [pc, #36]	@ (80047ac <prvHeapInit+0xc0>)
 8004786:	f04f 4200 	mov.w	r2, #2147483648	@ 0x80000000
 800478a:	601a      	str	r2, [r3, #0]
}
 800478c:	bf00      	nop
 800478e:	3714      	adds	r7, #20
 8004790:	46bd      	mov	sp, r7
 8004792:	f85d 7b04 	ldr.w	r7, [sp], #4
 8004796:	4770      	bx	lr
 8004798:	20000498 	.word	0x20000498
 800479c:	20001050 	.word	0x20001050
 80047a0:	20001058 	.word	0x20001058
 80047a4:	20001060 	.word	0x20001060
 80047a8:	2000105c 	.word	0x2000105c
 80047ac:	2000106c 	.word	0x2000106c

080047b0 <prvInsertBlockIntoFreeList>:
/*-----------------------------------------------------------*/

static void prvInsertBlockIntoFreeList( BlockLink_t *pxBlockToInsert )
{
 80047b0:	b480      	push	{r7}
 80047b2:	b085      	sub	sp, #20
 80047b4:	af00      	add	r7, sp, #0
 80047b6:	6078      	str	r0, [r7, #4]
BlockLink_t *pxIterator;
uint8_t *puc;

	/* Iterate through the list until a block is found that has a higher address
	than the block being inserted. */
	for( pxIterator = &xStart; pxIterator->pxNextFreeBlock < pxBlockToInsert; pxIterator = pxIterator->pxNextFreeBlock )
 80047b8:	4b28      	ldr	r3, [pc, #160]	@ (800485c <prvInsertBlockIntoFreeList+0xac>)
 80047ba:	60fb      	str	r3, [r7, #12]
 80047bc:	e002      	b.n	80047c4 <prvInsertBlockIntoFreeList+0x14>
 80047be:	68fb      	ldr	r3, [r7, #12]
 80047c0:	681b      	ldr	r3, [r3, #0]
 80047c2:	60fb      	str	r3, [r7, #12]
 80047c4:	68fb      	ldr	r3, [r7, #12]
 80047c6:	681b      	ldr	r3, [r3, #0]
 80047c8:	687a      	ldr	r2, [r7, #4]
 80047ca:	429a      	cmp	r2, r3
 80047cc:	d8f7      	bhi.n	80047be <prvInsertBlockIntoFreeList+0xe>
		/* Nothing to do here, just iterate to the right position. */
	}

	/* Do the block being inserted, and the block it is being inserted after
	make a contiguous block of memory? */
	puc = ( uint8_t * ) pxIterator;
 80047ce:	68fb      	ldr	r3, [r7, #12]
 80047d0:	60bb      	str	r3, [r7, #8]
	if( ( puc + pxIterator->xBlockSize ) == ( uint8_t * ) pxBlockToInsert )
 80047d2:	68fb      	ldr	r3, [r7, #12]
 80047d4:	685b      	ldr	r3, [r3, #4]
 80047d6:	68ba      	ldr	r2, [r7, #8]
 80047d8:	4413      	add	r3, r2
 80047da:	687a      	ldr	r2, [r7, #4]
 80047dc:	429a      	cmp	r2, r3
 80047de:	d108      	bne.n	80047f2 <prvInsertBlockIntoFreeList+0x42>
	{
		pxIterator->xBlockSize += pxBlockToInsert->xBlockSize;
 80047e0:	68fb      	ldr	r3, [r7, #12]
 80047e2:	685a      	ldr	r2, [r3, #4]
 80047e4:	687b      	ldr	r3, [r7, #4]
 80047e6:	685b      	ldr	r3, [r3, #4]
 80047e8:	441a      	add	r2, r3
 80047ea:	68fb      	ldr	r3, [r7, #12]
 80047ec:	605a      	str	r2, [r3, #4]
		pxBlockToInsert = pxIterator;
 80047ee:	68fb      	ldr	r3, [r7, #12]
 80047f0:	607b      	str	r3, [r7, #4]
		mtCOVERAGE_TEST_MARKER();
	}

	/* Do the block being inserted, and the block it is being inserted before
	make a contiguous block of memory? */
	puc = ( uint8_t * ) pxBlockToInsert;
 80047f2:	687b      	ldr	r3, [r7, #4]
 80047f4:	60bb      	str	r3, [r7, #8]
	if( ( puc + pxBlockToInsert->xBlockSize ) == ( uint8_t * ) pxIterator->pxNextFreeBlock )
 80047f6:	687b      	ldr	r3, [r7, #4]
 80047f8:	685b      	ldr	r3, [r3, #4]
 80047fa:	68ba      	ldr	r2, [r7, #8]
 80047fc:	441a      	add	r2, r3
 80047fe:	68fb      	ldr	r3, [r7, #12]
 8004800:	681b      	ldr	r3, [r3, #0]
 8004802:	429a      	cmp	r2, r3
 8004804:	d118      	bne.n	8004838 <prvInsertBlockIntoFreeList+0x88>
	{
		if( pxIterator->pxNextFreeBlock != pxEnd )
 8004806:	68fb      	ldr	r3, [r7, #12]
 8004808:	681a      	ldr	r2, [r3, #0]
 800480a:	4b15      	ldr	r3, [pc, #84]	@ (8004860 <prvInsertBlockIntoFreeList+0xb0>)
 800480c:	681b      	ldr	r3, [r3, #0]
 800480e:	429a      	cmp	r2, r3
 8004810:	d00d      	beq.n	800482e <prvInsertBlockIntoFreeList+0x7e>
		{
			/* Form one big block from the two blocks. */
			pxBlockToInsert->xBlockSize += pxIterator->pxNextFreeBlock->xBlockSize;
 8004812:	687b      	ldr	r3, [r7, #4]
 8004814:	685a      	ldr	r2, [r3, #4]
 8004816:	68fb      	ldr	r3, [r7, #12]
 8004818:	681b      	ldr	r3, [r3, #0]
 800481a:	685b      	ldr	r3, [r3, #4]
 800481c:	441a      	add	r2, r3
 800481e:	687b      	ldr	r3, [r7, #4]
 8004820:	605a      	str	r2, [r3, #4]
			pxBlockToInsert->pxNextFreeBlock = pxIterator->pxNextFreeBlock->pxNextFreeBlock;
 8004822:	68fb      	ldr	r3, [r7, #12]
 8004824:	681b      	ldr	r3, [r3, #0]
 8004826:	681a      	ldr	r2, [r3, #0]
 8004828:	687b      	ldr	r3, [r7, #4]
 800482a:	601a      	str	r2, [r3, #0]
 800482c:	e008      	b.n	8004840 <prvInsertBlockIntoFreeList+0x90>
		}
		else
		{
			pxBlockToInsert->pxNextFreeBlock = pxEnd;
 800482e:	4b0c      	ldr	r3, [pc, #48]	@ (8004860 <prvInsertBlockIntoFreeList+0xb0>)
 8004830:	681a      	ldr	r2, [r3, #0]
 8004832:	687b      	ldr	r3, [r7, #4]
 8004834:	601a      	str	r2, [r3, #0]
 8004836:	e003      	b.n	8004840 <prvInsertBlockIntoFreeList+0x90>
		}
	}
	else
	{
		pxBlockToInsert->pxNextFreeBlock = pxIterator->pxNextFreeBlock;
 8004838:	68fb      	ldr	r3, [r7, #12]
 800483a:	681a      	ldr	r2, [r3, #0]
 800483c:	687b      	ldr	r3, [r7, #4]
 800483e:	601a      	str	r2, [r3, #0]

	/* If the block being inserted plugged a gab, so was merged with the block
	before and the block after, then it's pxNextFreeBlock pointer will have
	already been set, and should not be set here as that would make it point
	to itself. */
	if( pxIterator != pxBlockToInsert )
 8004840:	68fa      	ldr	r2, [r7, #12]
 8004842:	687b      	ldr	r3, [r7, #4]
 8004844:	429a      	cmp	r2, r3
 8004846:	d002      	beq.n	800484e <prvInsertBlockIntoFreeList+0x9e>
	{
		pxIterator->pxNextFreeBlock = pxBlockToInsert;
 8004848:	68fb      	ldr	r3, [r7, #12]
 800484a:	687a      	ldr	r2, [r7, #4]
 800484c:	601a      	str	r2, [r3, #0]
	}
	else
	{
		mtCOVERAGE_TEST_MARKER();
	}
}
 800484e:	bf00      	nop
 8004850:	3714      	adds	r7, #20
 8004852:	46bd      	mov	sp, r7
 8004854:	f85d 7b04 	ldr.w	r7, [sp], #4
 8004858:	4770      	bx	lr
 800485a:	bf00      	nop
 800485c:	20001050 	.word	0x20001050
 8004860:	20001058 	.word	0x20001058

08004864 <siprintf>:
 8004864:	b40e      	push	{r1, r2, r3}
 8004866:	b510      	push	{r4, lr}
 8004868:	b09d      	sub	sp, #116	@ 0x74
 800486a:	ab1f      	add	r3, sp, #124	@ 0x7c
 800486c:	9002      	str	r0, [sp, #8]
 800486e:	9006      	str	r0, [sp, #24]
 8004870:	f06f 4100 	mvn.w	r1, #2147483648	@ 0x80000000
 8004874:	480a      	ldr	r0, [pc, #40]	@ (80048a0 <siprintf+0x3c>)
 8004876:	9107      	str	r1, [sp, #28]
 8004878:	9104      	str	r1, [sp, #16]
 800487a:	490a      	ldr	r1, [pc, #40]	@ (80048a4 <siprintf+0x40>)
 800487c:	f853 2b04 	ldr.w	r2, [r3], #4
 8004880:	9105      	str	r1, [sp, #20]
 8004882:	2400      	movs	r4, #0
 8004884:	a902      	add	r1, sp, #8
 8004886:	6800      	ldr	r0, [r0, #0]
 8004888:	9301      	str	r3, [sp, #4]
 800488a:	941b      	str	r4, [sp, #108]	@ 0x6c
 800488c:	f000 f9a2 	bl	8004bd4 <_svfiprintf_r>
 8004890:	9b02      	ldr	r3, [sp, #8]
 8004892:	701c      	strb	r4, [r3, #0]
 8004894:	b01d      	add	sp, #116	@ 0x74
 8004896:	e8bd 4010 	ldmia.w	sp!, {r4, lr}
 800489a:	b003      	add	sp, #12
 800489c:	4770      	bx	lr
 800489e:	bf00      	nop
 80048a0:	20000010 	.word	0x20000010
 80048a4:	ffff0208 	.word	0xffff0208

080048a8 <memset>:
 80048a8:	4402      	add	r2, r0
 80048aa:	4603      	mov	r3, r0
 80048ac:	4293      	cmp	r3, r2
 80048ae:	d100      	bne.n	80048b2 <memset+0xa>
 80048b0:	4770      	bx	lr
 80048b2:	f803 1b01 	strb.w	r1, [r3], #1
 80048b6:	e7f9      	b.n	80048ac <memset+0x4>

080048b8 <__errno>:
 80048b8:	4b01      	ldr	r3, [pc, #4]	@ (80048c0 <__errno+0x8>)
 80048ba:	6818      	ldr	r0, [r3, #0]
 80048bc:	4770      	bx	lr
 80048be:	bf00      	nop
 80048c0:	20000010 	.word	0x20000010

080048c4 <__libc_init_array>:
 80048c4:	b570      	push	{r4, r5, r6, lr}
 80048c6:	4d0d      	ldr	r5, [pc, #52]	@ (80048fc <__libc_init_array+0x38>)
 80048c8:	4c0d      	ldr	r4, [pc, #52]	@ (8004900 <__libc_init_array+0x3c>)
 80048ca:	1b64      	subs	r4, r4, r5
 80048cc:	10a4      	asrs	r4, r4, #2
 80048ce:	2600      	movs	r6, #0
 80048d0:	42a6      	cmp	r6, r4
 80048d2:	d109      	bne.n	80048e8 <__libc_init_array+0x24>
 80048d4:	4d0b      	ldr	r5, [pc, #44]	@ (8004904 <__libc_init_array+0x40>)
 80048d6:	4c0c      	ldr	r4, [pc, #48]	@ (8004908 <__libc_init_array+0x44>)
 80048d8:	f000 fc64 	bl	80051a4 <_init>
 80048dc:	1b64      	subs	r4, r4, r5
 80048de:	10a4      	asrs	r4, r4, #2
 80048e0:	2600      	movs	r6, #0
 80048e2:	42a6      	cmp	r6, r4
 80048e4:	d105      	bne.n	80048f2 <__libc_init_array+0x2e>
 80048e6:	bd70      	pop	{r4, r5, r6, pc}
 80048e8:	f855 3b04 	ldr.w	r3, [r5], #4
 80048ec:	4798      	blx	r3
 80048ee:	3601      	adds	r6, #1
 80048f0:	e7ee      	b.n	80048d0 <__libc_init_array+0xc>
 80048f2:	f855 3b04 	ldr.w	r3, [r5], #4
 80048f6:	4798      	blx	r3
 80048f8:	3601      	adds	r6, #1
 80048fa:	e7f2      	b.n	80048e2 <__libc_init_array+0x1e>
 80048fc:	0800529c 	.word	0x0800529c
 8004900:	0800529c 	.word	0x0800529c
 8004904:	0800529c 	.word	0x0800529c
 8004908:	080052a0 	.word	0x080052a0

0800490c <__retarget_lock_acquire_recursive>:
 800490c:	4770      	bx	lr

0800490e <__retarget_lock_release_recursive>:
 800490e:	4770      	bx	lr

08004910 <memcpy>:
 8004910:	440a      	add	r2, r1
 8004912:	4291      	cmp	r1, r2
 8004914:	f100 33ff 	add.w	r3, r0, #4294967295
 8004918:	d100      	bne.n	800491c <memcpy+0xc>
 800491a:	4770      	bx	lr
 800491c:	b510      	push	{r4, lr}
 800491e:	f811 4b01 	ldrb.w	r4, [r1], #1
 8004922:	f803 4f01 	strb.w	r4, [r3, #1]!
 8004926:	4291      	cmp	r1, r2
 8004928:	d1f9      	bne.n	800491e <memcpy+0xe>
 800492a:	bd10      	pop	{r4, pc}

0800492c <_free_r>:
 800492c:	b538      	push	{r3, r4, r5, lr}
 800492e:	4605      	mov	r5, r0
 8004930:	2900      	cmp	r1, #0
 8004932:	d041      	beq.n	80049b8 <_free_r+0x8c>
 8004934:	f851 3c04 	ldr.w	r3, [r1, #-4]
 8004938:	1f0c      	subs	r4, r1, #4
 800493a:	2b00      	cmp	r3, #0
 800493c:	bfb8      	it	lt
 800493e:	18e4      	addlt	r4, r4, r3
 8004940:	f000 f8e0 	bl	8004b04 <__malloc_lock>
 8004944:	4a1d      	ldr	r2, [pc, #116]	@ (80049bc <_free_r+0x90>)
 8004946:	6813      	ldr	r3, [r2, #0]
 8004948:	b933      	cbnz	r3, 8004958 <_free_r+0x2c>
 800494a:	6063      	str	r3, [r4, #4]
 800494c:	6014      	str	r4, [r2, #0]
 800494e:	4628      	mov	r0, r5
 8004950:	e8bd 4038 	ldmia.w	sp!, {r3, r4, r5, lr}
 8004954:	f000 b8dc 	b.w	8004b10 <__malloc_unlock>
 8004958:	42a3      	cmp	r3, r4
 800495a:	d908      	bls.n	800496e <_free_r+0x42>
 800495c:	6820      	ldr	r0, [r4, #0]
 800495e:	1821      	adds	r1, r4, r0
 8004960:	428b      	cmp	r3, r1
 8004962:	bf01      	itttt	eq
 8004964:	6819      	ldreq	r1, [r3, #0]
 8004966:	685b      	ldreq	r3, [r3, #4]
 8004968:	1809      	addeq	r1, r1, r0
 800496a:	6021      	streq	r1, [r4, #0]
 800496c:	e7ed      	b.n	800494a <_free_r+0x1e>
 800496e:	461a      	mov	r2, r3
 8004970:	685b      	ldr	r3, [r3, #4]
 8004972:	b10b      	cbz	r3, 8004978 <_free_r+0x4c>
 8004974:	42a3      	cmp	r3, r4
 8004976:	d9fa      	bls.n	800496e <_free_r+0x42>
 8004978:	6811      	ldr	r1, [r2, #0]
 800497a:	1850      	adds	r0, r2, r1
 800497c:	42a0      	cmp	r0, r4
 800497e:	d10b      	bne.n	8004998 <_free_r+0x6c>
 8004980:	6820      	ldr	r0, [r4, #0]
 8004982:	4401      	add	r1, r0
 8004984:	1850      	adds	r0, r2, r1
 8004986:	4283      	cmp	r3, r0
 8004988:	6011      	str	r1, [r2, #0]
 800498a:	d1e0      	bne.n	800494e <_free_r+0x22>
 800498c:	6818      	ldr	r0, [r3, #0]
 800498e:	685b      	ldr	r3, [r3, #4]
 8004990:	6053      	str	r3, [r2, #4]
 8004992:	4408      	add	r0, r1
 8004994:	6010      	str	r0, [r2, #0]
 8004996:	e7da      	b.n	800494e <_free_r+0x22>
 8004998:	d902      	bls.n	80049a0 <_free_r+0x74>
 800499a:	230c      	movs	r3, #12
 800499c:	602b      	str	r3, [r5, #0]
 800499e:	e7d6      	b.n	800494e <_free_r+0x22>
 80049a0:	6820      	ldr	r0, [r4, #0]
 80049a2:	1821      	adds	r1, r4, r0
 80049a4:	428b      	cmp	r3, r1
 80049a6:	bf04      	itt	eq
 80049a8:	6819      	ldreq	r1, [r3, #0]
 80049aa:	685b      	ldreq	r3, [r3, #4]
 80049ac:	6063      	str	r3, [r4, #4]
 80049ae:	bf04      	itt	eq
 80049b0:	1809      	addeq	r1, r1, r0
 80049b2:	6021      	streq	r1, [r4, #0]
 80049b4:	6054      	str	r4, [r2, #4]
 80049b6:	e7ca      	b.n	800494e <_free_r+0x22>
 80049b8:	bd38      	pop	{r3, r4, r5, pc}
 80049ba:	bf00      	nop
 80049bc:	200011b4 	.word	0x200011b4

080049c0 <sbrk_aligned>:
 80049c0:	b570      	push	{r4, r5, r6, lr}
 80049c2:	4e0f      	ldr	r6, [pc, #60]	@ (8004a00 <sbrk_aligned+0x40>)
 80049c4:	460c      	mov	r4, r1
 80049c6:	6831      	ldr	r1, [r6, #0]
 80049c8:	4605      	mov	r5, r0
 80049ca:	b911      	cbnz	r1, 80049d2 <sbrk_aligned+0x12>
 80049cc:	f000 fba4 	bl	8005118 <_sbrk_r>
 80049d0:	6030      	str	r0, [r6, #0]
 80049d2:	4621      	mov	r1, r4
 80049d4:	4628      	mov	r0, r5
 80049d6:	f000 fb9f 	bl	8005118 <_sbrk_r>
 80049da:	1c43      	adds	r3, r0, #1
 80049dc:	d103      	bne.n	80049e6 <sbrk_aligned+0x26>
 80049de:	f04f 34ff 	mov.w	r4, #4294967295
 80049e2:	4620      	mov	r0, r4
 80049e4:	bd70      	pop	{r4, r5, r6, pc}
 80049e6:	1cc4      	adds	r4, r0, #3
 80049e8:	f024 0403 	bic.w	r4, r4, #3
 80049ec:	42a0      	cmp	r0, r4
 80049ee:	d0f8      	beq.n	80049e2 <sbrk_aligned+0x22>
 80049f0:	1a21      	subs	r1, r4, r0
 80049f2:	4628      	mov	r0, r5
 80049f4:	f000 fb90 	bl	8005118 <_sbrk_r>
 80049f8:	3001      	adds	r0, #1
 80049fa:	d1f2      	bne.n	80049e2 <sbrk_aligned+0x22>
 80049fc:	e7ef      	b.n	80049de <sbrk_aligned+0x1e>
 80049fe:	bf00      	nop
 8004a00:	200011b0 	.word	0x200011b0

08004a04 <_malloc_r>:
 8004a04:	e92d 43f8 	stmdb	sp!, {r3, r4, r5, r6, r7, r8, r9, lr}
 8004a08:	1ccd      	adds	r5, r1, #3
 8004a0a:	f025 0503 	bic.w	r5, r5, #3
 8004a0e:	3508      	adds	r5, #8
 8004a10:	2d0c      	cmp	r5, #12
 8004a12:	bf38      	it	cc
 8004a14:	250c      	movcc	r5, #12
 8004a16:	2d00      	cmp	r5, #0
 8004a18:	4606      	mov	r6, r0
 8004a1a:	db01      	blt.n	8004a20 <_malloc_r+0x1c>
 8004a1c:	42a9      	cmp	r1, r5
 8004a1e:	d904      	bls.n	8004a2a <_malloc_r+0x26>
 8004a20:	230c      	movs	r3, #12
 8004a22:	6033      	str	r3, [r6, #0]
 8004a24:	2000      	movs	r0, #0
 8004a26:	e8bd 83f8 	ldmia.w	sp!, {r3, r4, r5, r6, r7, r8, r9, pc}
 8004a2a:	f8df 80d4 	ldr.w	r8, [pc, #212]	@ 8004b00 <_malloc_r+0xfc>
 8004a2e:	f000 f869 	bl	8004b04 <__malloc_lock>
 8004a32:	f8d8 3000 	ldr.w	r3, [r8]
 8004a36:	461c      	mov	r4, r3
 8004a38:	bb44      	cbnz	r4, 8004a8c <_malloc_r+0x88>
 8004a3a:	4629      	mov	r1, r5
 8004a3c:	4630      	mov	r0, r6
 8004a3e:	f7ff ffbf 	bl	80049c0 <sbrk_aligned>
 8004a42:	1c43      	adds	r3, r0, #1
 8004a44:	4604      	mov	r4, r0
 8004a46:	d158      	bne.n	8004afa <_malloc_r+0xf6>
 8004a48:	f8d8 4000 	ldr.w	r4, [r8]
 8004a4c:	4627      	mov	r7, r4
 8004a4e:	2f00      	cmp	r7, #0
 8004a50:	d143      	bne.n	8004ada <_malloc_r+0xd6>
 8004a52:	2c00      	cmp	r4, #0
 8004a54:	d04b      	beq.n	8004aee <_malloc_r+0xea>
 8004a56:	6823      	ldr	r3, [r4, #0]
 8004a58:	4639      	mov	r1, r7
 8004a5a:	4630      	mov	r0, r6
 8004a5c:	eb04 0903 	add.w	r9, r4, r3
 8004a60:	f000 fb5a 	bl	8005118 <_sbrk_r>
 8004a64:	4581      	cmp	r9, r0
 8004a66:	d142      	bne.n	8004aee <_malloc_r+0xea>
 8004a68:	6821      	ldr	r1, [r4, #0]
 8004a6a:	1a6d      	subs	r5, r5, r1
 8004a6c:	4629      	mov	r1, r5
 8004a6e:	4630      	mov	r0, r6
 8004a70:	f7ff ffa6 	bl	80049c0 <sbrk_aligned>
 8004a74:	3001      	adds	r0, #1
 8004a76:	d03a      	beq.n	8004aee <_malloc_r+0xea>
 8004a78:	6823      	ldr	r3, [r4, #0]
 8004a7a:	442b      	add	r3, r5
 8004a7c:	6023      	str	r3, [r4, #0]
 8004a7e:	f8d8 3000 	ldr.w	r3, [r8]
 8004a82:	685a      	ldr	r2, [r3, #4]
 8004a84:	bb62      	cbnz	r2, 8004ae0 <_malloc_r+0xdc>
 8004a86:	f8c8 7000 	str.w	r7, [r8]
 8004a8a:	e00f      	b.n	8004aac <_malloc_r+0xa8>
 8004a8c:	6822      	ldr	r2, [r4, #0]
 8004a8e:	1b52      	subs	r2, r2, r5
 8004a90:	d420      	bmi.n	8004ad4 <_malloc_r+0xd0>
 8004a92:	2a0b      	cmp	r2, #11
 8004a94:	d917      	bls.n	8004ac6 <_malloc_r+0xc2>
 8004a96:	1961      	adds	r1, r4, r5
 8004a98:	42a3      	cmp	r3, r4
 8004a9a:	6025      	str	r5, [r4, #0]
 8004a9c:	bf18      	it	ne
 8004a9e:	6059      	strne	r1, [r3, #4]
 8004aa0:	6863      	ldr	r3, [r4, #4]
 8004aa2:	bf08      	it	eq
 8004aa4:	f8c8 1000 	streq.w	r1, [r8]
 8004aa8:	5162      	str	r2, [r4, r5]
 8004aaa:	604b      	str	r3, [r1, #4]
 8004aac:	4630      	mov	r0, r6
 8004aae:	f000 f82f 	bl	8004b10 <__malloc_unlock>
 8004ab2:	f104 000b 	add.w	r0, r4, #11
 8004ab6:	1d23      	adds	r3, r4, #4
 8004ab8:	f020 0007 	bic.w	r0, r0, #7
 8004abc:	1ac2      	subs	r2, r0, r3
 8004abe:	bf1c      	itt	ne
 8004ac0:	1a1b      	subne	r3, r3, r0
 8004ac2:	50a3      	strne	r3, [r4, r2]
 8004ac4:	e7af      	b.n	8004a26 <_malloc_r+0x22>
 8004ac6:	6862      	ldr	r2, [r4, #4]
 8004ac8:	42a3      	cmp	r3, r4
 8004aca:	bf0c      	ite	eq
 8004acc:	f8c8 2000 	streq.w	r2, [r8]
 8004ad0:	605a      	strne	r2, [r3, #4]
 8004ad2:	e7eb      	b.n	8004aac <_malloc_r+0xa8>
 8004ad4:	4623      	mov	r3, r4
 8004ad6:	6864      	ldr	r4, [r4, #4]
 8004ad8:	e7ae      	b.n	8004a38 <_malloc_r+0x34>
 8004ada:	463c      	mov	r4, r7
 8004adc:	687f      	ldr	r7, [r7, #4]
 8004ade:	e7b6      	b.n	8004a4e <_malloc_r+0x4a>
 8004ae0:	461a      	mov	r2, r3
 8004ae2:	685b      	ldr	r3, [r3, #4]
 8004ae4:	42a3      	cmp	r3, r4
 8004ae6:	d1fb      	bne.n	8004ae0 <_malloc_r+0xdc>
 8004ae8:	2300      	movs	r3, #0
 8004aea:	6053      	str	r3, [r2, #4]
 8004aec:	e7de      	b.n	8004aac <_malloc_r+0xa8>
 8004aee:	230c      	movs	r3, #12
 8004af0:	6033      	str	r3, [r6, #0]
 8004af2:	4630      	mov	r0, r6
 8004af4:	f000 f80c 	bl	8004b10 <__malloc_unlock>
 8004af8:	e794      	b.n	8004a24 <_malloc_r+0x20>
 8004afa:	6005      	str	r5, [r0, #0]
 8004afc:	e7d6      	b.n	8004aac <_malloc_r+0xa8>
 8004afe:	bf00      	nop
 8004b00:	200011b4 	.word	0x200011b4

08004b04 <__malloc_lock>:
 8004b04:	4801      	ldr	r0, [pc, #4]	@ (8004b0c <__malloc_lock+0x8>)
 8004b06:	f7ff bf01 	b.w	800490c <__retarget_lock_acquire_recursive>
 8004b0a:	bf00      	nop
 8004b0c:	200011ac 	.word	0x200011ac

08004b10 <__malloc_unlock>:
 8004b10:	4801      	ldr	r0, [pc, #4]	@ (8004b18 <__malloc_unlock+0x8>)
 8004b12:	f7ff befc 	b.w	800490e <__retarget_lock_release_recursive>
 8004b16:	bf00      	nop
 8004b18:	200011ac 	.word	0x200011ac

08004b1c <__ssputs_r>:
 8004b1c:	e92d 47f0 	stmdb	sp!, {r4, r5, r6, r7, r8, r9, sl, lr}
 8004b20:	688e      	ldr	r6, [r1, #8]
 8004b22:	461f      	mov	r7, r3
 8004b24:	42be      	cmp	r6, r7
 8004b26:	680b      	ldr	r3, [r1, #0]
 8004b28:	4682      	mov	sl, r0
 8004b2a:	460c      	mov	r4, r1
 8004b2c:	4690      	mov	r8, r2
 8004b2e:	d82d      	bhi.n	8004b8c <__ssputs_r+0x70>
 8004b30:	f9b1 200c 	ldrsh.w	r2, [r1, #12]
 8004b34:	f412 6f90 	tst.w	r2, #1152	@ 0x480
 8004b38:	d026      	beq.n	8004b88 <__ssputs_r+0x6c>
 8004b3a:	6965      	ldr	r5, [r4, #20]
 8004b3c:	6909      	ldr	r1, [r1, #16]
 8004b3e:	eb05 0545 	add.w	r5, r5, r5, lsl #1
 8004b42:	eba3 0901 	sub.w	r9, r3, r1
 8004b46:	eb05 75d5 	add.w	r5, r5, r5, lsr #31
 8004b4a:	1c7b      	adds	r3, r7, #1
 8004b4c:	444b      	add	r3, r9
 8004b4e:	106d      	asrs	r5, r5, #1
 8004b50:	429d      	cmp	r5, r3
 8004b52:	bf38      	it	cc
 8004b54:	461d      	movcc	r5, r3
 8004b56:	0553      	lsls	r3, r2, #21
 8004b58:	d527      	bpl.n	8004baa <__ssputs_r+0x8e>
 8004b5a:	4629      	mov	r1, r5
 8004b5c:	f7ff ff52 	bl	8004a04 <_malloc_r>
 8004b60:	4606      	mov	r6, r0
 8004b62:	b360      	cbz	r0, 8004bbe <__ssputs_r+0xa2>
 8004b64:	6921      	ldr	r1, [r4, #16]
 8004b66:	464a      	mov	r2, r9
 8004b68:	f7ff fed2 	bl	8004910 <memcpy>
 8004b6c:	89a3      	ldrh	r3, [r4, #12]
 8004b6e:	f423 6390 	bic.w	r3, r3, #1152	@ 0x480
 8004b72:	f043 0380 	orr.w	r3, r3, #128	@ 0x80
 8004b76:	81a3      	strh	r3, [r4, #12]
 8004b78:	6126      	str	r6, [r4, #16]
 8004b7a:	6165      	str	r5, [r4, #20]
 8004b7c:	444e      	add	r6, r9
 8004b7e:	eba5 0509 	sub.w	r5, r5, r9
 8004b82:	6026      	str	r6, [r4, #0]
 8004b84:	60a5      	str	r5, [r4, #8]
 8004b86:	463e      	mov	r6, r7
 8004b88:	42be      	cmp	r6, r7
 8004b8a:	d900      	bls.n	8004b8e <__ssputs_r+0x72>
 8004b8c:	463e      	mov	r6, r7
 8004b8e:	6820      	ldr	r0, [r4, #0]
 8004b90:	4632      	mov	r2, r6
 8004b92:	4641      	mov	r1, r8
 8004b94:	f000 faa6 	bl	80050e4 <memmove>
 8004b98:	68a3      	ldr	r3, [r4, #8]
 8004b9a:	1b9b      	subs	r3, r3, r6
 8004b9c:	60a3      	str	r3, [r4, #8]
 8004b9e:	6823      	ldr	r3, [r4, #0]
 8004ba0:	4433      	add	r3, r6
 8004ba2:	6023      	str	r3, [r4, #0]
 8004ba4:	2000      	movs	r0, #0
 8004ba6:	e8bd 87f0 	ldmia.w	sp!, {r4, r5, r6, r7, r8, r9, sl, pc}
 8004baa:	462a      	mov	r2, r5
 8004bac:	f000 fac4 	bl	8005138 <_realloc_r>
 8004bb0:	4606      	mov	r6, r0
 8004bb2:	2800      	cmp	r0, #0
 8004bb4:	d1e0      	bne.n	8004b78 <__ssputs_r+0x5c>
 8004bb6:	6921      	ldr	r1, [r4, #16]
 8004bb8:	4650      	mov	r0, sl
 8004bba:	f7ff feb7 	bl	800492c <_free_r>
 8004bbe:	230c      	movs	r3, #12
 8004bc0:	f8ca 3000 	str.w	r3, [sl]
 8004bc4:	89a3      	ldrh	r3, [r4, #12]
 8004bc6:	f043 0340 	orr.w	r3, r3, #64	@ 0x40
 8004bca:	81a3      	strh	r3, [r4, #12]
 8004bcc:	f04f 30ff 	mov.w	r0, #4294967295
 8004bd0:	e7e9      	b.n	8004ba6 <__ssputs_r+0x8a>
	...

08004bd4 <_svfiprintf_r>:
 8004bd4:	e92d 4ff0 	stmdb	sp!, {r4, r5, r6, r7, r8, r9, sl, fp, lr}
 8004bd8:	4698      	mov	r8, r3
 8004bda:	898b      	ldrh	r3, [r1, #12]
 8004bdc:	061b      	lsls	r3, r3, #24
 8004bde:	b09d      	sub	sp, #116	@ 0x74
 8004be0:	4607      	mov	r7, r0
 8004be2:	460d      	mov	r5, r1
 8004be4:	4614      	mov	r4, r2
 8004be6:	d510      	bpl.n	8004c0a <_svfiprintf_r+0x36>
 8004be8:	690b      	ldr	r3, [r1, #16]
 8004bea:	b973      	cbnz	r3, 8004c0a <_svfiprintf_r+0x36>
 8004bec:	2140      	movs	r1, #64	@ 0x40
 8004bee:	f7ff ff09 	bl	8004a04 <_malloc_r>
 8004bf2:	6028      	str	r0, [r5, #0]
 8004bf4:	6128      	str	r0, [r5, #16]
 8004bf6:	b930      	cbnz	r0, 8004c06 <_svfiprintf_r+0x32>
 8004bf8:	230c      	movs	r3, #12
 8004bfa:	603b      	str	r3, [r7, #0]
 8004bfc:	f04f 30ff 	mov.w	r0, #4294967295
 8004c00:	b01d      	add	sp, #116	@ 0x74
 8004c02:	e8bd 8ff0 	ldmia.w	sp!, {r4, r5, r6, r7, r8, r9, sl, fp, pc}
 8004c06:	2340      	movs	r3, #64	@ 0x40
 8004c08:	616b      	str	r3, [r5, #20]
 8004c0a:	2300      	movs	r3, #0
 8004c0c:	9309      	str	r3, [sp, #36]	@ 0x24
 8004c0e:	2320      	movs	r3, #32
 8004c10:	f88d 3029 	strb.w	r3, [sp, #41]	@ 0x29
 8004c14:	f8cd 800c 	str.w	r8, [sp, #12]
 8004c18:	2330      	movs	r3, #48	@ 0x30
 8004c1a:	f8df 819c 	ldr.w	r8, [pc, #412]	@ 8004db8 <_svfiprintf_r+0x1e4>
 8004c1e:	f88d 302a 	strb.w	r3, [sp, #42]	@ 0x2a
 8004c22:	f04f 0901 	mov.w	r9, #1
 8004c26:	4623      	mov	r3, r4
 8004c28:	469a      	mov	sl, r3
 8004c2a:	f813 2b01 	ldrb.w	r2, [r3], #1
 8004c2e:	b10a      	cbz	r2, 8004c34 <_svfiprintf_r+0x60>
 8004c30:	2a25      	cmp	r2, #37	@ 0x25
 8004c32:	d1f9      	bne.n	8004c28 <_svfiprintf_r+0x54>
 8004c34:	ebba 0b04 	subs.w	fp, sl, r4
 8004c38:	d00b      	beq.n	8004c52 <_svfiprintf_r+0x7e>
 8004c3a:	465b      	mov	r3, fp
 8004c3c:	4622      	mov	r2, r4
 8004c3e:	4629      	mov	r1, r5
 8004c40:	4638      	mov	r0, r7
 8004c42:	f7ff ff6b 	bl	8004b1c <__ssputs_r>
 8004c46:	3001      	adds	r0, #1
 8004c48:	f000 80a7 	beq.w	8004d9a <_svfiprintf_r+0x1c6>
 8004c4c:	9a09      	ldr	r2, [sp, #36]	@ 0x24
 8004c4e:	445a      	add	r2, fp
 8004c50:	9209      	str	r2, [sp, #36]	@ 0x24
 8004c52:	f89a 3000 	ldrb.w	r3, [sl]
 8004c56:	2b00      	cmp	r3, #0
 8004c58:	f000 809f 	beq.w	8004d9a <_svfiprintf_r+0x1c6>
 8004c5c:	2300      	movs	r3, #0
 8004c5e:	f04f 32ff 	mov.w	r2, #4294967295
 8004c62:	e9cd 2305 	strd	r2, r3, [sp, #20]
 8004c66:	f10a 0a01 	add.w	sl, sl, #1
 8004c6a:	9304      	str	r3, [sp, #16]
 8004c6c:	9307      	str	r3, [sp, #28]
 8004c6e:	f88d 3053 	strb.w	r3, [sp, #83]	@ 0x53
 8004c72:	931a      	str	r3, [sp, #104]	@ 0x68
 8004c74:	4654      	mov	r4, sl
 8004c76:	2205      	movs	r2, #5
 8004c78:	f814 1b01 	ldrb.w	r1, [r4], #1
 8004c7c:	484e      	ldr	r0, [pc, #312]	@ (8004db8 <_svfiprintf_r+0x1e4>)
 8004c7e:	f7fb faaf 	bl	80001e0 <memchr>
 8004c82:	9a04      	ldr	r2, [sp, #16]
 8004c84:	b9d8      	cbnz	r0, 8004cbe <_svfiprintf_r+0xea>
 8004c86:	06d0      	lsls	r0, r2, #27
 8004c88:	bf44      	itt	mi
 8004c8a:	2320      	movmi	r3, #32
 8004c8c:	f88d 3053 	strbmi.w	r3, [sp, #83]	@ 0x53
 8004c90:	0711      	lsls	r1, r2, #28
 8004c92:	bf44      	itt	mi
 8004c94:	232b      	movmi	r3, #43	@ 0x2b
 8004c96:	f88d 3053 	strbmi.w	r3, [sp, #83]	@ 0x53
 8004c9a:	f89a 3000 	ldrb.w	r3, [sl]
 8004c9e:	2b2a      	cmp	r3, #42	@ 0x2a
 8004ca0:	d015      	beq.n	8004cce <_svfiprintf_r+0xfa>
 8004ca2:	9a07      	ldr	r2, [sp, #28]
 8004ca4:	4654      	mov	r4, sl
 8004ca6:	2000      	movs	r0, #0
 8004ca8:	f04f 0c0a 	mov.w	ip, #10
 8004cac:	4621      	mov	r1, r4
 8004cae:	f811 3b01 	ldrb.w	r3, [r1], #1
 8004cb2:	3b30      	subs	r3, #48	@ 0x30
 8004cb4:	2b09      	cmp	r3, #9
 8004cb6:	d94b      	bls.n	8004d50 <_svfiprintf_r+0x17c>
 8004cb8:	b1b0      	cbz	r0, 8004ce8 <_svfiprintf_r+0x114>
 8004cba:	9207      	str	r2, [sp, #28]
 8004cbc:	e014      	b.n	8004ce8 <_svfiprintf_r+0x114>
 8004cbe:	eba0 0308 	sub.w	r3, r0, r8
 8004cc2:	fa09 f303 	lsl.w	r3, r9, r3
 8004cc6:	4313      	orrs	r3, r2
 8004cc8:	9304      	str	r3, [sp, #16]
 8004cca:	46a2      	mov	sl, r4
 8004ccc:	e7d2      	b.n	8004c74 <_svfiprintf_r+0xa0>
 8004cce:	9b03      	ldr	r3, [sp, #12]
 8004cd0:	1d19      	adds	r1, r3, #4
 8004cd2:	681b      	ldr	r3, [r3, #0]
 8004cd4:	9103      	str	r1, [sp, #12]
 8004cd6:	2b00      	cmp	r3, #0
 8004cd8:	bfbb      	ittet	lt
 8004cda:	425b      	neglt	r3, r3
 8004cdc:	f042 0202 	orrlt.w	r2, r2, #2
 8004ce0:	9307      	strge	r3, [sp, #28]
 8004ce2:	9307      	strlt	r3, [sp, #28]
 8004ce4:	bfb8      	it	lt
 8004ce6:	9204      	strlt	r2, [sp, #16]
 8004ce8:	7823      	ldrb	r3, [r4, #0]
 8004cea:	2b2e      	cmp	r3, #46	@ 0x2e
 8004cec:	d10a      	bne.n	8004d04 <_svfiprintf_r+0x130>
 8004cee:	7863      	ldrb	r3, [r4, #1]
 8004cf0:	2b2a      	cmp	r3, #42	@ 0x2a
 8004cf2:	d132      	bne.n	8004d5a <_svfiprintf_r+0x186>
 8004cf4:	9b03      	ldr	r3, [sp, #12]
 8004cf6:	1d1a      	adds	r2, r3, #4
 8004cf8:	681b      	ldr	r3, [r3, #0]
 8004cfa:	9203      	str	r2, [sp, #12]
 8004cfc:	ea43 73e3 	orr.w	r3, r3, r3, asr #31
 8004d00:	3402      	adds	r4, #2
 8004d02:	9305      	str	r3, [sp, #20]
 8004d04:	f8df a0c0 	ldr.w	sl, [pc, #192]	@ 8004dc8 <_svfiprintf_r+0x1f4>
 8004d08:	7821      	ldrb	r1, [r4, #0]
 8004d0a:	2203      	movs	r2, #3
 8004d0c:	4650      	mov	r0, sl
 8004d0e:	f7fb fa67 	bl	80001e0 <memchr>
 8004d12:	b138      	cbz	r0, 8004d24 <_svfiprintf_r+0x150>
 8004d14:	9b04      	ldr	r3, [sp, #16]
 8004d16:	eba0 000a 	sub.w	r0, r0, sl
 8004d1a:	2240      	movs	r2, #64	@ 0x40
 8004d1c:	4082      	lsls	r2, r0
 8004d1e:	4313      	orrs	r3, r2
 8004d20:	3401      	adds	r4, #1
 8004d22:	9304      	str	r3, [sp, #16]
 8004d24:	f814 1b01 	ldrb.w	r1, [r4], #1
 8004d28:	4824      	ldr	r0, [pc, #144]	@ (8004dbc <_svfiprintf_r+0x1e8>)
 8004d2a:	f88d 1028 	strb.w	r1, [sp, #40]	@ 0x28
 8004d2e:	2206      	movs	r2, #6
 8004d30:	f7fb fa56 	bl	80001e0 <memchr>
 8004d34:	2800      	cmp	r0, #0
 8004d36:	d036      	beq.n	8004da6 <_svfiprintf_r+0x1d2>
 8004d38:	4b21      	ldr	r3, [pc, #132]	@ (8004dc0 <_svfiprintf_r+0x1ec>)
 8004d3a:	bb1b      	cbnz	r3, 8004d84 <_svfiprintf_r+0x1b0>
 8004d3c:	9b03      	ldr	r3, [sp, #12]
 8004d3e:	3307      	adds	r3, #7
 8004d40:	f023 0307 	bic.w	r3, r3, #7
 8004d44:	3308      	adds	r3, #8
 8004d46:	9303      	str	r3, [sp, #12]
 8004d48:	9b09      	ldr	r3, [sp, #36]	@ 0x24
 8004d4a:	4433      	add	r3, r6
 8004d4c:	9309      	str	r3, [sp, #36]	@ 0x24
 8004d4e:	e76a      	b.n	8004c26 <_svfiprintf_r+0x52>
 8004d50:	fb0c 3202 	mla	r2, ip, r2, r3
 8004d54:	460c      	mov	r4, r1
 8004d56:	2001      	movs	r0, #1
 8004d58:	e7a8      	b.n	8004cac <_svfiprintf_r+0xd8>
 8004d5a:	2300      	movs	r3, #0
 8004d5c:	3401      	adds	r4, #1
 8004d5e:	9305      	str	r3, [sp, #20]
 8004d60:	4619      	mov	r1, r3
 8004d62:	f04f 0c0a 	mov.w	ip, #10
 8004d66:	4620      	mov	r0, r4
 8004d68:	f810 2b01 	ldrb.w	r2, [r0], #1
 8004d6c:	3a30      	subs	r2, #48	@ 0x30
 8004d6e:	2a09      	cmp	r2, #9
 8004d70:	d903      	bls.n	8004d7a <_svfiprintf_r+0x1a6>
 8004d72:	2b00      	cmp	r3, #0
 8004d74:	d0c6      	beq.n	8004d04 <_svfiprintf_r+0x130>
 8004d76:	9105      	str	r1, [sp, #20]
 8004d78:	e7c4      	b.n	8004d04 <_svfiprintf_r+0x130>
 8004d7a:	fb0c 2101 	mla	r1, ip, r1, r2
 8004d7e:	4604      	mov	r4, r0
 8004d80:	2301      	movs	r3, #1
 8004d82:	e7f0      	b.n	8004d66 <_svfiprintf_r+0x192>
 8004d84:	ab03      	add	r3, sp, #12
 8004d86:	9300      	str	r3, [sp, #0]
 8004d88:	462a      	mov	r2, r5
 8004d8a:	4b0e      	ldr	r3, [pc, #56]	@ (8004dc4 <_svfiprintf_r+0x1f0>)
 8004d8c:	a904      	add	r1, sp, #16
 8004d8e:	4638      	mov	r0, r7
 8004d90:	f3af 8000 	nop.w
 8004d94:	1c42      	adds	r2, r0, #1
 8004d96:	4606      	mov	r6, r0
 8004d98:	d1d6      	bne.n	8004d48 <_svfiprintf_r+0x174>
 8004d9a:	89ab      	ldrh	r3, [r5, #12]
 8004d9c:	065b      	lsls	r3, r3, #25
 8004d9e:	f53f af2d 	bmi.w	8004bfc <_svfiprintf_r+0x28>
 8004da2:	9809      	ldr	r0, [sp, #36]	@ 0x24
 8004da4:	e72c      	b.n	8004c00 <_svfiprintf_r+0x2c>
 8004da6:	ab03      	add	r3, sp, #12
 8004da8:	9300      	str	r3, [sp, #0]
 8004daa:	462a      	mov	r2, r5
 8004dac:	4b05      	ldr	r3, [pc, #20]	@ (8004dc4 <_svfiprintf_r+0x1f0>)
 8004dae:	a904      	add	r1, sp, #16
 8004db0:	4638      	mov	r0, r7
 8004db2:	f000 f879 	bl	8004ea8 <_printf_i>
 8004db6:	e7ed      	b.n	8004d94 <_svfiprintf_r+0x1c0>
 8004db8:	08005260 	.word	0x08005260
 8004dbc:	0800526a 	.word	0x0800526a
 8004dc0:	00000000 	.word	0x00000000
 8004dc4:	08004b1d 	.word	0x08004b1d
 8004dc8:	08005266 	.word	0x08005266

08004dcc <_printf_common>:
 8004dcc:	e92d 47f0 	stmdb	sp!, {r4, r5, r6, r7, r8, r9, sl, lr}
 8004dd0:	4616      	mov	r6, r2
 8004dd2:	4698      	mov	r8, r3
 8004dd4:	688a      	ldr	r2, [r1, #8]
 8004dd6:	690b      	ldr	r3, [r1, #16]
 8004dd8:	f8dd 9020 	ldr.w	r9, [sp, #32]
 8004ddc:	4293      	cmp	r3, r2
 8004dde:	bfb8      	it	lt
 8004de0:	4613      	movlt	r3, r2
 8004de2:	6033      	str	r3, [r6, #0]
 8004de4:	f891 2043 	ldrb.w	r2, [r1, #67]	@ 0x43
 8004de8:	4607      	mov	r7, r0
 8004dea:	460c      	mov	r4, r1
 8004dec:	b10a      	cbz	r2, 8004df2 <_printf_common+0x26>
 8004dee:	3301      	adds	r3, #1
 8004df0:	6033      	str	r3, [r6, #0]
 8004df2:	6823      	ldr	r3, [r4, #0]
 8004df4:	0699      	lsls	r1, r3, #26
 8004df6:	bf42      	ittt	mi
 8004df8:	6833      	ldrmi	r3, [r6, #0]
 8004dfa:	3302      	addmi	r3, #2
 8004dfc:	6033      	strmi	r3, [r6, #0]
 8004dfe:	6825      	ldr	r5, [r4, #0]
 8004e00:	f015 0506 	ands.w	r5, r5, #6
 8004e04:	d106      	bne.n	8004e14 <_printf_common+0x48>
 8004e06:	f104 0a19 	add.w	sl, r4, #25
 8004e0a:	68e3      	ldr	r3, [r4, #12]
 8004e0c:	6832      	ldr	r2, [r6, #0]
 8004e0e:	1a9b      	subs	r3, r3, r2
 8004e10:	42ab      	cmp	r3, r5
 8004e12:	dc26      	bgt.n	8004e62 <_printf_common+0x96>
 8004e14:	f894 3043 	ldrb.w	r3, [r4, #67]	@ 0x43
 8004e18:	6822      	ldr	r2, [r4, #0]
 8004e1a:	3b00      	subs	r3, #0
 8004e1c:	bf18      	it	ne
 8004e1e:	2301      	movne	r3, #1
 8004e20:	0692      	lsls	r2, r2, #26
 8004e22:	d42b      	bmi.n	8004e7c <_printf_common+0xb0>
 8004e24:	f104 0243 	add.w	r2, r4, #67	@ 0x43
 8004e28:	4641      	mov	r1, r8
 8004e2a:	4638      	mov	r0, r7
 8004e2c:	47c8      	blx	r9
 8004e2e:	3001      	adds	r0, #1
 8004e30:	d01e      	beq.n	8004e70 <_printf_common+0xa4>
 8004e32:	6823      	ldr	r3, [r4, #0]
 8004e34:	6922      	ldr	r2, [r4, #16]
 8004e36:	f003 0306 	and.w	r3, r3, #6
 8004e3a:	2b04      	cmp	r3, #4
 8004e3c:	bf02      	ittt	eq
 8004e3e:	68e5      	ldreq	r5, [r4, #12]
 8004e40:	6833      	ldreq	r3, [r6, #0]
 8004e42:	1aed      	subeq	r5, r5, r3
 8004e44:	68a3      	ldr	r3, [r4, #8]
 8004e46:	bf0c      	ite	eq
 8004e48:	ea25 75e5 	biceq.w	r5, r5, r5, asr #31
 8004e4c:	2500      	movne	r5, #0
 8004e4e:	4293      	cmp	r3, r2
 8004e50:	bfc4      	itt	gt
 8004e52:	1a9b      	subgt	r3, r3, r2
 8004e54:	18ed      	addgt	r5, r5, r3
 8004e56:	2600      	movs	r6, #0
 8004e58:	341a      	adds	r4, #26
 8004e5a:	42b5      	cmp	r5, r6
 8004e5c:	d11a      	bne.n	8004e94 <_printf_common+0xc8>
 8004e5e:	2000      	movs	r0, #0
 8004e60:	e008      	b.n	8004e74 <_printf_common+0xa8>
 8004e62:	2301      	movs	r3, #1
 8004e64:	4652      	mov	r2, sl
 8004e66:	4641      	mov	r1, r8
 8004e68:	4638      	mov	r0, r7
 8004e6a:	47c8      	blx	r9
 8004e6c:	3001      	adds	r0, #1
 8004e6e:	d103      	bne.n	8004e78 <_printf_common+0xac>
 8004e70:	f04f 30ff 	mov.w	r0, #4294967295
 8004e74:	e8bd 87f0 	ldmia.w	sp!, {r4, r5, r6, r7, r8, r9, sl, pc}
 8004e78:	3501      	adds	r5, #1
 8004e7a:	e7c6      	b.n	8004e0a <_printf_common+0x3e>
 8004e7c:	18e1      	adds	r1, r4, r3
 8004e7e:	1c5a      	adds	r2, r3, #1
 8004e80:	2030      	movs	r0, #48	@ 0x30
 8004e82:	f881 0043 	strb.w	r0, [r1, #67]	@ 0x43
 8004e86:	4422      	add	r2, r4
 8004e88:	f894 1045 	ldrb.w	r1, [r4, #69]	@ 0x45
 8004e8c:	f882 1043 	strb.w	r1, [r2, #67]	@ 0x43
 8004e90:	3302      	adds	r3, #2
 8004e92:	e7c7      	b.n	8004e24 <_printf_common+0x58>
 8004e94:	2301      	movs	r3, #1
 8004e96:	4622      	mov	r2, r4
 8004e98:	4641      	mov	r1, r8
 8004e9a:	4638      	mov	r0, r7
 8004e9c:	47c8      	blx	r9
 8004e9e:	3001      	adds	r0, #1
 8004ea0:	d0e6      	beq.n	8004e70 <_printf_common+0xa4>
 8004ea2:	3601      	adds	r6, #1
 8004ea4:	e7d9      	b.n	8004e5a <_printf_common+0x8e>
	...

08004ea8 <_printf_i>:
 8004ea8:	e92d 47ff 	stmdb	sp!, {r0, r1, r2, r3, r4, r5, r6, r7, r8, r9, sl, lr}
 8004eac:	7e0f      	ldrb	r7, [r1, #24]
 8004eae:	9e0c      	ldr	r6, [sp, #48]	@ 0x30
 8004eb0:	2f78      	cmp	r7, #120	@ 0x78
 8004eb2:	4691      	mov	r9, r2
 8004eb4:	4680      	mov	r8, r0
 8004eb6:	460c      	mov	r4, r1
 8004eb8:	469a      	mov	sl, r3
 8004eba:	f101 0243 	add.w	r2, r1, #67	@ 0x43
 8004ebe:	d807      	bhi.n	8004ed0 <_printf_i+0x28>
 8004ec0:	2f62      	cmp	r7, #98	@ 0x62
 8004ec2:	d80a      	bhi.n	8004eda <_printf_i+0x32>
 8004ec4:	2f00      	cmp	r7, #0
 8004ec6:	f000 80d1 	beq.w	800506c <_printf_i+0x1c4>
 8004eca:	2f58      	cmp	r7, #88	@ 0x58
 8004ecc:	f000 80b8 	beq.w	8005040 <_printf_i+0x198>
 8004ed0:	f104 0642 	add.w	r6, r4, #66	@ 0x42
 8004ed4:	f884 7042 	strb.w	r7, [r4, #66]	@ 0x42
 8004ed8:	e03a      	b.n	8004f50 <_printf_i+0xa8>
 8004eda:	f1a7 0363 	sub.w	r3, r7, #99	@ 0x63
 8004ede:	2b15      	cmp	r3, #21
 8004ee0:	d8f6      	bhi.n	8004ed0 <_printf_i+0x28>
 8004ee2:	a101      	add	r1, pc, #4	@ (adr r1, 8004ee8 <_printf_i+0x40>)
 8004ee4:	f851 f023 	ldr.w	pc, [r1, r3, lsl #2]
 8004ee8:	08004f41 	.word	0x08004f41
 8004eec:	08004f55 	.word	0x08004f55
 8004ef0:	08004ed1 	.word	0x08004ed1
 8004ef4:	08004ed1 	.word	0x08004ed1
 8004ef8:	08004ed1 	.word	0x08004ed1
 8004efc:	08004ed1 	.word	0x08004ed1
 8004f00:	08004f55 	.word	0x08004f55
 8004f04:	08004ed1 	.word	0x08004ed1
 8004f08:	08004ed1 	.word	0x08004ed1
 8004f0c:	08004ed1 	.word	0x08004ed1
 8004f10:	08004ed1 	.word	0x08004ed1
 8004f14:	08005053 	.word	0x08005053
 8004f18:	08004f7f 	.word	0x08004f7f
 8004f1c:	0800500d 	.word	0x0800500d
 8004f20:	08004ed1 	.word	0x08004ed1
 8004f24:	08004ed1 	.word	0x08004ed1
 8004f28:	08005075 	.word	0x08005075
 8004f2c:	08004ed1 	.word	0x08004ed1
 8004f30:	08004f7f 	.word	0x08004f7f
 8004f34:	08004ed1 	.word	0x08004ed1
 8004f38:	08004ed1 	.word	0x08004ed1
 8004f3c:	08005015 	.word	0x08005015
 8004f40:	6833      	ldr	r3, [r6, #0]
 8004f42:	1d1a      	adds	r2, r3, #4
 8004f44:	681b      	ldr	r3, [r3, #0]
 8004f46:	6032      	str	r2, [r6, #0]
 8004f48:	f104 0642 	add.w	r6, r4, #66	@ 0x42
 8004f4c:	f884 3042 	strb.w	r3, [r4, #66]	@ 0x42
 8004f50:	2301      	movs	r3, #1
 8004f52:	e09c      	b.n	800508e <_printf_i+0x1e6>
 8004f54:	6833      	ldr	r3, [r6, #0]
 8004f56:	6820      	ldr	r0, [r4, #0]
 8004f58:	1d19      	adds	r1, r3, #4
 8004f5a:	6031      	str	r1, [r6, #0]
 8004f5c:	0606      	lsls	r6, r0, #24
 8004f5e:	d501      	bpl.n	8004f64 <_printf_i+0xbc>
 8004f60:	681d      	ldr	r5, [r3, #0]
 8004f62:	e003      	b.n	8004f6c <_printf_i+0xc4>
 8004f64:	0645      	lsls	r5, r0, #25
 8004f66:	d5fb      	bpl.n	8004f60 <_printf_i+0xb8>
 8004f68:	f9b3 5000 	ldrsh.w	r5, [r3]
 8004f6c:	2d00      	cmp	r5, #0
 8004f6e:	da03      	bge.n	8004f78 <_printf_i+0xd0>
 8004f70:	232d      	movs	r3, #45	@ 0x2d
 8004f72:	426d      	negs	r5, r5
 8004f74:	f884 3043 	strb.w	r3, [r4, #67]	@ 0x43
 8004f78:	4858      	ldr	r0, [pc, #352]	@ (80050dc <_printf_i+0x234>)
 8004f7a:	230a      	movs	r3, #10
 8004f7c:	e011      	b.n	8004fa2 <_printf_i+0xfa>
 8004f7e:	6821      	ldr	r1, [r4, #0]
 8004f80:	6833      	ldr	r3, [r6, #0]
 8004f82:	0608      	lsls	r0, r1, #24
 8004f84:	f853 5b04 	ldr.w	r5, [r3], #4
 8004f88:	d402      	bmi.n	8004f90 <_printf_i+0xe8>
 8004f8a:	0649      	lsls	r1, r1, #25
 8004f8c:	bf48      	it	mi
 8004f8e:	b2ad      	uxthmi	r5, r5
 8004f90:	2f6f      	cmp	r7, #111	@ 0x6f
 8004f92:	4852      	ldr	r0, [pc, #328]	@ (80050dc <_printf_i+0x234>)
 8004f94:	6033      	str	r3, [r6, #0]
 8004f96:	bf14      	ite	ne
 8004f98:	230a      	movne	r3, #10
 8004f9a:	2308      	moveq	r3, #8
 8004f9c:	2100      	movs	r1, #0
 8004f9e:	f884 1043 	strb.w	r1, [r4, #67]	@ 0x43
 8004fa2:	6866      	ldr	r6, [r4, #4]
 8004fa4:	60a6      	str	r6, [r4, #8]
 8004fa6:	2e00      	cmp	r6, #0
 8004fa8:	db05      	blt.n	8004fb6 <_printf_i+0x10e>
 8004faa:	6821      	ldr	r1, [r4, #0]
 8004fac:	432e      	orrs	r6, r5
 8004fae:	f021 0104 	bic.w	r1, r1, #4
 8004fb2:	6021      	str	r1, [r4, #0]
 8004fb4:	d04b      	beq.n	800504e <_printf_i+0x1a6>
 8004fb6:	4616      	mov	r6, r2
 8004fb8:	fbb5 f1f3 	udiv	r1, r5, r3
 8004fbc:	fb03 5711 	mls	r7, r3, r1, r5
 8004fc0:	5dc7      	ldrb	r7, [r0, r7]
 8004fc2:	f806 7d01 	strb.w	r7, [r6, #-1]!
 8004fc6:	462f      	mov	r7, r5
 8004fc8:	42bb      	cmp	r3, r7
 8004fca:	460d      	mov	r5, r1
 8004fcc:	d9f4      	bls.n	8004fb8 <_printf_i+0x110>
 8004fce:	2b08      	cmp	r3, #8
 8004fd0:	d10b      	bne.n	8004fea <_printf_i+0x142>
 8004fd2:	6823      	ldr	r3, [r4, #0]
 8004fd4:	07df      	lsls	r7, r3, #31
 8004fd6:	d508      	bpl.n	8004fea <_printf_i+0x142>
 8004fd8:	6923      	ldr	r3, [r4, #16]
 8004fda:	6861      	ldr	r1, [r4, #4]
 8004fdc:	4299      	cmp	r1, r3
 8004fde:	bfde      	ittt	le
 8004fe0:	2330      	movle	r3, #48	@ 0x30
 8004fe2:	f806 3c01 	strble.w	r3, [r6, #-1]
 8004fe6:	f106 36ff 	addle.w	r6, r6, #4294967295
 8004fea:	1b92      	subs	r2, r2, r6
 8004fec:	6122      	str	r2, [r4, #16]
 8004fee:	f8cd a000 	str.w	sl, [sp]
 8004ff2:	464b      	mov	r3, r9
 8004ff4:	aa03      	add	r2, sp, #12
 8004ff6:	4621      	mov	r1, r4
 8004ff8:	4640      	mov	r0, r8
 8004ffa:	f7ff fee7 	bl	8004dcc <_printf_common>
 8004ffe:	3001      	adds	r0, #1
 8005000:	d14a      	bne.n	8005098 <_printf_i+0x1f0>
 8005002:	f04f 30ff 	mov.w	r0, #4294967295
 8005006:	b004      	add	sp, #16
 8005008:	e8bd 87f0 	ldmia.w	sp!, {r4, r5, r6, r7, r8, r9, sl, pc}
 800500c:	6823      	ldr	r3, [r4, #0]
 800500e:	f043 0320 	orr.w	r3, r3, #32
 8005012:	6023      	str	r3, [r4, #0]
 8005014:	4832      	ldr	r0, [pc, #200]	@ (80050e0 <_printf_i+0x238>)
 8005016:	2778      	movs	r7, #120	@ 0x78
 8005018:	f884 7045 	strb.w	r7, [r4, #69]	@ 0x45
 800501c:	6823      	ldr	r3, [r4, #0]
 800501e:	6831      	ldr	r1, [r6, #0]
 8005020:	061f      	lsls	r7, r3, #24
 8005022:	f851 5b04 	ldr.w	r5, [r1], #4
 8005026:	d402      	bmi.n	800502e <_printf_i+0x186>
 8005028:	065f      	lsls	r7, r3, #25
 800502a:	bf48      	it	mi
 800502c:	b2ad      	uxthmi	r5, r5
 800502e:	6031      	str	r1, [r6, #0]
 8005030:	07d9      	lsls	r1, r3, #31
 8005032:	bf44      	itt	mi
 8005034:	f043 0320 	orrmi.w	r3, r3, #32
 8005038:	6023      	strmi	r3, [r4, #0]
 800503a:	b11d      	cbz	r5, 8005044 <_printf_i+0x19c>
 800503c:	2310      	movs	r3, #16
 800503e:	e7ad      	b.n	8004f9c <_printf_i+0xf4>
 8005040:	4826      	ldr	r0, [pc, #152]	@ (80050dc <_printf_i+0x234>)
 8005042:	e7e9      	b.n	8005018 <_printf_i+0x170>
 8005044:	6823      	ldr	r3, [r4, #0]
 8005046:	f023 0320 	bic.w	r3, r3, #32
 800504a:	6023      	str	r3, [r4, #0]
 800504c:	e7f6      	b.n	800503c <_printf_i+0x194>
 800504e:	4616      	mov	r6, r2
 8005050:	e7bd      	b.n	8004fce <_printf_i+0x126>
 8005052:	6833      	ldr	r3, [r6, #0]
 8005054:	6825      	ldr	r5, [r4, #0]
 8005056:	6961      	ldr	r1, [r4, #20]
 8005058:	1d18      	adds	r0, r3, #4
 800505a:	6030      	str	r0, [r6, #0]
 800505c:	062e      	lsls	r6, r5, #24
 800505e:	681b      	ldr	r3, [r3, #0]
 8005060:	d501      	bpl.n	8005066 <_printf_i+0x1be>
 8005062:	6019      	str	r1, [r3, #0]
 8005064:	e002      	b.n	800506c <_printf_i+0x1c4>
 8005066:	0668      	lsls	r0, r5, #25
 8005068:	d5fb      	bpl.n	8005062 <_printf_i+0x1ba>
 800506a:	8019      	strh	r1, [r3, #0]
 800506c:	2300      	movs	r3, #0
 800506e:	6123      	str	r3, [r4, #16]
 8005070:	4616      	mov	r6, r2
 8005072:	e7bc      	b.n	8004fee <_printf_i+0x146>
 8005074:	6833      	ldr	r3, [r6, #0]
 8005076:	1d1a      	adds	r2, r3, #4
 8005078:	6032      	str	r2, [r6, #0]
 800507a:	681e      	ldr	r6, [r3, #0]
 800507c:	6862      	ldr	r2, [r4, #4]
 800507e:	2100      	movs	r1, #0
 8005080:	4630      	mov	r0, r6
 8005082:	f7fb f8ad 	bl	80001e0 <memchr>
 8005086:	b108      	cbz	r0, 800508c <_printf_i+0x1e4>
 8005088:	1b80      	subs	r0, r0, r6
 800508a:	6060      	str	r0, [r4, #4]
 800508c:	6863      	ldr	r3, [r4, #4]
 800508e:	6123      	str	r3, [r4, #16]
 8005090:	2300      	movs	r3, #0
 8005092:	f884 3043 	strb.w	r3, [r4, #67]	@ 0x43
 8005096:	e7aa      	b.n	8004fee <_printf_i+0x146>
 8005098:	6923      	ldr	r3, [r4, #16]
 800509a:	4632      	mov	r2, r6
 800509c:	4649      	mov	r1, r9
 800509e:	4640      	mov	r0, r8
 80050a0:	47d0      	blx	sl
 80050a2:	3001      	adds	r0, #1
 80050a4:	d0ad      	beq.n	8005002 <_printf_i+0x15a>
 80050a6:	6823      	ldr	r3, [r4, #0]
 80050a8:	079b      	lsls	r3, r3, #30
 80050aa:	d413      	bmi.n	80050d4 <_printf_i+0x22c>
 80050ac:	68e0      	ldr	r0, [r4, #12]
 80050ae:	9b03      	ldr	r3, [sp, #12]
 80050b0:	4298      	cmp	r0, r3
 80050b2:	bfb8      	it	lt
 80050b4:	4618      	movlt	r0, r3
 80050b6:	e7a6      	b.n	8005006 <_printf_i+0x15e>
 80050b8:	2301      	movs	r3, #1
 80050ba:	4632      	mov	r2, r6
 80050bc:	4649      	mov	r1, r9
 80050be:	4640      	mov	r0, r8
 80050c0:	47d0      	blx	sl
 80050c2:	3001      	adds	r0, #1
 80050c4:	d09d      	beq.n	8005002 <_printf_i+0x15a>
 80050c6:	3501      	adds	r5, #1
 80050c8:	68e3      	ldr	r3, [r4, #12]
 80050ca:	9903      	ldr	r1, [sp, #12]
 80050cc:	1a5b      	subs	r3, r3, r1
 80050ce:	42ab      	cmp	r3, r5
 80050d0:	dcf2      	bgt.n	80050b8 <_printf_i+0x210>
 80050d2:	e7eb      	b.n	80050ac <_printf_i+0x204>
 80050d4:	2500      	movs	r5, #0
 80050d6:	f104 0619 	add.w	r6, r4, #25
 80050da:	e7f5      	b.n	80050c8 <_printf_i+0x220>
 80050dc:	08005271 	.word	0x08005271
 80050e0:	08005282 	.word	0x08005282

080050e4 <memmove>:
 80050e4:	4288      	cmp	r0, r1
 80050e6:	b510      	push	{r4, lr}
 80050e8:	eb01 0402 	add.w	r4, r1, r2
 80050ec:	d902      	bls.n	80050f4 <memmove+0x10>
 80050ee:	4284      	cmp	r4, r0
 80050f0:	4623      	mov	r3, r4
 80050f2:	d807      	bhi.n	8005104 <memmove+0x20>
 80050f4:	1e43      	subs	r3, r0, #1
 80050f6:	42a1      	cmp	r1, r4
 80050f8:	d008      	beq.n	800510c <memmove+0x28>
 80050fa:	f811 2b01 	ldrb.w	r2, [r1], #1
 80050fe:	f803 2f01 	strb.w	r2, [r3, #1]!
 8005102:	e7f8      	b.n	80050f6 <memmove+0x12>
 8005104:	4402      	add	r2, r0
 8005106:	4601      	mov	r1, r0
 8005108:	428a      	cmp	r2, r1
 800510a:	d100      	bne.n	800510e <memmove+0x2a>
 800510c:	bd10      	pop	{r4, pc}
 800510e:	f813 4d01 	ldrb.w	r4, [r3, #-1]!
 8005112:	f802 4d01 	strb.w	r4, [r2, #-1]!
 8005116:	e7f7      	b.n	8005108 <memmove+0x24>

08005118 <_sbrk_r>:
 8005118:	b538      	push	{r3, r4, r5, lr}
 800511a:	4d06      	ldr	r5, [pc, #24]	@ (8005134 <_sbrk_r+0x1c>)
 800511c:	2300      	movs	r3, #0
 800511e:	4604      	mov	r4, r0
 8005120:	4608      	mov	r0, r1
 8005122:	602b      	str	r3, [r5, #0]
 8005124:	f7fb fc94 	bl	8000a50 <_sbrk>
 8005128:	1c43      	adds	r3, r0, #1
 800512a:	d102      	bne.n	8005132 <_sbrk_r+0x1a>
 800512c:	682b      	ldr	r3, [r5, #0]
 800512e:	b103      	cbz	r3, 8005132 <_sbrk_r+0x1a>
 8005130:	6023      	str	r3, [r4, #0]
 8005132:	bd38      	pop	{r3, r4, r5, pc}
 8005134:	200011a8 	.word	0x200011a8

08005138 <_realloc_r>:
 8005138:	e92d 41f0 	stmdb	sp!, {r4, r5, r6, r7, r8, lr}
 800513c:	4607      	mov	r7, r0
 800513e:	4614      	mov	r4, r2
 8005140:	460d      	mov	r5, r1
 8005142:	b921      	cbnz	r1, 800514e <_realloc_r+0x16>
 8005144:	e8bd 41f0 	ldmia.w	sp!, {r4, r5, r6, r7, r8, lr}
 8005148:	4611      	mov	r1, r2
 800514a:	f7ff bc5b 	b.w	8004a04 <_malloc_r>
 800514e:	b92a      	cbnz	r2, 800515c <_realloc_r+0x24>
 8005150:	f7ff fbec 	bl	800492c <_free_r>
 8005154:	4625      	mov	r5, r4
 8005156:	4628      	mov	r0, r5
 8005158:	e8bd 81f0 	ldmia.w	sp!, {r4, r5, r6, r7, r8, pc}
 800515c:	f000 f81a 	bl	8005194 <_malloc_usable_size_r>
 8005160:	4284      	cmp	r4, r0
 8005162:	4606      	mov	r6, r0
 8005164:	d802      	bhi.n	800516c <_realloc_r+0x34>
 8005166:	ebb4 0f50 	cmp.w	r4, r0, lsr #1
 800516a:	d8f4      	bhi.n	8005156 <_realloc_r+0x1e>
 800516c:	4621      	mov	r1, r4
 800516e:	4638      	mov	r0, r7
 8005170:	f7ff fc48 	bl	8004a04 <_malloc_r>
 8005174:	4680      	mov	r8, r0
 8005176:	b908      	cbnz	r0, 800517c <_realloc_r+0x44>
 8005178:	4645      	mov	r5, r8
 800517a:	e7ec      	b.n	8005156 <_realloc_r+0x1e>
 800517c:	42b4      	cmp	r4, r6
 800517e:	4622      	mov	r2, r4
 8005180:	4629      	mov	r1, r5
 8005182:	bf28      	it	cs
 8005184:	4632      	movcs	r2, r6
 8005186:	f7ff fbc3 	bl	8004910 <memcpy>
 800518a:	4629      	mov	r1, r5
 800518c:	4638      	mov	r0, r7
 800518e:	f7ff fbcd 	bl	800492c <_free_r>
 8005192:	e7f1      	b.n	8005178 <_realloc_r+0x40>

08005194 <_malloc_usable_size_r>:
 8005194:	f851 3c04 	ldr.w	r3, [r1, #-4]
 8005198:	1f18      	subs	r0, r3, #4
 800519a:	2b00      	cmp	r3, #0
 800519c:	bfbc      	itt	lt
 800519e:	580b      	ldrlt	r3, [r1, r0]
 80051a0:	18c0      	addlt	r0, r0, r3
 80051a2:	4770      	bx	lr

080051a4 <_init>:
 80051a4:	b5f8      	push	{r3, r4, r5, r6, r7, lr}
 80051a6:	bf00      	nop
 80051a8:	bcf8      	pop	{r3, r4, r5, r6, r7}
 80051aa:	bc08      	pop	{r3}
 80051ac:	469e      	mov	lr, r3
 80051ae:	4770      	bx	lr

080051b0 <_fini>:
 80051b0:	b5f8      	push	{r3, r4, r5, r6, r7, lr}
 80051b2:	bf00      	nop
 80051b4:	bcf8      	pop	{r3, r4, r5, r6, r7}
 80051b6:	bc08      	pop	{r3}
 80051b8:	469e      	mov	lr, r3
 80051ba:	4770      	bx	lr
